

Microchip MPLAB XC8 Assembler V2.36 build 20220127204148 
                                                                                               Thu Aug 25 15:08:17 2022

Microchip MPLAB XC8 C Compiler v2.36 (Free license) build 20220127204148 Og1 
     1                           	processor	16F877A
     2                           	pagewidth 120
     3                           	opt	flic
     4                           	psect	idataBANK0,global,class=CODE,delta=2,noexec
     5                           	psect	idataBANK1,global,class=CODE,delta=2,noexec
     6                           	psect	strings,global,class=STRING,delta=2,noexec
     7                           	psect	stringtext,global,reloc=256,class=STRCODE,delta=2,noexec
     8                           	psect	cinit,global,class=CODE,merge=1,delta=2
     9                           	psect	bssCOMMON,global,class=COMMON,space=1,delta=1,noexec
    10                           	psect	bssBANK0,global,class=BANK0,space=1,delta=1,noexec
    11                           	psect	dataBANK0,global,class=BANK0,space=1,delta=1,noexec
    12                           	psect	bssBANK1,global,class=BANK1,space=1,delta=1,noexec
    13                           	psect	dataBANK1,global,class=BANK1,space=1,delta=1,noexec
    14                           	psect	inittext,global,class=CODE,delta=2
    15                           	psect	clrtext,global,class=CODE,delta=2
    16                           	psect	cstackBANK1,global,class=BANK1,space=1,delta=1,noexec
    17                           	psect	cstackCOMMON,global,class=COMMON,space=1,delta=1,noexec
    18                           	psect	cstackBANK0,global,class=BANK0,space=1,delta=1,noexec
    19                           	psect	maintext,global,class=CODE,split=1,delta=2
    20                           	psect	text1,local,class=CODE,merge=1,delta=2
    21                           	psect	text2,local,class=CODE,merge=1,delta=2,group=2
    22                           	psect	text3,local,class=CODE,merge=1,delta=2
    23                           	psect	text4,local,class=CODE,merge=1,delta=2
    24                           	psect	text5,local,class=CODE,merge=1,delta=2
    25                           	psect	text6,local,class=CODE,merge=1,delta=2
    26                           	psect	text7,local,class=CODE,merge=1,delta=2,group=2
    27                           	psect	text8,local,class=CODE,merge=1,delta=2
    28                           	psect	text9,local,class=CODE,merge=1,delta=2
    29                           	psect	text10,local,class=CODE,merge=1,delta=2
    30                           	psect	text11,local,class=CODE,merge=1,delta=2
    31                           	psect	text12,local,class=CODE,merge=1,delta=2
    32                           	psect	text13,local,class=CODE,merge=1,delta=2
    33                           	psect	text14,local,class=CODE,merge=1,delta=2
    34                           	psect	text15,local,class=CODE,merge=1,delta=2,group=1
    35                           	psect	text16,local,class=CODE,merge=1,delta=2
    36                           	psect	text17,local,class=CODE,merge=1,delta=2
    37                           	psect	text18,local,class=CODE,merge=1,delta=2
    38                           	psect	text19,local,class=CODE,merge=1,delta=2
    39                           	psect	text20,local,class=CODE,merge=1,delta=2
    40                           	psect	text21,local,class=CODE,merge=1,delta=2
    41                           	psect	text22,local,class=CODE,merge=1,delta=2
    42                           	psect	text23,local,class=CODE,merge=1,delta=2
    43                           	psect	text24,local,class=CODE,merge=1,delta=2
    44                           	psect	text25,local,class=CODE,merge=1,delta=2,group=1
    45                           	psect	text26,local,class=CODE,merge=1,delta=2
    46                           	psect	text27,local,class=CODE,merge=1,delta=2
    47                           	psect	text28,local,class=CODE,merge=1,delta=2,group=1
    48                           	psect	text29,local,class=CODE,merge=1,delta=2
    49                           	psect	text30,local,class=CODE,merge=1,delta=2
    50                           	psect	text31,local,class=CODE,merge=1,delta=2
    51                           	psect	text32,local,class=CODE,merge=1,delta=2
    52                           	psect	text33,local,class=CODE,merge=1,delta=2
    53                           	psect	text34,local,class=CODE,merge=1,delta=2
    54                           	psect	text35,local,class=CODE,merge=1,delta=2
    55                           	psect	text36,local,class=CODE,merge=1,delta=2,group=1
    56                           	psect	text37,local,class=CODE,merge=1,delta=2,group=1
    57                           	psect	text38,local,class=CODE,merge=1,delta=2,group=1
    58                           	psect	text39,local,class=CODE,merge=1,delta=2,group=1
    59                           	psect	text40,local,class=CODE,merge=1,delta=2
    60                           	psect	text41,local,class=CODE,merge=1,delta=2,group=2
    61                           	psect	text42,local,class=CODE,merge=1,delta=2,group=2
    62                           	psect	text43,local,class=CODE,merge=1,delta=2
    63                           	psect	text44,local,class=CODE,merge=1,delta=2
    64                           	psect	text45,local,class=CODE,merge=1,delta=2
    65                           	psect	text46,local,class=CODE,merge=1,delta=2
    66                           	psect	text47,local,class=CODE,merge=1,delta=2
    67                           	psect	text48,local,class=CODE,merge=1,delta=2
    68                           	psect	text49,local,class=CODE,merge=1,delta=2
    69                           	psect	text50,local,class=CODE,merge=1,delta=2
    70                           	psect	text51,local,class=CODE,merge=1,delta=2
    71                           	psect	text52,local,class=CODE,merge=1,delta=2
    72                           	psect	intentry,global,class=CODE,delta=2
    73                           	psect	config,global,abs,ovrld,class=CONFIG,space=4,delta=2,noexec
    74                           	dabs	1,0x7E,2
    75  0000                     
    76                           ; Version 2.20
    77                           ; Generated 12/02/2020 GMT
    78                           ; 
    79                           ; Copyright © 2020, Microchip Technology Inc. and its subsidiaries ("Microchip")
    80                           ; All rights reserved.
    81                           ; 
    82                           ; This software is developed by Microchip Technology Inc. and its subsidiaries ("Microch
      +                          ip").
    83                           ; 
    84                           ; Redistribution and use in source and binary forms, with or without modification, are
    85                           ; permitted provided that the following conditions are met:
    86                           ; 
    87                           ;     1. Redistributions of source code must retain the above copyright notice, this lis
      +                          t of
    88                           ;        conditions and the following disclaimer.
    89                           ; 
    90                           ;     2. Redistributions in binary form must reproduce the above copyright notice, this 
      +                          list
    91                           ;        of conditions and the following disclaimer in the documentation and/or other
    92                           ;        materials provided with the distribution.
    93                           ; 
    94                           ;     3. Microchip's name may not be used to endorse or promote products derived from th
      +                          is
    95                           ;        software without specific prior written permission.
    96                           ; 
    97                           ; THIS SOFTWARE IS PROVIDED BY MICROCHIP "AS IS" AND ANY EXPRESS OR IMPLIED WARRANTIES,
    98                           ; INCLUDING, BUT NOT LIMITED TO, THE IMPLIED WARRANTIES OF MERCHANTABILITY AND FITNESS F
      +                          OR
    99                           ; PURPOSE ARE DISCLAIMED.  IN NO EVENT SHALL MICROCHIP BE LIABLE FOR ANY DIRECT, INDIREC
      +                          T,
   100                           ; INCIDENTAL, SPECIAL, EXEMPLARY, OR CONSEQUENTIAL DAMAGES (INCLUDING BUT NOT LIMITED TO
   101                           ; PROCUREMENT OF SUBSTITUTE GOODS OR SERVICES; LOSS OF USE, DATA OR PROFITS; OR BUSINESS
   102                           ; INTERRUPTION) HOWSOEVER CAUSED AND ON ANY THEORY OF LIABILITY, WHETHER IN CONTRACT, ST
      +                          RICT
   103                           ; LIABILITY, OR TORT (INCLUDING NEGLIGENCE OR OTHERWISE) ARISING IN ANY WAY OUT OF THE U
      +                          SE OF
   104                           ; THIS SOFTWARE, EVEN IF ADVISED OF THE POSSIBILITY OF SUCH DAMAGE.
   105                           ; 
   106                           ; 
   107                           ; Code-generator required, PIC16F877A Definitions
   108                           ; 
   109                           ; SFR Addresses
   110  0000                     	;# 
   111  0001                     	;# 
   112  0002                     	;# 
   113  0003                     	;# 
   114  0004                     	;# 
   115  0005                     	;# 
   116  0006                     	;# 
   117  0007                     	;# 
   118  0008                     	;# 
   119  0009                     	;# 
   120  000A                     	;# 
   121  000B                     	;# 
   122  000C                     	;# 
   123  000D                     	;# 
   124  000E                     	;# 
   125  000E                     	;# 
   126  000F                     	;# 
   127  0010                     	;# 
   128  0011                     	;# 
   129  0012                     	;# 
   130  0013                     	;# 
   131  0014                     	;# 
   132  0015                     	;# 
   133  0015                     	;# 
   134  0016                     	;# 
   135  0017                     	;# 
   136  0018                     	;# 
   137  0019                     	;# 
   138  001A                     	;# 
   139  001B                     	;# 
   140  001B                     	;# 
   141  001C                     	;# 
   142  001D                     	;# 
   143  001E                     	;# 
   144  001F                     	;# 
   145  0081                     	;# 
   146  0085                     	;# 
   147  0086                     	;# 
   148  0087                     	;# 
   149  0088                     	;# 
   150  0089                     	;# 
   151  008C                     	;# 
   152  008D                     	;# 
   153  008E                     	;# 
   154  0091                     	;# 
   155  0092                     	;# 
   156  0093                     	;# 
   157  0094                     	;# 
   158  0098                     	;# 
   159  0099                     	;# 
   160  009C                     	;# 
   161  009D                     	;# 
   162  009E                     	;# 
   163  009F                     	;# 
   164  010C                     	;# 
   165  010D                     	;# 
   166  010E                     	;# 
   167  010F                     	;# 
   168  018C                     	;# 
   169  018D                     	;# 
   170  0000                     	;# 
   171  0001                     	;# 
   172  0002                     	;# 
   173  0003                     	;# 
   174  0004                     	;# 
   175  0005                     	;# 
   176  0006                     	;# 
   177  0007                     	;# 
   178  0008                     	;# 
   179  0009                     	;# 
   180  000A                     	;# 
   181  000B                     	;# 
   182  000C                     	;# 
   183  000D                     	;# 
   184  000E                     	;# 
   185  000E                     	;# 
   186  000F                     	;# 
   187  0010                     	;# 
   188  0011                     	;# 
   189  0012                     	;# 
   190  0013                     	;# 
   191  0014                     	;# 
   192  0015                     	;# 
   193  0015                     	;# 
   194  0016                     	;# 
   195  0017                     	;# 
   196  0018                     	;# 
   197  0019                     	;# 
   198  001A                     	;# 
   199  001B                     	;# 
   200  001B                     	;# 
   201  001C                     	;# 
   202  001D                     	;# 
   203  001E                     	;# 
   204  001F                     	;# 
   205  0081                     	;# 
   206  0085                     	;# 
   207  0086                     	;# 
   208  0087                     	;# 
   209  0088                     	;# 
   210  0089                     	;# 
   211  008C                     	;# 
   212  008D                     	;# 
   213  008E                     	;# 
   214  0091                     	;# 
   215  0092                     	;# 
   216  0093                     	;# 
   217  0094                     	;# 
   218  0098                     	;# 
   219  0099                     	;# 
   220  009C                     	;# 
   221  009D                     	;# 
   222  009E                     	;# 
   223  009F                     	;# 
   224  010C                     	;# 
   225  010D                     	;# 
   226  010E                     	;# 
   227  010F                     	;# 
   228  018C                     	;# 
   229  018D                     	;# 
   230  0000                     	;# 
   231  0001                     	;# 
   232  0002                     	;# 
   233  0003                     	;# 
   234  0004                     	;# 
   235  0005                     	;# 
   236  0006                     	;# 
   237  0007                     	;# 
   238  0008                     	;# 
   239  0009                     	;# 
   240  000A                     	;# 
   241  000B                     	;# 
   242  000C                     	;# 
   243  000D                     	;# 
   244  000E                     	;# 
   245  000E                     	;# 
   246  000F                     	;# 
   247  0010                     	;# 
   248  0011                     	;# 
   249  0012                     	;# 
   250  0013                     	;# 
   251  0014                     	;# 
   252  0015                     	;# 
   253  0015                     	;# 
   254  0016                     	;# 
   255  0017                     	;# 
   256  0018                     	;# 
   257  0019                     	;# 
   258  001A                     	;# 
   259  001B                     	;# 
   260  001B                     	;# 
   261  001C                     	;# 
   262  001D                     	;# 
   263  001E                     	;# 
   264  001F                     	;# 
   265  0081                     	;# 
   266  0085                     	;# 
   267  0086                     	;# 
   268  0087                     	;# 
   269  0088                     	;# 
   270  0089                     	;# 
   271  008C                     	;# 
   272  008D                     	;# 
   273  008E                     	;# 
   274  0091                     	;# 
   275  0092                     	;# 
   276  0093                     	;# 
   277  0094                     	;# 
   278  0098                     	;# 
   279  0099                     	;# 
   280  009C                     	;# 
   281  009D                     	;# 
   282  009E                     	;# 
   283  009F                     	;# 
   284  010C                     	;# 
   285  010D                     	;# 
   286  010E                     	;# 
   287  010F                     	;# 
   288  018C                     	;# 
   289  018D                     	;# 
   290  0000                     	;# 
   291  0001                     	;# 
   292  0002                     	;# 
   293  0003                     	;# 
   294  0004                     	;# 
   295  0005                     	;# 
   296  0006                     	;# 
   297  0007                     	;# 
   298  0008                     	;# 
   299  0009                     	;# 
   300  000A                     	;# 
   301  000B                     	;# 
   302  000C                     	;# 
   303  000D                     	;# 
   304  000E                     	;# 
   305  000E                     	;# 
   306  000F                     	;# 
   307  0010                     	;# 
   308  0011                     	;# 
   309  0012                     	;# 
   310  0013                     	;# 
   311  0014                     	;# 
   312  0015                     	;# 
   313  0015                     	;# 
   314  0016                     	;# 
   315  0017                     	;# 
   316  0018                     	;# 
   317  0019                     	;# 
   318  001A                     	;# 
   319  001B                     	;# 
   320  001B                     	;# 
   321  001C                     	;# 
   322  001D                     	;# 
   323  001E                     	;# 
   324  001F                     	;# 
   325  0081                     	;# 
   326  0085                     	;# 
   327  0086                     	;# 
   328  0087                     	;# 
   329  0088                     	;# 
   330  0089                     	;# 
   331  008C                     	;# 
   332  008D                     	;# 
   333  008E                     	;# 
   334  0091                     	;# 
   335  0092                     	;# 
   336  0093                     	;# 
   337  0094                     	;# 
   338  0098                     	;# 
   339  0099                     	;# 
   340  009C                     	;# 
   341  009D                     	;# 
   342  009E                     	;# 
   343  009F                     	;# 
   344  010C                     	;# 
   345  010D                     	;# 
   346  010E                     	;# 
   347  010F                     	;# 
   348  018C                     	;# 
   349  018D                     	;# 
   350  0000                     	;# 
   351  0001                     	;# 
   352  0002                     	;# 
   353  0003                     	;# 
   354  0004                     	;# 
   355  0005                     	;# 
   356  0006                     	;# 
   357  0007                     	;# 
   358  0008                     	;# 
   359  0009                     	;# 
   360  000A                     	;# 
   361  000B                     	;# 
   362  000C                     	;# 
   363  000D                     	;# 
   364  000E                     	;# 
   365  000E                     	;# 
   366  000F                     	;# 
   367  0010                     	;# 
   368  0011                     	;# 
   369  0012                     	;# 
   370  0013                     	;# 
   371  0014                     	;# 
   372  0015                     	;# 
   373  0015                     	;# 
   374  0016                     	;# 
   375  0017                     	;# 
   376  0018                     	;# 
   377  0019                     	;# 
   378  001A                     	;# 
   379  001B                     	;# 
   380  001B                     	;# 
   381  001C                     	;# 
   382  001D                     	;# 
   383  001E                     	;# 
   384  001F                     	;# 
   385  0081                     	;# 
   386  0085                     	;# 
   387  0086                     	;# 
   388  0087                     	;# 
   389  0088                     	;# 
   390  0089                     	;# 
   391  008C                     	;# 
   392  008D                     	;# 
   393  008E                     	;# 
   394  0091                     	;# 
   395  0092                     	;# 
   396  0093                     	;# 
   397  0094                     	;# 
   398  0098                     	;# 
   399  0099                     	;# 
   400  009C                     	;# 
   401  009D                     	;# 
   402  009E                     	;# 
   403  009F                     	;# 
   404  010C                     	;# 
   405  010D                     	;# 
   406  010E                     	;# 
   407  010F                     	;# 
   408  018C                     	;# 
   409  018D                     	;# 
   410  0000                     	;# 
   411  0001                     	;# 
   412  0002                     	;# 
   413  0003                     	;# 
   414  0004                     	;# 
   415  0005                     	;# 
   416  0006                     	;# 
   417  0007                     	;# 
   418  0008                     	;# 
   419  0009                     	;# 
   420  000A                     	;# 
   421  000B                     	;# 
   422  000C                     	;# 
   423  000D                     	;# 
   424  000E                     	;# 
   425  000E                     	;# 
   426  000F                     	;# 
   427  0010                     	;# 
   428  0011                     	;# 
   429  0012                     	;# 
   430  0013                     	;# 
   431  0014                     	;# 
   432  0015                     	;# 
   433  0015                     	;# 
   434  0016                     	;# 
   435  0017                     	;# 
   436  0018                     	;# 
   437  0019                     	;# 
   438  001A                     	;# 
   439  001B                     	;# 
   440  001B                     	;# 
   441  001C                     	;# 
   442  001D                     	;# 
   443  001E                     	;# 
   444  001F                     	;# 
   445  0081                     	;# 
   446  0085                     	;# 
   447  0086                     	;# 
   448  0087                     	;# 
   449  0088                     	;# 
   450  0089                     	;# 
   451  008C                     	;# 
   452  008D                     	;# 
   453  008E                     	;# 
   454  0091                     	;# 
   455  0092                     	;# 
   456  0093                     	;# 
   457  0094                     	;# 
   458  0098                     	;# 
   459  0099                     	;# 
   460  009C                     	;# 
   461  009D                     	;# 
   462  009E                     	;# 
   463  009F                     	;# 
   464  010C                     	;# 
   465  010D                     	;# 
   466  010E                     	;# 
   467  010F                     	;# 
   468  018C                     	;# 
   469  018D                     	;# 
   470  0000                     	;# 
   471  0001                     	;# 
   472  0002                     	;# 
   473  0003                     	;# 
   474  0004                     	;# 
   475  0005                     	;# 
   476  0006                     	;# 
   477  0007                     	;# 
   478  0008                     	;# 
   479  0009                     	;# 
   480  000A                     	;# 
   481  000B                     	;# 
   482  000C                     	;# 
   483  000D                     	;# 
   484  000E                     	;# 
   485  000E                     	;# 
   486  000F                     	;# 
   487  0010                     	;# 
   488  0011                     	;# 
   489  0012                     	;# 
   490  0013                     	;# 
   491  0014                     	;# 
   492  0015                     	;# 
   493  0015                     	;# 
   494  0016                     	;# 
   495  0017                     	;# 
   496  0018                     	;# 
   497  0019                     	;# 
   498  001A                     	;# 
   499  001B                     	;# 
   500  001B                     	;# 
   501  001C                     	;# 
   502  001D                     	;# 
   503  001E                     	;# 
   504  001F                     	;# 
   505  0081                     	;# 
   506  0085                     	;# 
   507  0086                     	;# 
   508  0087                     	;# 
   509  0088                     	;# 
   510  0089                     	;# 
   511  008C                     	;# 
   512  008D                     	;# 
   513  008E                     	;# 
   514  0091                     	;# 
   515  0092                     	;# 
   516  0093                     	;# 
   517  0094                     	;# 
   518  0098                     	;# 
   519  0099                     	;# 
   520  009C                     	;# 
   521  009D                     	;# 
   522  009E                     	;# 
   523  009F                     	;# 
   524  010C                     	;# 
   525  010D                     	;# 
   526  010E                     	;# 
   527  010F                     	;# 
   528  018C                     	;# 
   529  018D                     	;# 
   530  0000                     	;# 
   531  0001                     	;# 
   532  0002                     	;# 
   533  0003                     	;# 
   534  0004                     	;# 
   535  0005                     	;# 
   536  0006                     	;# 
   537  0007                     	;# 
   538  0008                     	;# 
   539  0009                     	;# 
   540  000A                     	;# 
   541  000B                     	;# 
   542  000C                     	;# 
   543  000D                     	;# 
   544  000E                     	;# 
   545  000E                     	;# 
   546  000F                     	;# 
   547  0010                     	;# 
   548  0011                     	;# 
   549  0012                     	;# 
   550  0013                     	;# 
   551  0014                     	;# 
   552  0015                     	;# 
   553  0015                     	;# 
   554  0016                     	;# 
   555  0017                     	;# 
   556  0018                     	;# 
   557  0019                     	;# 
   558  001A                     	;# 
   559  001B                     	;# 
   560  001B                     	;# 
   561  001C                     	;# 
   562  001D                     	;# 
   563  001E                     	;# 
   564  001F                     	;# 
   565  0081                     	;# 
   566  0085                     	;# 
   567  0086                     	;# 
   568  0087                     	;# 
   569  0088                     	;# 
   570  0089                     	;# 
   571  008C                     	;# 
   572  008D                     	;# 
   573  008E                     	;# 
   574  0091                     	;# 
   575  0092                     	;# 
   576  0093                     	;# 
   577  0094                     	;# 
   578  0098                     	;# 
   579  0099                     	;# 
   580  009C                     	;# 
   581  009D                     	;# 
   582  009E                     	;# 
   583  009F                     	;# 
   584  010C                     	;# 
   585  010D                     	;# 
   586  010E                     	;# 
   587  010F                     	;# 
   588  018C                     	;# 
   589  018D                     	;# 
   590  0000                     	;# 
   591  0001                     	;# 
   592  0002                     	;# 
   593  0003                     	;# 
   594  0004                     	;# 
   595  0005                     	;# 
   596  0006                     	;# 
   597  0007                     	;# 
   598  0008                     	;# 
   599  0009                     	;# 
   600  000A                     	;# 
   601  000B                     	;# 
   602  000C                     	;# 
   603  000D                     	;# 
   604  000E                     	;# 
   605  000E                     	;# 
   606  000F                     	;# 
   607  0010                     	;# 
   608  0011                     	;# 
   609  0012                     	;# 
   610  0013                     	;# 
   611  0014                     	;# 
   612  0015                     	;# 
   613  0015                     	;# 
   614  0016                     	;# 
   615  0017                     	;# 
   616  0018                     	;# 
   617  0019                     	;# 
   618  001A                     	;# 
   619  001B                     	;# 
   620  001B                     	;# 
   621  001C                     	;# 
   622  001D                     	;# 
   623  001E                     	;# 
   624  001F                     	;# 
   625  0081                     	;# 
   626  0085                     	;# 
   627  0086                     	;# 
   628  0087                     	;# 
   629  0088                     	;# 
   630  0089                     	;# 
   631  008C                     	;# 
   632  008D                     	;# 
   633  008E                     	;# 
   634  0091                     	;# 
   635  0092                     	;# 
   636  0093                     	;# 
   637  0094                     	;# 
   638  0098                     	;# 
   639  0099                     	;# 
   640  009C                     	;# 
   641  009D                     	;# 
   642  009E                     	;# 
   643  009F                     	;# 
   644  010C                     	;# 
   645  010D                     	;# 
   646  010E                     	;# 
   647  010F                     	;# 
   648  018C                     	;# 
   649  018D                     	;# 
   650  0000                     	;# 
   651  0001                     	;# 
   652  0002                     	;# 
   653  0003                     	;# 
   654  0004                     	;# 
   655  0005                     	;# 
   656  0006                     	;# 
   657  0007                     	;# 
   658  0008                     	;# 
   659  0009                     	;# 
   660  000A                     	;# 
   661  000B                     	;# 
   662  000C                     	;# 
   663  000D                     	;# 
   664  000E                     	;# 
   665  000E                     	;# 
   666  000F                     	;# 
   667  0010                     	;# 
   668  0011                     	;# 
   669  0012                     	;# 
   670  0013                     	;# 
   671  0014                     	;# 
   672  0015                     	;# 
   673  0015                     	;# 
   674  0016                     	;# 
   675  0017                     	;# 
   676  0018                     	;# 
   677  0019                     	;# 
   678  001A                     	;# 
   679  001B                     	;# 
   680  001B                     	;# 
   681  001C                     	;# 
   682  001D                     	;# 
   683  001E                     	;# 
   684  001F                     	;# 
   685  0081                     	;# 
   686  0085                     	;# 
   687  0086                     	;# 
   688  0087                     	;# 
   689  0088                     	;# 
   690  0089                     	;# 
   691  008C                     	;# 
   692  008D                     	;# 
   693  008E                     	;# 
   694  0091                     	;# 
   695  0092                     	;# 
   696  0093                     	;# 
   697  0094                     	;# 
   698  0098                     	;# 
   699  0099                     	;# 
   700  009C                     	;# 
   701  009D                     	;# 
   702  009E                     	;# 
   703  009F                     	;# 
   704  010C                     	;# 
   705  010D                     	;# 
   706  010E                     	;# 
   707  010F                     	;# 
   708  018C                     	;# 
   709  018D                     	;# 
   710  0000                     	;# 
   711  0001                     	;# 
   712  0002                     	;# 
   713  0003                     	;# 
   714  0004                     	;# 
   715  0005                     	;# 
   716  0006                     	;# 
   717  0007                     	;# 
   718  0008                     	;# 
   719  0009                     	;# 
   720  000A                     	;# 
   721  000B                     	;# 
   722  000C                     	;# 
   723  000D                     	;# 
   724  000E                     	;# 
   725  000E                     	;# 
   726  000F                     	;# 
   727  0010                     	;# 
   728  0011                     	;# 
   729  0012                     	;# 
   730  0013                     	;# 
   731  0014                     	;# 
   732  0015                     	;# 
   733  0015                     	;# 
   734  0016                     	;# 
   735  0017                     	;# 
   736  0018                     	;# 
   737  0019                     	;# 
   738  001A                     	;# 
   739  001B                     	;# 
   740  001B                     	;# 
   741  001C                     	;# 
   742  001D                     	;# 
   743  001E                     	;# 
   744  001F                     	;# 
   745  0081                     	;# 
   746  0085                     	;# 
   747  0086                     	;# 
   748  0087                     	;# 
   749  0088                     	;# 
   750  0089                     	;# 
   751  008C                     	;# 
   752  008D                     	;# 
   753  008E                     	;# 
   754  0091                     	;# 
   755  0092                     	;# 
   756  0093                     	;# 
   757  0094                     	;# 
   758  0098                     	;# 
   759  0099                     	;# 
   760  009C                     	;# 
   761  009D                     	;# 
   762  009E                     	;# 
   763  009F                     	;# 
   764  010C                     	;# 
   765  010D                     	;# 
   766  010E                     	;# 
   767  010F                     	;# 
   768  018C                     	;# 
   769  018D                     	;# 
   770  0000                     	;# 
   771  0001                     	;# 
   772  0002                     	;# 
   773  0003                     	;# 
   774  0004                     	;# 
   775  0005                     	;# 
   776  0006                     	;# 
   777  0007                     	;# 
   778  0008                     	;# 
   779  0009                     	;# 
   780  000A                     	;# 
   781  000B                     	;# 
   782  000C                     	;# 
   783  000D                     	;# 
   784  000E                     	;# 
   785  000E                     	;# 
   786  000F                     	;# 
   787  0010                     	;# 
   788  0011                     	;# 
   789  0012                     	;# 
   790  0013                     	;# 
   791  0014                     	;# 
   792  0015                     	;# 
   793  0015                     	;# 
   794  0016                     	;# 
   795  0017                     	;# 
   796  0018                     	;# 
   797  0019                     	;# 
   798  001A                     	;# 
   799  001B                     	;# 
   800  001B                     	;# 
   801  001C                     	;# 
   802  001D                     	;# 
   803  001E                     	;# 
   804  001F                     	;# 
   805  0081                     	;# 
   806  0085                     	;# 
   807  0086                     	;# 
   808  0087                     	;# 
   809  0088                     	;# 
   810  0089                     	;# 
   811  008C                     	;# 
   812  008D                     	;# 
   813  008E                     	;# 
   814  0091                     	;# 
   815  0092                     	;# 
   816  0093                     	;# 
   817  0094                     	;# 
   818  0098                     	;# 
   819  0099                     	;# 
   820  009C                     	;# 
   821  009D                     	;# 
   822  009E                     	;# 
   823  009F                     	;# 
   824  010C                     	;# 
   825  010D                     	;# 
   826  010E                     	;# 
   827  010F                     	;# 
   828  018C                     	;# 
   829  018D                     	;# 
   830                           
   831                           	psect	idataBANK0
   832  1E18                     __pidataBANK0:
   833                           
   834                           ;initializer for login_menu@select_pos
   835  1E18  3401               	retlw	1
   836  1E19  3400               	retlw	0
   837                           
   838                           ;initializer for _access
   839  1E1A  34FF               	retlw	255
   840  1E1B  34FF               	retlw	255
   841                           
   842                           ;initializer for _pos
   843  1E1C  34FF               	retlw	255
   844  1E1D  34FF               	retlw	255
   845                           
   846                           ;initializer for read_digital_keypad@longpressed
   847  1E1E  3401               	retlw	1
   848  1E1F  3400               	retlw	0
   849                           
   850                           	psect	idataBANK1
   851  1EB0                     __pidataBANK1:
   852                           
   853                           ;initializer for _gear
   854  1EB0  3496               	retlw	low (STR_34| (0+32768))
   855  1EB1  3491               	retlw	high (STR_34| (0+32768))
   856  1EB2  349C               	retlw	low (STR_35| (0+32768))
   857  1EB3  3491               	retlw	high (STR_35| (0+32768))
   858  1EB4  3484               	retlw	low (STR_36| (0+32768))
   859  1EB5  3491               	retlw	high (STR_36| (0+32768))
   860  1EB6  3487               	retlw	low (STR_37| (0+32768))
   861  1EB7  3491               	retlw	high (STR_37| (0+32768))
   862  1EB8  348A               	retlw	low (STR_38| (0+32768))
   863  1EB9  3491               	retlw	high (STR_38| (0+32768))
   864  1EBA  348D               	retlw	low (STR_39| (0+32768))
   865  1EBB  3491               	retlw	high (STR_39| (0+32768))
   866                           
   867                           ;initializer for _menu
   868  1EBC  3465               	retlw	low (STR_1| (0+32768))
   869  1EBD  3491               	retlw	high (STR_1| (0+32768))
   870  1EBE  345B               	retlw	low (STR_2| (0+32768))
   871  1EBF  3491               	retlw	high (STR_2| (0+32768))
   872  1EC0  3401               	retlw	low (STR_3| (0+32768))
   873  1EC1  3491               	retlw	high (STR_3| (0+32768))
   874  1EC2  3451               	retlw	low (STR_4| (0+32768))
   875  1EC3  3491               	retlw	high (STR_4| (0+32768))
   876  1EC4  34F2               	retlw	low (STR_5| (0+32768))
   877  1EC5  3490               	retlw	high (STR_5| (0+32768))
   878                           
   879                           ;initializer for main@F1013
   880  1EC6  344F               	retlw	79
   881  1EC7  344E               	retlw	78
   882  1EC8  3400               	retlw	0
   883  0019                     _TXREG	set	25
   884  0013                     _SSPBUF	set	19
   885  0006                     _PORTB	set	6
   886  0008                     _PORTD	set	8
   887  001E                     _ADRESH	set	30
   888  0064                     _TXIF	set	100
   889  00C4                     _CREN	set	196
   890  00C7                     _SPEN	set	199
   891  0091                     _T2CKPS1	set	145
   892  0090                     _T2CKPS0	set	144
   893  0061                     _TMR2IF	set	97
   894  00A5                     _SSPEN	set	165
   895  00A3                     _SSPM3	set	163
   896  0092                     _TMR2ON	set	146
   897  005E                     _PEIE	set	94
   898  005F                     _GIE	set	95
   899  0049                     _RE1	set	73
   900  004A                     _RE2	set	74
   901  00FA                     _nDONE	set	250
   902  00FA                     _GO	set	250
   903  00F8                     _ADON	set	248
   904  0099                     _SPBRG	set	153
   905  0092                     _PR2	set	146
   906  0091                     _SSPCON2	set	145
   907  0093                     _SSPADD	set	147
   908  0086                     _TRISB	set	134
   909  0088                     _TRISD	set	136
   910  009E                     _ADRESL	set	158
   911  04C5                     _TXEN	set	1221
   912  04C2                     _BRGH	set	1218
   913  0461                     _TMR2IE	set	1121
   914  048E                     _ACKSTAT	set	1166
   915  048C                     _ACKEN	set	1164
   916  048D                     _ACKDT	set	1165
   917  048B                     _RCEN	set	1163
   918  048A                     _PEN	set	1162
   919  0489                     _RSEN	set	1161
   920  0488                     _SEN	set	1160
   921  04A2                     _R_nW	set	1186
   922  0449                     _TRISE1	set	1097
   923  044A                     _TRISE2	set	1098
   924  04FF                     _ADFM	set	1279
   925                           
   926                           	psect	strings
   927  1800                     __pstrings:
   928  1800                     stringtab:
   929  1800                     __stringtab:
   930                           
   931                           ;	String table - string pointers are 2 bytes each
   932  1800  1BFF               	btfsc	btemp+1,7
   933  1801  280A               	ljmp	stringcode
   934  1802  1383               	bcf	3,7
   935  1803  187F               	btfsc	btemp+1,0
   936  1804  1783               	bsf	3,7
   937  1805  0800               	movf	0,w
   938  1806  0A84               	incf	4,f
   939  1807  1903               	skipnz
   940  1808  0AFF               	incf	btemp+1,f
   941  1809  0008               	return
   942  180A                     stringcode:
   943  180A  087F               	movf	btemp+1,w
   944  180B  397F               	andlw	127
   945  180C  008A               	movwf	10
   946  180D  0804               	movf	4,w
   947  180E  0A84               	incf	4,f
   948  180F  1903               	skipnz
   949  1810  0AFF               	incf	btemp+1,f
   950  1811  0082               	movwf	2
   951  1812                     __stringbase:
   952  1812                     __end_of__stringtab:
   953                           
   954                           	psect	stringtext
   955  1000                     __pstringtext:
   956  1000                     STR_27:
   957  1000  3452               	retlw	82	;'R'
   958  1001  3465               	retlw	101	;'e'
   959  1002  3420               	retlw	32	;' '
   960  1003  3465               	retlw	101	;'e'
   961  1004  346E               	retlw	110	;'n'
   962  1005  3474               	retlw	116	;'t'
   963  1006  3465               	retlw	101	;'e'
   964  1007  3472               	retlw	114	;'r'
   965  1008  3420               	retlw	32	;' '
   966  1009  346E               	retlw	110	;'n'
   967  100A  3465               	retlw	101	;'e'
   968  100B  3477               	retlw	119	;'w'
   969  100C  3420               	retlw	32	;' '
   970  100D  3470               	retlw	112	;'p'
   971  100E  3477               	retlw	119	;'w'
   972  100F  3464               	retlw	100	;'d'
   973  1010  3420               	retlw	32	;' '
   974  1011  3420               	retlw	32	;' '
   975  1012  3420               	retlw	32	;' '
   976  1013  3420               	retlw	32	;' '
   977  1014  3400               	retlw	0
   978  1015                     STR_13:
   979  1015  3420               	retlw	32	;' '
   980  1016  3420               	retlw	32	;' '
   981  1017  3420               	retlw	32	;' '
   982  1018  3420               	retlw	32	;' '
   983  1019  3420               	retlw	32	;' '
   984  101A  3420               	retlw	32	;' '
   985  101B  3420               	retlw	32	;' '
   986  101C  3420               	retlw	32	;' '
   987  101D  3420               	retlw	32	;' '
   988  101E  3420               	retlw	32	;' '
   989  101F  3420               	retlw	32	;' '
   990  1020  3420               	retlw	32	;' '
   991  1021  3420               	retlw	32	;' '
   992  1022  3420               	retlw	32	;' '
   993  1023  3420               	retlw	32	;' '
   994  1024  3420               	retlw	32	;' '
   995  1025  3420               	retlw	32	;' '
   996  1026  3400               	retlw	0
   997  1027                     STR_26:
   998  1027  3445               	retlw	69	;'E'
   999  1028  346E               	retlw	110	;'n'
  1000  1029  3474               	retlw	116	;'t'
  1001  102A  3465               	retlw	101	;'e'
  1002  102B  3472               	retlw	114	;'r'
  1003  102C  3420               	retlw	32	;' '
  1004  102D  346E               	retlw	110	;'n'
  1005  102E  3465               	retlw	101	;'e'
  1006  102F  3477               	retlw	119	;'w'
  1007  1030  3420               	retlw	32	;' '
  1008  1031  3470               	retlw	112	;'p'
  1009  1032  3477               	retlw	119	;'w'
  1010  1033  3464               	retlw	100	;'d'
  1011  1034  3420               	retlw	32	;' '
  1012  1035  3420               	retlw	32	;' '
  1013  1036  3420               	retlw	32	;' '
  1014  1037  3420               	retlw	32	;' '
  1015  1038  3400               	retlw	0
  1016  1039                     STR_12:
  1017  1039  344E               	retlw	78	;'N'
  1018  103A  346F               	retlw	111	;'o'
  1019  103B  3420               	retlw	32	;' '
  1020  103C  346C               	retlw	108	;'l'
  1021  103D  346F               	retlw	111	;'o'
  1022  103E  3467               	retlw	103	;'g'
  1023  103F  3473               	retlw	115	;'s'
  1024  1040  3420               	retlw	32	;' '
  1025  1041  3461               	retlw	97	;'a'
  1026  1042  3476               	retlw	118	;'v'
  1027  1043  3461               	retlw	97	;'a'
  1028  1044  3469               	retlw	105	;'i'
  1029  1045  346C               	retlw	108	;'l'
  1030  1046  3461               	retlw	97	;'a'
  1031  1047  3462               	retlw	98	;'b'
  1032  1048  346C               	retlw	108	;'l'
  1033  1049  3465               	retlw	101	;'e'
  1034  104A  3400               	retlw	0
  1035  104B                     STR_9:
  1036  104B  3420               	retlw	32	;' '
  1037  104C  3457               	retlw	87	;'W'
  1038  104D  3452               	retlw	82	;'R'
  1039  104E  344F               	retlw	79	;'O'
  1040  104F  344E               	retlw	78	;'N'
  1041  1050  3447               	retlw	71	;'G'
  1042  1051  3420               	retlw	32	;' '
  1043  1052  3450               	retlw	80	;'P'
  1044  1053  3441               	retlw	65	;'A'
  1045  1054  3453               	retlw	83	;'S'
  1046  1055  3453               	retlw	83	;'S'
  1047  1056  3457               	retlw	87	;'W'
  1048  1057  344F               	retlw	79	;'O'
  1049  1058  3452               	retlw	82	;'R'
  1050  1059  3444               	retlw	68	;'D'
  1051  105A  3420               	retlw	32	;' '
  1052  105B  3400               	retlw	0
  1053  105C                     STR_11:
  1054  105C  3420               	retlw	32	;' '
  1055  105D  3445               	retlw	69	;'E'
  1056  105E  344E               	retlw	78	;'N'
  1057  105F  3454               	retlw	84	;'T'
  1058  1060  3445               	retlw	69	;'E'
  1059  1061  3452               	retlw	82	;'R'
  1060  1062  3420               	retlw	32	;' '
  1061  1063  3450               	retlw	80	;'P'
  1062  1064  3441               	retlw	65	;'A'
  1063  1065  3453               	retlw	83	;'S'
  1064  1066  3453               	retlw	83	;'S'
  1065  1067  3457               	retlw	87	;'W'
  1066  1068  344F               	retlw	79	;'O'
  1067  1069  3452               	retlw	82	;'R'
  1068  106A  3444               	retlw	68	;'D'
  1069  106B  3420               	retlw	32	;' '
  1070  106C  3400               	retlw	0
  1071  106D                     STR_6:
  1072  106D  3420               	retlw	32	;' '
  1073  106E  3420               	retlw	32	;' '
  1074  106F  3454               	retlw	84	;'T'
  1075  1070  3449               	retlw	73	;'I'
  1076  1071  344D               	retlw	77	;'M'
  1077  1072  3445               	retlw	69	;'E'
  1078  1073  3420               	retlw	32	;' '
  1079  1074  3420               	retlw	32	;' '
  1080  1075  3420               	retlw	32	;' '
  1081  1076  3420               	retlw	32	;' '
  1082  1077  3420               	retlw	32	;' '
  1083  1078  3445               	retlw	69	;'E'
  1084  1079  3420               	retlw	32	;' '
  1085  107A  3420               	retlw	32	;' '
  1086  107B  3453               	retlw	83	;'S'
  1087  107C  3450               	retlw	80	;'P'
  1088  107D  3400               	retlw	0
  1089  107E                     STR_8:
  1090  107E  3477               	retlw	119	;'w'
  1091  107F  3461               	retlw	97	;'a'
  1092  1080  3469               	retlw	105	;'i'
  1093  1081  3474               	retlw	116	;'t'
  1094  1082  3420               	retlw	32	;' '
  1095  1083  3466               	retlw	102	;'f'
  1096  1084  346F               	retlw	111	;'o'
  1097  1085  3472               	retlw	114	;'r'
  1098  1086  3420               	retlw	32	;' '
  1099  1087  342E               	retlw	46	;'.'
  1100  1088  342E               	retlw	46	;'.'
  1101  1089  3436               	retlw	54	;'6'
  1102  108A  3430               	retlw	48	;'0'
  1103  108B  3473               	retlw	115	;'s'
  1104  108C  3465               	retlw	101	;'e'
  1105  108D  3463               	retlw	99	;'c'
  1106  108E  3400               	retlw	0
  1107  108F                     STR_30:
  1108  108F  3450               	retlw	80	;'P'
  1109  1090  3461               	retlw	97	;'a'
  1110  1091  3473               	retlw	115	;'s'
  1111  1092  3473               	retlw	115	;'s'
  1112  1093  3477               	retlw	119	;'w'
  1113  1094  346F               	retlw	111	;'o'
  1114  1095  3472               	retlw	114	;'r'
  1115  1096  3464               	retlw	100	;'d'
  1116  1097  3420               	retlw	32	;' '
  1117  1098  3463               	retlw	99	;'c'
  1118  1099  3468               	retlw	104	;'h'
  1119  109A  3461               	retlw	97	;'a'
  1120  109B  346E               	retlw	110	;'n'
  1121  109C  3467               	retlw	103	;'g'
  1122  109D  3465               	retlw	101	;'e'
  1123  109E  3464               	retlw	100	;'d'
  1124  109F  3400               	retlw	0
  1125  10A0                     STR_32:
  1126  10A0  3450               	retlw	80	;'P'
  1127  10A1  3461               	retlw	97	;'a'
  1128  10A2  3473               	retlw	115	;'s'
  1129  10A3  3473               	retlw	115	;'s'
  1130  10A4  3477               	retlw	119	;'w'
  1131  10A5  346F               	retlw	111	;'o'
  1132  10A6  3472               	retlw	114	;'r'
  1133  10A7  3464               	retlw	100	;'d'
  1134  10A8  3420               	retlw	32	;' '
  1135  10A9  3420               	retlw	32	;' '
  1136  10AA  3463               	retlw	99	;'c'
  1137  10AB  3468               	retlw	104	;'h'
  1138  10AC  3461               	retlw	97	;'a'
  1139  10AD  346E               	retlw	110	;'n'
  1140  10AE  3467               	retlw	103	;'g'
  1141  10AF  3465               	retlw	101	;'e'
  1142  10B0  3400               	retlw	0
  1143  10B1                     STR_17:
  1144  10B1  344E               	retlw	78	;'N'
  1145  10B2  346F               	retlw	111	;'o'
  1146  10B3  3420               	retlw	32	;' '
  1147  10B4  346C               	retlw	108	;'l'
  1148  10B5  346F               	retlw	111	;'o'
  1149  10B6  3467               	retlw	103	;'g'
  1150  10B7  3473               	retlw	115	;'s'
  1151  10B8  3420               	retlw	32	;' '
  1152  10B9  3461               	retlw	97	;'a'
  1153  10BA  3476               	retlw	118	;'v'
  1154  10BB  3461               	retlw	97	;'a'
  1155  10BC  3469               	retlw	105	;'i'
  1156  10BD  3461               	retlw	97	;'a'
  1157  10BE  3462               	retlw	98	;'b'
  1158  10BF  346C               	retlw	108	;'l'
  1159  10C0  3465               	retlw	101	;'e'
  1160  10C1  3400               	retlw	0
  1161  10C2                     STR_19:
  1162  10C2  3454               	retlw	84	;'T'
  1163  10C3  3469               	retlw	105	;'i'
  1164  10C4  346D               	retlw	109	;'m'
  1165  10C5  3465               	retlw	101	;'e'
  1166  10C6  3420               	retlw	32	;' '
  1167  10C7  3428               	retlw	40	;'('
  1168  10C8  3448               	retlw	72	;'H'
  1169  10C9  3448               	retlw	72	;'H'
  1170  10CA  343A               	retlw	58	;':'
  1171  10CB  344D               	retlw	77	;'M'
  1172  10CC  344D               	retlw	77	;'M'
  1173  10CD  343A               	retlw	58	;':'
  1174  10CE  3453               	retlw	83	;'S'
  1175  10CF  3453               	retlw	83	;'S'
  1176  10D0  3429               	retlw	41	;')'
  1177  10D1  3400               	retlw	0
  1178  10D2                     STR_7:
  1179  10D2  3459               	retlw	89	;'Y'
  1180  10D3  346F               	retlw	111	;'o'
  1181  10D4  3475               	retlw	117	;'u'
  1182  10D5  3420               	retlw	32	;' '
  1183  10D6  3461               	retlw	97	;'a'
  1184  10D7  3472               	retlw	114	;'r'
  1185  10D8  3465               	retlw	101	;'e'
  1186  10D9  3420               	retlw	32	;' '
  1187  10DA  3462               	retlw	98	;'b'
  1188  10DB  346C               	retlw	108	;'l'
  1189  10DC  346F               	retlw	111	;'o'
  1190  10DD  3463               	retlw	99	;'c'
  1191  10DE  346B               	retlw	107	;'k'
  1192  10DF  3465               	retlw	101	;'e'
  1193  10E0  3464               	retlw	100	;'d'
  1194  10E1  3400               	retlw	0
  1195  10E2                     STR_10:
  1196  10E2  3461               	retlw	97	;'a'
  1197  10E3  3474               	retlw	116	;'t'
  1198  10E4  3474               	retlw	116	;'t'
  1199  10E5  3465               	retlw	101	;'e'
  1200  10E6  346D               	retlw	109	;'m'
  1201  10E7  3470               	retlw	112	;'p'
  1202  10E8  3474               	retlw	116	;'t'
  1203  10E9  3420               	retlw	32	;' '
  1204  10EA  3472               	retlw	114	;'r'
  1205  10EB  3465               	retlw	101	;'e'
  1206  10EC  346D               	retlw	109	;'m'
  1207  10ED  3461               	retlw	97	;'a'
  1208  10EE  3469               	retlw	105	;'i'
  1209  10EF  346E               	retlw	110	;'n'
  1210  10F0  3473               	retlw	115	;'s'
  1211  10F1  3400               	retlw	0
  1212  10F2                     STR_5:
  1213  10F2  3443               	retlw	67	;'C'
  1214  10F3  3468               	retlw	104	;'h'
  1215  10F4  3461               	retlw	97	;'a'
  1216  10F5  346E               	retlw	110	;'n'
  1217  10F6  3467               	retlw	103	;'g'
  1218  10F7  3465               	retlw	101	;'e'
  1219  10F8  3450               	retlw	80	;'P'
  1220  10F9  3461               	retlw	97	;'a'
  1221  10FA  3473               	retlw	115	;'s'
  1222  10FB  3473               	retlw	115	;'s'
  1223  10FC  3477               	retlw	119	;'w'
  1224  10FD  346F               	retlw	111	;'o'
  1225  10FE  3472               	retlw	114	;'r'
  1226  10FF  3464               	retlw	100	;'d'
  1227  1100  3400               	retlw	0
  1228  1101                     STR_3:
  1229  1101  3444               	retlw	68	;'D'
  1230  1102  346F               	retlw	111	;'o'
  1231  1103  3477               	retlw	119	;'w'
  1232  1104  346E               	retlw	110	;'n'
  1233  1105  346C               	retlw	108	;'l'
  1234  1106  346F               	retlw	111	;'o'
  1235  1107  3461               	retlw	97	;'a'
  1236  1108  3464               	retlw	100	;'d'
  1237  1109  3420               	retlw	32	;' '
  1238  110A  344C               	retlw	76	;'L'
  1239  110B  346F               	retlw	111	;'o'
  1240  110C  3467               	retlw	103	;'g'
  1241  110D  3420               	retlw	32	;' '
  1242  110E  3400               	retlw	0
  1243  110F                     STR_31:
  1244  110F  3473               	retlw	115	;'s'
  1245  1110  3475               	retlw	117	;'u'
  1246  1111  3463               	retlw	99	;'c'
  1247  1112  3463               	retlw	99	;'c'
  1248  1113  3465               	retlw	101	;'e'
  1249  1114  3473               	retlw	115	;'s'
  1250  1115  3473               	retlw	115	;'s'
  1251  1116  3466               	retlw	102	;'f'
  1252  1117  3475               	retlw	117	;'u'
  1253  1118  346C               	retlw	108	;'l'
  1254  1119  346C               	retlw	108	;'l'
  1255  111A  3479               	retlw	121	;'y'
  1256  111B  3420               	retlw	32	;' '
  1257  111C  3400               	retlw	0
  1258  111D                     STR_20:
  1259  111D  3454               	retlw	84	;'T'
  1260  111E  3469               	retlw	105	;'i'
  1261  111F  346D               	retlw	109	;'m'
  1262  1120  3465               	retlw	101	;'e'
  1263  1121  3420               	retlw	32	;' '
  1264  1122  3463               	retlw	99	;'c'
  1265  1123  3468               	retlw	104	;'h'
  1266  1124  3461               	retlw	97	;'a'
  1267  1125  346E               	retlw	110	;'n'
  1268  1126  3467               	retlw	103	;'g'
  1269  1127  3465               	retlw	101	;'e'
  1270  1128  3464               	retlw	100	;'d'
  1271  1129  3400               	retlw	0
  1272  112A                     STR_15:
  1273  112A  344C               	retlw	76	;'L'
  1274  112B  346F               	retlw	111	;'o'
  1275  112C  3467               	retlw	103	;'g'
  1276  112D  3473               	retlw	115	;'s'
  1277  112E  3420               	retlw	32	;' '
  1278  112F  3463               	retlw	99	;'c'
  1279  1130  346C               	retlw	108	;'l'
  1280  1131  3465               	retlw	101	;'e'
  1281  1132  3461               	retlw	97	;'a'
  1282  1133  3472               	retlw	114	;'r'
  1283  1134  3465               	retlw	101	;'e'
  1284  1135  3464               	retlw	100	;'d'
  1285  1136  3400               	retlw	0
  1286  1137                     STR_21:
  1287  1137  3453               	retlw	83	;'S'
  1288  1138  3475               	retlw	117	;'u'
  1289  1139  3463               	retlw	99	;'c'
  1290  113A  3463               	retlw	99	;'c'
  1291  113B  3465               	retlw	101	;'e'
  1292  113C  3473               	retlw	115	;'s'
  1293  113D  3473               	retlw	115	;'s'
  1294  113E  3466               	retlw	102	;'f'
  1295  113F  3475               	retlw	117	;'u'
  1296  1140  346C               	retlw	108	;'l'
  1297  1141  346C               	retlw	108	;'l'
  1298  1142  3479               	retlw	121	;'y'
  1299  1143  3400               	retlw	0
  1300  1144                     STR_16:
  1301  1144  3473               	retlw	115	;'s'
  1302  1145  3475               	retlw	117	;'u'
  1303  1146  3463               	retlw	99	;'c'
  1304  1147  3463               	retlw	99	;'c'
  1305  1148  3465               	retlw	101	;'e'
  1306  1149  3473               	retlw	115	;'s'
  1307  114A  3473               	retlw	115	;'s'
  1308  114B  3466               	retlw	102	;'f'
  1309  114C  3475               	retlw	117	;'u'
  1310  114D  346C               	retlw	108	;'l'
  1311  114E  346C               	retlw	108	;'l'
  1312  114F  3479               	retlw	121	;'y'
  1313  1150  3400               	retlw	0
  1314  1151                     STR_4:
  1315  1151  3453               	retlw	83	;'S'
  1316  1152  3465               	retlw	101	;'e'
  1317  1153  3474               	retlw	116	;'t'
  1318  1154  3420               	retlw	32	;' '
  1319  1155  3454               	retlw	84	;'T'
  1320  1156  3469               	retlw	105	;'i'
  1321  1157  346D               	retlw	109	;'m'
  1322  1158  3465               	retlw	101	;'e'
  1323  1159  3420               	retlw	32	;' '
  1324  115A  3400               	retlw	0
  1325  115B                     STR_2:
  1326  115B  3443               	retlw	67	;'C'
  1327  115C  346C               	retlw	108	;'l'
  1328  115D  3465               	retlw	101	;'e'
  1329  115E  3461               	retlw	97	;'a'
  1330  115F  3472               	retlw	114	;'r'
  1331  1160  3420               	retlw	32	;' '
  1332  1161  344C               	retlw	76	;'L'
  1333  1162  346F               	retlw	111	;'o'
  1334  1163  3467               	retlw	103	;'g'
  1335  1164  3400               	retlw	0
  1336  1165                     STR_1:
  1337  1165  3456               	retlw	86	;'V'
  1338  1166  3469               	retlw	105	;'i'
  1339  1167  3465               	retlw	101	;'e'
  1340  1168  3477               	retlw	119	;'w'
  1341  1169  3420               	retlw	32	;' '
  1342  116A  344C               	retlw	76	;'L'
  1343  116B  346F               	retlw	111	;'o'
  1344  116C  3467               	retlw	103	;'g'
  1345  116D  3400               	retlw	0
  1346  116E                     STR_18:
  1347  116E  344C               	retlw	76	;'L'
  1348  116F  346F               	retlw	111	;'o'
  1349  1170  3467               	retlw	103	;'g'
  1350  1171  3473               	retlw	115	;'s'
  1351  1172  3420               	retlw	32	;' '
  1352  1173  343A               	retlw	58	;':'
  1353  1174  3400               	retlw	0
  1354  1175                     STR_33:
  1355  1175  3466               	retlw	102	;'f'
  1356  1176  3461               	retlw	97	;'a'
  1357  1177  3469               	retlw	105	;'i'
  1358  1178  346C               	retlw	108	;'l'
  1359  1179  3465               	retlw	101	;'e'
  1360  117A  3464               	retlw	100	;'d'
  1361  117B  3400               	retlw	0
  1362  117C                     STR_42:
  1363  117C  344C               	retlw	76	;'L'
  1364  117D  346F               	retlw	111	;'o'
  1365  117E  3467               	retlw	103	;'g'
  1366  117F  3473               	retlw	115	;'s'
  1367  1180  3400               	retlw	0
  1368  1181                     STR_40:
  1369  1181  3443               	retlw	67	;'C'
  1370  1182  3420               	retlw	32	;' '
  1371  1183  3400               	retlw	0
  1372  1184                     STR_36:
  1373  1184  3447               	retlw	71	;'G'
  1374  1185  3431               	retlw	49	;'1'
  1375  1186  3400               	retlw	0
  1376  1187                     STR_37:
  1377  1187  3447               	retlw	71	;'G'
  1378  1188  3432               	retlw	50	;'2'
  1379  1189  3400               	retlw	0
  1380  118A                     STR_38:
  1381  118A  3447               	retlw	71	;'G'
  1382  118B  3433               	retlw	51	;'3'
  1383  118C  3400               	retlw	0
  1384  118D                     STR_39:
  1385  118D  3447               	retlw	71	;'G'
  1386  118E  3434               	retlw	52	;'4'
  1387  118F  3400               	retlw	0
  1388  1190                     STR_46:
  1389  1190  3443               	retlw	67	;'C'
  1390  1191  344C               	retlw	76	;'L'
  1391  1192  3400               	retlw	0
  1392  1193                     STR_43:
  1393  1193  3444               	retlw	68	;'D'
  1394  1194  344C               	retlw	76	;'L'
  1395  1195  3400               	retlw	0
  1396  1196                     STR_34:
  1397  1196  3447               	retlw	71	;'G'
  1398  1197  344E               	retlw	78	;'N'
  1399  1198  3400               	retlw	0
  1400  1199                     STR_45:
  1401  1199  3443               	retlw	67	;'C'
  1402  119A  3450               	retlw	80	;'P'
  1403  119B  3400               	retlw	0
  1404  119C                     STR_35:
  1405  119C  3447               	retlw	71	;'G'
  1406  119D  3452               	retlw	82	;'R'
  1407  119E  3400               	retlw	0
  1408  119F                     STR_44:
  1409  119F  3443               	retlw	67	;'C'
  1410  11A0  3454               	retlw	84	;'T'
  1411  11A1  3400               	retlw	0
  1412  1024                     
  1413                           	psect	cinit
  1414  0011                     start_initialization:	
  1415                           ; #config settings
  1416                           
  1417  0011                     __initialization:
  1418                           
  1419                           ; Initialize objects allocated to BANK1
  1420  0011  1383               	bcf	3,7	;select IRP bank0
  1421  0012  30DF               	movlw	low (__pdataBANK1+25)
  1422  0013  00FD               	movwf	btemp+-1
  1423  0014  301E               	movlw	high __pidataBANK1
  1424  0015  00FE               	movwf	btemp
  1425  0016  30B0               	movlw	low __pidataBANK1
  1426  0017  00FF               	movwf	btemp+1
  1427  0018  30C6               	movlw	low __pdataBANK1
  1428  0019  0084               	movwf	4
  1429  001A  160A  158A  268C  120A  118A  	fcall	init_ram0
  1430                           
  1431                           ; Initialize objects allocated to BANK0
  1432  001F  3068               	movlw	low (__pdataBANK0+8)
  1433  0020  00FD               	movwf	btemp+-1
  1434  0021  301E               	movlw	high __pidataBANK0
  1435  0022  00FE               	movwf	btemp
  1436  0023  3018               	movlw	low __pidataBANK0
  1437  0024  00FF               	movwf	btemp+1
  1438  0025  3060               	movlw	low __pdataBANK0
  1439  0026  0084               	movwf	4
  1440  0027  160A  158A  268C  120A  118A  	fcall	init_ram0
  1441                           
  1442                           ; Clear objects allocated to BANK1
  1443  002C  30A0               	movlw	low __pbssBANK1
  1444  002D  0084               	movwf	4
  1445  002E  30C6               	movlw	low (__pbssBANK1+38)
  1446  002F  160A  158A  2610  120A  118A  	fcall	clear_ram0
  1447                           
  1448                           ; Clear objects allocated to BANK0
  1449  0034  3044               	movlw	low __pbssBANK0
  1450  0035  0084               	movwf	4
  1451  0036  3060               	movlw	low (__pbssBANK0+28)
  1452  0037  160A  158A  2610  120A  118A  	fcall	clear_ram0
  1453                           
  1454                           ; Clear objects allocated to COMMON
  1455  003C  01F9               	clrf	__pbssCOMMON& (0+127)
  1456  003D  01FA               	clrf	(__pbssCOMMON+1)& (0+127)
  1457  003E                     end_of_initialization:	
  1458                           ;End of C runtime variable initialization code
  1459                           
  1460  003E                     __end_of__initialization:
  1461  003E  0183               	clrf	3
  1462  003F  120A  118A  2842   	ljmp	_main	;jump to C main() function
  1463                           
  1464                           	psect	bssCOMMON
  1465  0079                     __pbssCOMMON:
  1466  0079                     read_digital_keypad@pre_key:
  1467  0079                     	ds	1
  1468  007A                     read_digital_keypad@once:
  1469  007A                     	ds	1
  1470                           
  1471                           	psect	bssBANK0
  1472  0044                     __pbssBANK0:
  1473  0044                     change_time@new_time:
  1474  0044                     	ds	6
  1475  004A                     _clock_reg:
  1476  004A                     	ds	3
  1477  004D                     change_password@n_p_pos:
  1478  004D                     	ds	2
  1479  004F                     change_time@blink_pos:
  1480  004F                     	ds	2
  1481  0051                     view_log@shift:
  1482  0051                     	ds	2
  1483  0053                     login_menu@menu_pos:
  1484  0053                     	ds	2
  1485  0055                     _return_time:
  1486  0055                     	ds	2
  1487  0057                     _sec:
  1488  0057                     	ds	2
  1489  0059                     change_password@p_chg:
  1490  0059                     	ds	1
  1491  005A                     change_time@t_done:
  1492  005A                     	ds	1
  1493  005B                     change_time@blink:
  1494  005B                     	ds	1
  1495  005C                     change_time@wait:
  1496  005C                     	ds	1
  1497  005D                     login@attempt_rem:
  1498  005D                     	ds	1
  1499  005E                     login@i:
  1500  005E                     	ds	1
  1501  005F                     _overflow:
  1502  005F                     	ds	1
  1503                           
  1504                           	psect	dataBANK0
  1505  0060                     __pdataBANK0:
  1506  0060                     login_menu@select_pos:
  1507  0060                     	ds	2
  1508  0062                     _access:
  1509  0062                     	ds	2
  1510  0064                     _pos:
  1511  0064                     	ds	2
  1512  0066                     read_digital_keypad@longpressed:
  1513  0066                     	ds	2
  1514                           
  1515                           	psect	bssBANK1
  1516  00A0                     __pbssBANK1:
  1517  00A0                     isr@count:
  1518  00A0                     	ds	2
  1519  00A2                     _count1:
  1520  00A2                     	ds	2
  1521  00A4                     _count:
  1522  00A4                     	ds	2
  1523  00A6                     _log:
  1524  00A6                     	ds	11
  1525  00B1                     change_password@r_pwd:
  1526  00B1                     	ds	9
  1527  00BA                     _time:
  1528  00BA                     	ds	7
  1529  00C1                     login@npassword:
  1530  00C1                     	ds	5
  1531                           
  1532                           	psect	dataBANK1
  1533  00C6                     __pdataBANK1:
  1534  00C6                     _gear:
  1535  00C6                     	ds	12
  1536  00D2                     _menu:
  1537  00D2                     	ds	10
  1538  00DC                     main@F1013:
  1539  00DC                     	ds	3
  1540                           
  1541                           	psect	inittext
  1542  1E88                     init_fetch0:	
  1543                           ;	Called with low address in FSR and high address in W
  1544                           
  1545  1E88  087E               	movf	btemp,w
  1546  1E89  008A               	movwf	10
  1547  1E8A  087F               	movf	btemp+1,w
  1548  1E8B  0082               	movwf	2
  1549  1E8C                     init_ram0:	
  1550                           ;Called with:
  1551                           ;	high address of idata address in btemp 
  1552                           ;	low address of idata address in btemp+1 
  1553                           ;	low address of data in FSR
  1554                           ;	high address + 1 of data in btemp-1
  1555                           
  1556  1E8C  160A  158A  2688  160A  158A  	fcall	init_fetch0
  1557  1E91  0080               	movwf	0
  1558  1E92  0A84               	incf	4,f
  1559  1E93  0804               	movf	4,w
  1560  1E94  067D               	xorwf	btemp+-1,w
  1561  1E95  1903               	btfsc	3,2
  1562  1E96  3400               	retlw	0
  1563  1E97  0AFF               	incf	btemp+1,f
  1564  1E98  1903               	btfsc	3,2
  1565  1E99  0AFE               	incf	btemp,f
  1566  1E9A  2E8C               	goto	init_ram0
  1567                           
  1568                           	psect	clrtext
  1569  1E10                     clear_ram0:	
  1570                           ;	Called with FSR containing the base address, and
  1571                           ;	W with the last address+1
  1572                           
  1573  1E10  0064               	clrwdt	;clear the watchdog before getting into this loop
  1574  1E11                     clrloop0:
  1575  1E11  0180               	clrf	0	;clear RAM location pointed to by FSR
  1576  1E12  0A84               	incf	4,f	;increment pointer
  1577  1E13  0604               	xorwf	4,w	;XOR with final address
  1578  1E14  1903               	btfsc	3,2	;have we reached the end yet?
  1579  1E15  3400               	retlw	0	;all done for this memory range, return
  1580  1E16  0604               	xorwf	4,w	;XOR again to restore value
  1581  1E17  2E11               	goto	clrloop0	;do the next byte
  1582                           
  1583                           	psect	cstackBANK1
  1584  00DF                     __pcstackBANK1:
  1585  00DF                     main@i:
  1586                           
  1587                           ; 2 bytes @ 0x0
  1588  00DF                     	ds	2
  1589  00E1                     main@menu_pos:
  1590                           
  1591                           ; 1 bytes @ 0x2
  1592  00E1                     	ds	1
  1593  00E2                     main@event:
  1594                           
  1595                           ; 3 bytes @ 0x3
  1596  00E2                     	ds	3
  1597  00E5                     main@gr:
  1598                           
  1599                           ; 1 bytes @ 0x6
  1600  00E5                     	ds	1
  1601  00E6                     main@wait_time:
  1602                           
  1603                           ; 2 bytes @ 0x7
  1604  00E6                     	ds	2
  1605  00E8                     main@speed:
  1606                           
  1607                           ; 1 bytes @ 0x9
  1608  00E8                     	ds	1
  1609  00E9                     main@control_flag:
  1610                           
  1611                           ; 1 bytes @ 0xA
  1612  00E9                     	ds	1
  1613  00EA                     main@reset_flag:
  1614                           
  1615                           ; 1 bytes @ 0xB
  1616  00EA                     	ds	1
  1617  00EB                     main@key:
  1618                           
  1619                           ; 1 bytes @ 0xC
  1620  00EB                     	ds	1
  1621                           
  1622                           	psect	cstackCOMMON
  1623  0070                     __pcstackCOMMON:
  1624  0070                     ?_read_ds1307:
  1625  0070                     ?_ext_eeprom_24C02_read:	
  1626                           ; 1 bytes @ 0x0
  1627                           
  1628  0070                     ?_putchars:	
  1629                           ; 1 bytes @ 0x0
  1630                           
  1631  0070                     ?_init_ds1307:	
  1632                           ; 1 bytes @ 0x0
  1633                           
  1634  0070                     ?_init_timer2:	
  1635                           ; 1 bytes @ 0x0
  1636                           
  1637  0070                     ?_i2c_start:	
  1638                           ; 1 bytes @ 0x0
  1639                           
  1640  0070                     ?_i2c_rep_start:	
  1641                           ; 1 bytes @ 0x0
  1642                           
  1643  0070                     ?_i2c_read:	
  1644                           ; 1 bytes @ 0x0
  1645                           
  1646  0070                     ?_i2c_stop:	
  1647                           ; 1 bytes @ 0x0
  1648                           
  1649  0070                     ?_init_adc:	
  1650                           ; 1 bytes @ 0x0
  1651                           
  1652  0070                     ?_init_display_controller:	
  1653                           ; 1 bytes @ 0x0
  1654                           
  1655  0070                     ?_init_clcd:	
  1656                           ; 1 bytes @ 0x0
  1657                           
  1658  0070                     ?_init_digital_keypad:	
  1659                           ; 1 bytes @ 0x0
  1660                           
  1661  0070                     ?_read_digital_keypad:	
  1662                           ; 1 bytes @ 0x0
  1663                           
  1664  0070                     ?_get_time:	
  1665                           ; 1 bytes @ 0x0
  1666                           
  1667  0070                     ?_display_time:	
  1668                           ; 1 bytes @ 0x0
  1669                           
  1670  0070                     ?_log_event:	
  1671                           ; 1 bytes @ 0x0
  1672                           
  1673  0070                     ?_get_password:	
  1674                           ; 1 bytes @ 0x0
  1675                           
  1676  0070                     ?_clear_log:	
  1677                           ; 1 bytes @ 0x0
  1678                           
  1679  0070                     ?_download_log:	
  1680                           ; 1 bytes @ 0x0
  1681                           
  1682  0070                     ?_init_config:	
  1683                           ; 1 bytes @ 0x0
  1684                           
  1685  0070                     ?_main:	
  1686                           ; 1 bytes @ 0x0
  1687                           
  1688  0070                     ?_i2c_wait_for_idle:	
  1689                           ; 1 bytes @ 0x0
  1690                           
  1691  0070                     ?_isr:	
  1692                           ; 1 bytes @ 0x0
  1693                           
  1694  0070                     ??_isr:	
  1695                           ; 1 bytes @ 0x0
  1696                           
  1697  0070                     ?_i2c_write:	
  1698                           ; 1 bytes @ 0x0
  1699                           
  1700                           
  1701                           ; 2 bytes @ 0x0
  1702  0070                     	ds	3
  1703  0073                     ?_strncpy:
  1704  0073                     ??_putchars:	
  1705                           ; 1 bytes @ 0x3
  1706                           
  1707  0073                     ??_init_timer2:	
  1708                           ; 1 bytes @ 0x3
  1709                           
  1710  0073                     ?_strcpy:	
  1711                           ; 1 bytes @ 0x3
  1712                           
  1713  0073                     ??_i2c_start:	
  1714                           ; 1 bytes @ 0x3
  1715                           
  1716  0073                     ??_i2c_write:	
  1717                           ; 1 bytes @ 0x3
  1718                           
  1719  0073                     ??_i2c_rep_start:	
  1720                           ; 1 bytes @ 0x3
  1721                           
  1722  0073                     ??_i2c_read:	
  1723                           ; 1 bytes @ 0x3
  1724                           
  1725  0073                     ??_i2c_stop:	
  1726                           ; 1 bytes @ 0x3
  1727                           
  1728  0073                     ??_init_adc:	
  1729                           ; 1 bytes @ 0x3
  1730                           
  1731  0073                     ?_clcd_write:	
  1732                           ; 1 bytes @ 0x3
  1733                           
  1734  0073                     ??_init_digital_keypad:	
  1735                           ; 1 bytes @ 0x3
  1736                           
  1737  0073                     ??_read_digital_keypad:	
  1738                           ; 1 bytes @ 0x3
  1739                           
  1740  0073                     ??_i2c_wait_for_idle:	
  1741                           ; 1 bytes @ 0x3
  1742                           
  1743  0073                     ?___bmul:	
  1744                           ; 1 bytes @ 0x3
  1745                           
  1746  0073                     ??___lldiv:	
  1747                           ; 1 bytes @ 0x3
  1748                           
  1749  0073                     ?_strcmp:	
  1750                           ; 1 bytes @ 0x3
  1751                           
  1752  0073                     ?_strncmp:	
  1753                           ; 2 bytes @ 0x3
  1754                           
  1755  0073                     ?_read_adc:	
  1756                           ; 2 bytes @ 0x3
  1757                           
  1758  0073                     ?___wmul:	
  1759                           ; 2 bytes @ 0x3
  1760                           
  1761  0073                     ?___awdiv:	
  1762                           ; 2 bytes @ 0x3
  1763                           
  1764  0073                     ?___awmod:	
  1765                           ; 2 bytes @ 0x3
  1766                           
  1767  0073                     ?___lwmod:	
  1768                           ; 2 bytes @ 0x3
  1769                           
  1770  0073                     clcd_write@mode:	
  1771                           ; 2 bytes @ 0x3
  1772                           
  1773  0073                     i2c_write@data:	
  1774                           ; 1 bytes @ 0x3
  1775                           
  1776  0073                     putchars@data:	
  1777                           ; 1 bytes @ 0x3
  1778                           
  1779  0073                     ___bmul@multiplicand:	
  1780                           ; 1 bytes @ 0x3
  1781                           
  1782  0073                     strcmp@s2:	
  1783                           ; 1 bytes @ 0x3
  1784                           
  1785  0073                     strncmp@s2:	
  1786                           ; 1 bytes @ 0x3
  1787                           
  1788  0073                     ___wmul@multiplier:	
  1789                           ; 1 bytes @ 0x3
  1790                           
  1791  0073                     ___awdiv@divisor:	
  1792                           ; 2 bytes @ 0x3
  1793                           
  1794  0073                     ___awmod@divisor:	
  1795                           ; 2 bytes @ 0x3
  1796                           
  1797  0073                     ___lwmod@divisor:	
  1798                           ; 2 bytes @ 0x3
  1799                           
  1800  0073                     strcpy@from:	
  1801                           ; 2 bytes @ 0x3
  1802                           
  1803  0073                     strncpy@from:	
  1804                           ; 2 bytes @ 0x3
  1805                           
  1806                           
  1807                           ; 2 bytes @ 0x3
  1808  0073                     	ds	1
  1809  0074                     ?_putsx:
  1810  0074                     ?_write_ds1307:	
  1811                           ; 1 bytes @ 0x4
  1812                           
  1813  0074                     ?_ext_eeprom_24C02_byte_write:	
  1814                           ; 1 bytes @ 0x4
  1815                           
  1816  0074                     ??_clcd_write:	
  1817                           ; 1 bytes @ 0x4
  1818                           
  1819  0074                     ??___bmul:	
  1820                           ; 1 bytes @ 0x4
  1821                           
  1822  0074                     read_digital_keypad@key:	
  1823                           ; 1 bytes @ 0x4
  1824                           
  1825  0074                     write_ds1307@data:	
  1826                           ; 1 bytes @ 0x4
  1827                           
  1828  0074                     ext_eeprom_24C02_byte_write@data:	
  1829                           ; 1 bytes @ 0x4
  1830                           
  1831  0074                     i2c_read@ack:	
  1832                           ; 1 bytes @ 0x4
  1833                           
  1834  0074                     putsx@s:	
  1835                           ; 1 bytes @ 0x4
  1836                           
  1837  0074                     strncmp@len:	
  1838                           ; 2 bytes @ 0x4
  1839                           
  1840  0074                     ___lldiv@quotient:	
  1841                           ; 2 bytes @ 0x4
  1842                           
  1843                           
  1844                           ; 4 bytes @ 0x4
  1845  0074                     	ds	1
  1846  0075                     ??_strcmp:
  1847  0075                     ??_write_ds1307:	
  1848                           ; 1 bytes @ 0x5
  1849                           
  1850  0075                     ??_ext_eeprom_24C02_byte_write:	
  1851                           ; 1 bytes @ 0x5
  1852                           
  1853  0075                     ??_strcpy:	
  1854                           ; 1 bytes @ 0x5
  1855                           
  1856  0075                     ??_read_adc:	
  1857                           ; 1 bytes @ 0x5
  1858                           
  1859  0075                     write_ds1307@addr:	
  1860                           ; 1 bytes @ 0x5
  1861                           
  1862  0075                     ext_eeprom_24C02_byte_write@addr:	
  1863                           ; 1 bytes @ 0x5
  1864                           
  1865  0075                     i2c_read@data:	
  1866                           ; 1 bytes @ 0x5
  1867                           
  1868  0075                     ___bmul@product:	
  1869                           ; 1 bytes @ 0x5
  1870                           
  1871  0075                     read_adc@adc_reg_val:	
  1872                           ; 1 bytes @ 0x5
  1873                           
  1874  0075                     ___wmul@multiplicand:	
  1875                           ; 2 bytes @ 0x5
  1876                           
  1877  0075                     ___awdiv@dividend:	
  1878                           ; 2 bytes @ 0x5
  1879                           
  1880  0075                     ___awmod@dividend:	
  1881                           ; 2 bytes @ 0x5
  1882                           
  1883  0075                     ___lwmod@dividend:	
  1884                           ; 2 bytes @ 0x5
  1885                           
  1886  0075                     strncpy@size:	
  1887                           ; 2 bytes @ 0x5
  1888                           
  1889                           
  1890                           ; 2 bytes @ 0x5
  1891  0075                     	ds	1
  1892  0076                     ??_read_ds1307:
  1893  0076                     ?_ext_eeprom_24C02_str_write:	
  1894                           ; 1 bytes @ 0x6
  1895                           
  1896  0076                     ??_ext_eeprom_24C02_read:	
  1897                           ; 1 bytes @ 0x6
  1898                           
  1899  0076                     ??_putsx:	
  1900                           ; 1 bytes @ 0x6
  1901                           
  1902  0076                     ??_strncmp:	
  1903                           ; 1 bytes @ 0x6
  1904                           
  1905  0076                     clcd_write@byte:	
  1906                           ; 1 bytes @ 0x6
  1907                           
  1908  0076                     ext_eeprom_24C02_str_write@data:	
  1909                           ; 1 bytes @ 0x6
  1910                           
  1911  0076                     ___bmul@multiplier:	
  1912                           ; 1 bytes @ 0x6
  1913                           
  1914  0076                     strcpy@cp:	
  1915                           ; 1 bytes @ 0x6
  1916                           
  1917                           
  1918                           ; 1 bytes @ 0x6
  1919  0076                     	ds	1
  1920  0077                     ??_ext_eeprom_24C02_str_write:
  1921  0077                     ??_init_display_controller:	
  1922                           ; 1 bytes @ 0x7
  1923                           
  1924  0077                     ??_clcd_print:	
  1925                           ; 1 bytes @ 0x7
  1926                           
  1927  0077                     ??_clear_log:	
  1928                           ; 1 bytes @ 0x7
  1929                           
  1930  0077                     ??___wmul:	
  1931                           ; 1 bytes @ 0x7
  1932                           
  1933  0077                     ??___awdiv:	
  1934                           ; 1 bytes @ 0x7
  1935                           
  1936  0077                     ??___awmod:	
  1937                           ; 1 bytes @ 0x7
  1938                           
  1939  0077                     ??___lwdiv:	
  1940                           ; 1 bytes @ 0x7
  1941                           
  1942  0077                     ??___lwmod:	
  1943                           ; 1 bytes @ 0x7
  1944                           
  1945  0077                     read_ds1307@addr:	
  1946                           ; 1 bytes @ 0x7
  1947                           
  1948  0077                     ext_eeprom_24C02_read@addr:	
  1949                           ; 1 bytes @ 0x7
  1950                           
  1951  0077                     strcpy@to:	
  1952                           ; 1 bytes @ 0x7
  1953                           
  1954  0077                     strncpy@to:	
  1955                           ; 1 bytes @ 0x7
  1956                           
  1957  0077                     ___wmul@product:	
  1958                           ; 1 bytes @ 0x7
  1959                           
  1960                           
  1961                           ; 2 bytes @ 0x7
  1962  0077                     	ds	1
  1963  0078                     clear_log@reset_memory:
  1964  0078                     read_ds1307@data:	
  1965                           ; 1 bytes @ 0x8
  1966                           
  1967  0078                     ext_eeprom_24C02_read@data:	
  1968                           ; 1 bytes @ 0x8
  1969                           
  1970  0078                     ext_eeprom_24C02_str_write@addr:	
  1971                           ; 1 bytes @ 0x8
  1972                           
  1973  0078                     ___lldiv@counter:	
  1974                           ; 1 bytes @ 0x8
  1975                           
  1976  0078                     ___lwmod@counter:	
  1977                           ; 1 bytes @ 0x8
  1978                           
  1979  0078                     strncmp@s1:	
  1980                           ; 1 bytes @ 0x8
  1981                           
  1982  0078                     strncpy@cp:	
  1983                           ; 1 bytes @ 0x8
  1984                           
  1985                           
  1986                           ; 1 bytes @ 0x8
  1987  0078                     	ds	1
  1988  0079                     ??_init_clcd:
  1989  0079                     ??_clcd_putch:	
  1990                           ; 1 bytes @ 0x9
  1991                           
  1992  0079                     ??_init_config:	
  1993                           ; 1 bytes @ 0x9
  1994                           
  1995                           
  1996                           	psect	cstackBANK0
  1997  0020                     __pcstackBANK0:	
  1998                           ; 1 bytes @ 0x9
  1999                           
  2000  0020                     ??_strncpy:
  2001  0020                     ??_init_ds1307:	
  2002                           ; 1 bytes @ 0x0
  2003                           
  2004  0020                     ?_clcd_print:	
  2005                           ; 1 bytes @ 0x0
  2006                           
  2007  0020                     ??_get_time:	
  2008                           ; 1 bytes @ 0x0
  2009                           
  2010  0020                     ??_log_event:	
  2011                           ; 1 bytes @ 0x0
  2012                           
  2013  0020                     ??_get_password:	
  2014                           ; 1 bytes @ 0x0
  2015                           
  2016  0020                     ?___lwdiv:	
  2017                           ; 1 bytes @ 0x0
  2018                           
  2019  0020                     ?___lldiv:	
  2020                           ; 2 bytes @ 0x0
  2021                           
  2022  0020                     ___awdiv@counter:	
  2023                           ; 4 bytes @ 0x0
  2024                           
  2025  0020                     ___awmod@counter:	
  2026                           ; 1 bytes @ 0x0
  2027                           
  2028  0020                     strcmp@r:	
  2029                           ; 1 bytes @ 0x0
  2030                           
  2031  0020                     clcd_print@str:	
  2032                           ; 1 bytes @ 0x0
  2033                           
  2034  0020                     ___lwdiv@divisor:	
  2035                           ; 2 bytes @ 0x0
  2036                           
  2037  0020                     ___lldiv@divisor:	
  2038                           ; 2 bytes @ 0x0
  2039                           
  2040                           
  2041                           ; 4 bytes @ 0x0
  2042  0020                     	ds	1
  2043  0021                     init_ds1307@dummy:
  2044  0021                     ___awdiv@sign:	
  2045                           ; 1 bytes @ 0x1
  2046                           
  2047  0021                     ___awmod@sign:	
  2048                           ; 1 bytes @ 0x1
  2049                           
  2050  0021                     strcmp@s1:	
  2051                           ; 1 bytes @ 0x1
  2052                           
  2053                           
  2054                           ; 1 bytes @ 0x1
  2055  0021                     	ds	1
  2056  0022                     ??_download_log:
  2057  0022                     clcd_print@addr:	
  2058                           ; 1 bytes @ 0x2
  2059                           
  2060  0022                     log_event@add:	
  2061                           ; 1 bytes @ 0x2
  2062                           
  2063  0022                     get_password@spassword:	
  2064                           ; 1 bytes @ 0x2
  2065                           
  2066  0022                     ___awdiv@quotient:	
  2067                           ; 1 bytes @ 0x2
  2068                           
  2069  0022                     ___lwdiv@dividend:	
  2070                           ; 2 bytes @ 0x2
  2071                           
  2072                           
  2073                           ; 2 bytes @ 0x2
  2074  0022                     	ds	1
  2075  0023                     get_password@i:
  2076                           
  2077                           ; 2 bytes @ 0x3
  2078  0023                     	ds	1
  2079  0024                     ?_log_car_event:
  2080  0024                     ___lwdiv@counter:	
  2081                           ; 1 bytes @ 0x4
  2082                           
  2083  0024                     log_car_event@event:	
  2084                           ; 1 bytes @ 0x4
  2085                           
  2086  0024                     ___lldiv@dividend:	
  2087                           ; 2 bytes @ 0x4
  2088                           
  2089  0024                     download_log@rlog:	
  2090                           ; 4 bytes @ 0x4
  2091                           
  2092                           
  2093                           ; 11 bytes @ 0x4
  2094  0024                     	ds	1
  2095  0025                     ___lwdiv@quotient:
  2096                           
  2097                           ; 2 bytes @ 0x5
  2098  0025                     	ds	1
  2099  0026                     log_car_event@speed:
  2100                           
  2101                           ; 1 bytes @ 0x6
  2102  0026                     	ds	1
  2103  0027                     ?_clcd_putch:
  2104  0027                     ??_log_car_event:	
  2105                           ; 1 bytes @ 0x7
  2106                           
  2107  0027                     clcd_putch@addr:	
  2108                           ; 1 bytes @ 0x7
  2109                           
  2110                           
  2111                           ; 1 bytes @ 0x7
  2112  0027                     	ds	1
  2113  0028                     ?_init_i2c:
  2114  0028                     ?_init_uart:	
  2115                           ; 1 bytes @ 0x8
  2116                           
  2117  0028                     clcd_putch@data:	
  2118                           ; 1 bytes @ 0x8
  2119                           
  2120  0028                     init_i2c@baud:	
  2121                           ; 1 bytes @ 0x8
  2122                           
  2123  0028                     init_uart@baud:	
  2124                           ; 4 bytes @ 0x8
  2125                           
  2126                           
  2127                           ; 4 bytes @ 0x8
  2128  0028                     	ds	1
  2129  0029                     ??_display_time:
  2130  0029                     ?_login:	
  2131                           ; 1 bytes @ 0x9
  2132                           
  2133  0029                     ?_login_menu:	
  2134                           ; 1 bytes @ 0x9
  2135                           
  2136  0029                     ?_view_log:	
  2137                           ; 1 bytes @ 0x9
  2138                           
  2139  0029                     ?_change_time:	
  2140                           ; 1 bytes @ 0x9
  2141                           
  2142  0029                     ?_change_password:	
  2143                           ; 1 bytes @ 0x9
  2144                           
  2145  0029                     login@reset_flag:	
  2146                           ; 1 bytes @ 0x9
  2147                           
  2148  0029                     login_menu@reset_flag:	
  2149                           ; 1 bytes @ 0x9
  2150                           
  2151  0029                     view_log@reset_shift:	
  2152                           ; 1 bytes @ 0x9
  2153                           
  2154  0029                     change_time@reset_time:	
  2155                           ; 1 bytes @ 0x9
  2156                           
  2157  0029                     change_password@reset_pwd:	
  2158                           ; 1 bytes @ 0x9
  2159                           
  2160                           
  2161                           ; 1 bytes @ 0x9
  2162  0029                     	ds	1
  2163  002A                     ?_display_dash_board:
  2164  002A                     ??_login:	
  2165                           ; 1 bytes @ 0xA
  2166                           
  2167  002A                     ??_login_menu:	
  2168                           ; 1 bytes @ 0xA
  2169                           
  2170  002A                     ??_view_log:	
  2171                           ; 1 bytes @ 0xA
  2172                           
  2173  002A                     ??_change_time:	
  2174                           ; 1 bytes @ 0xA
  2175                           
  2176  002A                     ??_change_password:	
  2177                           ; 1 bytes @ 0xA
  2178                           
  2179  002A                     display_dash_board@speed:	
  2180                           ; 1 bytes @ 0xA
  2181                           
  2182                           
  2183                           ; 1 bytes @ 0xA
  2184  002A                     	ds	1
  2185  002B                     ??_display_dash_board:
  2186                           
  2187                           ; 1 bytes @ 0xB
  2188  002B                     	ds	1
  2189  002C                     ??_init_i2c:
  2190  002C                     ??_init_uart:	
  2191                           ; 1 bytes @ 0xC
  2192                           
  2193  002C                     change_password@key:	
  2194                           ; 1 bytes @ 0xC
  2195                           
  2196  002C                     login@spassword:	
  2197                           ; 1 bytes @ 0xC
  2198                           
  2199  002C                     view_log@rlog:	
  2200                           ; 5 bytes @ 0xC
  2201                           
  2202                           
  2203                           ; 11 bytes @ 0xC
  2204  002C                     	ds	1
  2205  002D                     login_menu@key:
  2206                           
  2207                           ; 1 bytes @ 0xD
  2208  002D                     	ds	1
  2209  002E                     display_dash_board@event:
  2210  002E                     change_time@i:	
  2211                           ; 1 bytes @ 0xE
  2212                           
  2213                           
  2214                           ; 4 bytes @ 0xE
  2215  002E                     	ds	1
  2216  002F                     download_log@add:
  2217                           
  2218                           ; 1 bytes @ 0xF
  2219  002F                     	ds	1
  2220  0030                     download_log@rpos:
  2221                           
  2222                           ; 2 bytes @ 0x10
  2223  0030                     	ds	1
  2224  0031                     login@key:
  2225                           
  2226                           ; 1 bytes @ 0x11
  2227  0031                     	ds	1
  2228  0032                     change_time@key:
  2229  0032                     download_log@next:	
  2230                           ; 1 bytes @ 0x12
  2231                           
  2232                           
  2233                           ; 2 bytes @ 0x12
  2234  0032                     	ds	1
  2235  0033                     change_time@dummy:
  2236                           
  2237                           ; 1 bytes @ 0x13
  2238  0033                     	ds	1
  2239  0034                     download_log@i:
  2240                           
  2241                           ; 2 bytes @ 0x14
  2242  0034                     	ds	3
  2243  0037                     view_log@add:
  2244                           
  2245                           ; 1 bytes @ 0x17
  2246  0037                     	ds	1
  2247  0038                     view_log@key:
  2248                           
  2249                           ; 1 bytes @ 0x18
  2250  0038                     	ds	1
  2251  0039                     view_log@i_185:
  2252                           
  2253                           ; 4 bytes @ 0x19
  2254  0039                     	ds	4
  2255  003D                     view_log@rpos:
  2256                           
  2257                           ; 2 bytes @ 0x1D
  2258  003D                     	ds	2
  2259  003F                     view_log@i:
  2260                           
  2261                           ; 2 bytes @ 0x1F
  2262  003F                     	ds	2
  2263  0041                     ??_main:
  2264                           
  2265                           ; 1 bytes @ 0x21
  2266  0041                     	ds	3
  2267                           
  2268                           	psect	maintext
  2269  0042                     __pmaintext:	
  2270 ;;
  2271 ;;Main: autosize = 0, tempsize = 3, incstack = 0, save=0
  2272 ;;
  2273 ;; *************** function _main *****************
  2274 ;; Defined at:
  2275 ;;		line 29 in file "main.c"
  2276 ;; Parameters:    Size  Location     Type
  2277 ;;		None
  2278 ;; Auto vars:     Size  Location     Type
  2279 ;;  i               2    0[BANK1 ] int 
  2280 ;;  event           3    3[BANK1 ] unsigned char [3]
  2281 ;;  wait_time       2    7[BANK1 ] int 
  2282 ;;  key             1   12[BANK1 ] unsigned char 
  2283 ;;  reset_flag      1   11[BANK1 ] unsigned char 
  2284 ;;  control_flag    1   10[BANK1 ] unsigned char 
  2285 ;;  speed           1    9[BANK1 ] unsigned char 
  2286 ;;  gr              1    6[BANK1 ] unsigned char 
  2287 ;;  menu_pos        1    2[BANK1 ] unsigned char 
  2288 ;;  key1            1    0        unsigned char 
  2289 ;; Return value:  Size  Location     Type
  2290 ;;                  1    wreg      void 
  2291 ;; Registers used:
  2292 ;;		wreg, fsr0l, fsr0h, status,2, status,0, btemp+1, pclath, cstack
  2293 ;; Tracked objects:
  2294 ;;		On entry : B00/0
  2295 ;;		On exit  : 0/0
  2296 ;;		Unchanged: 0/0
  2297 ;; Data sizes:     COMMON   BANK0   BANK1   BANK3   BANK2
  2298 ;;      Params:         0       0       0       0       0
  2299 ;;      Locals:         0       0      13       0       0
  2300 ;;      Temps:          0       3       0       0       0
  2301 ;;      Totals:         0       3      13       0       0
  2302 ;;Total ram usage:       16 bytes
  2303 ;; Hardware stack levels required when called: 7
  2304 ;; This function calls:
  2305 ;;		___lwdiv
  2306 ;;		_change_password
  2307 ;;		_change_time
  2308 ;;		_clcd_print
  2309 ;;		_clcd_putch
  2310 ;;		_clcd_write
  2311 ;;		_clear_log
  2312 ;;		_display_dash_board
  2313 ;;		_download_log
  2314 ;;		_ext_eeprom_24C02_byte_write
  2315 ;;		_init_config
  2316 ;;		_log_car_event
  2317 ;;		_login
  2318 ;;		_login_menu
  2319 ;;		_read_adc
  2320 ;;		_read_digital_keypad
  2321 ;;		_strcpy
  2322 ;;		_view_log
  2323 ;; This function is called by:
  2324 ;;		Startup code after reset
  2325 ;; This function uses a non-reentrant model
  2326 ;;
  2327                           
  2328  0042                     _main:	
  2329                           ;psect for function _main
  2330                           
  2331  0042                     l5201:	
  2332                           ;incstack = 0
  2333                           ; Regs used in _main: [wreg-fsr0h+status,2+status,0+btemp+1+pclath+cstack]
  2334                           
  2335                           
  2336                           ;main.c: 30:     ext_eeprom_24C02_byte_write(0x01, '1');
  2337  0042  1683               	bsf	3,5	;RP0=1, select bank1
  2338  0043  1303               	bcf	3,6	;RP1=0, select bank1
  2339  0044  085C               	movf	main@F1013^(0+128),w
  2340  0045  00E2               	movwf	main@event^(0+128)
  2341  0046  085D               	movf	(main@F1013+1)^(0+128),w
  2342  0047  00E3               	movwf	(main@event+1)^(0+128)
  2343  0048  085E               	movf	(main@F1013+2)^(0+128),w
  2344  0049  00E4               	movwf	(main@event+2)^(0+128)
  2345  004A                     l5203:
  2346  004A                     l5205:
  2347                           
  2348                           ;main.c: 33:     ext_eeprom_24C02_byte_write(0x04,'\0');
  2349  004A  01E9               	clrf	main@control_flag^(0+128)
  2350  004B  0AE9               	incf	main@control_flag^(0+128),f
  2351  004C                     l5207:
  2352                           
  2353                           ;main.c: 34: 
  2354  004C  01E5               	clrf	main@gr^(0+128)
  2355  004D                     l5209:
  2356                           
  2357                           ;main.c: 35:     while (1) {;main.c: 36: 
  2358  004D  01E1               	clrf	main@menu_pos^(0+128)
  2359  004E                     l5211:
  2360                           
  2361                           ;main.c: 37:         speed = read_adc() / 10;
  2362  004E  01E6               	clrf	main@wait_time^(0+128)
  2363  004F  01E7               	clrf	(main@wait_time+1)^(0+128)
  2364  0050                     l5213:
  2365                           
  2366                           ;main.c: 38:         if(speed > 99)
  2367  0050  160A  118A  231F  120A  118A  	fcall	_init_config
  2368  0055                     l5215:
  2369                           
  2370                           ;main.c: 39:         {
  2371  0055  30E2               	movlw	(low (main@event| 0))& (0+255)
  2372  0056  1283               	bcf	3,5	;RP0=0, select bank0
  2373  0057  1303               	bcf	3,6	;RP1=0, select bank0
  2374  0058  00A4               	movwf	log_car_event@event
  2375  0059  3000               	movlw	0
  2376  005A  00A5               	movwf	log_car_event@event+1
  2377  005B  01A6               	clrf	log_car_event@speed
  2378  005C  160A  118A  2579  120A  118A  	fcall	_log_car_event
  2379  0061                     l5217:
  2380                           
  2381                           ;main.c: 42: 
  2382  0061  3031               	movlw	49
  2383  0062  1283               	bcf	3,5	;RP0=0, select bank0
  2384  0063  1303               	bcf	3,6	;RP1=0, select bank0
  2385  0064  00C1               	movwf	??_main
  2386  0065  0841               	movf	??_main,w
  2387  0066  00F4               	movwf	ext_eeprom_24C02_byte_write@data
  2388  0067  3000               	movlw	0
  2389  0068  160A  158A  26E4  120A  118A  	fcall	_ext_eeprom_24C02_byte_write
  2390  006D                     l5219:
  2391                           
  2392                           ;main.c: 43:         key = read_digital_keypad();
  2393  006D  3031               	movlw	49
  2394  006E  1283               	bcf	3,5	;RP0=0, select bank0
  2395  006F  1303               	bcf	3,6	;RP1=0, select bank0
  2396  0070  00C1               	movwf	??_main
  2397  0071  0841               	movf	??_main,w
  2398  0072  00F4               	movwf	ext_eeprom_24C02_byte_write@data
  2399  0073  3001               	movlw	1
  2400  0074  160A  158A  26E4  120A  118A  	fcall	_ext_eeprom_24C02_byte_write
  2401  0079                     l5221:
  2402                           
  2403                           ;main.c: 44: 
  2404  0079  3031               	movlw	49
  2405  007A  1283               	bcf	3,5	;RP0=0, select bank0
  2406  007B  1303               	bcf	3,6	;RP1=0, select bank0
  2407  007C  00C1               	movwf	??_main
  2408  007D  0841               	movf	??_main,w
  2409  007E  00F4               	movwf	ext_eeprom_24C02_byte_write@data
  2410  007F  3002               	movlw	2
  2411  0080  160A  158A  26E4  120A  118A  	fcall	_ext_eeprom_24C02_byte_write
  2412  0085                     l5223:
  2413                           
  2414                           ;main.c: 45:         for(int i = 2000; i--; );
  2415  0085  3031               	movlw	49
  2416  0086  1283               	bcf	3,5	;RP0=0, select bank0
  2417  0087  1303               	bcf	3,6	;RP1=0, select bank0
  2418  0088  00C1               	movwf	??_main
  2419  0089  0841               	movf	??_main,w
  2420  008A  00F4               	movwf	ext_eeprom_24C02_byte_write@data
  2421  008B  3003               	movlw	3
  2422  008C  160A  158A  26E4  120A  118A  	fcall	_ext_eeprom_24C02_byte_write
  2423  0091                     l5225:
  2424                           
  2425                           ;main.c: 46: 
  2426  0091  01F4               	clrf	ext_eeprom_24C02_byte_write@data
  2427  0092  3004               	movlw	4
  2428  0093  160A  158A  26E4  120A  118A  	fcall	_ext_eeprom_24C02_byte_write
  2429  0098                     l5227:
  2430                           
  2431                           ;main.c: 50:             log_car_event(event,speed);
  2432  0098  300A               	movlw	10
  2433  0099  1283               	bcf	3,5	;RP0=0, select bank0
  2434  009A  1303               	bcf	3,6	;RP1=0, select bank0
  2435  009B  00A0               	movwf	___lwdiv@divisor
  2436  009C  3000               	movlw	0
  2437  009D  00A1               	movwf	___lwdiv@divisor+1
  2438  009E  160A  158A  2676  120A  118A  	fcall	_read_adc
  2439  00A3  0874               	movf	?_read_adc+1,w
  2440  00A4  1283               	bcf	3,5	;RP0=0, select bank0
  2441  00A5  1303               	bcf	3,6	;RP1=0, select bank0
  2442  00A6  00A3               	movwf	___lwdiv@dividend+1
  2443  00A7  0873               	movf	?_read_adc,w
  2444  00A8  00A2               	movwf	___lwdiv@dividend
  2445  00A9  160A  118A  23DC  120A  118A  	fcall	___lwdiv
  2446  00AE  1283               	bcf	3,5	;RP0=0, select bank0
  2447  00AF  1303               	bcf	3,6	;RP1=0, select bank0
  2448  00B0  0820               	movf	?___lwdiv,w
  2449  00B1  00C1               	movwf	??_main
  2450  00B2  0841               	movf	??_main,w
  2451  00B3  1683               	bsf	3,5	;RP0=1, select bank1
  2452  00B4  1303               	bcf	3,6	;RP1=0, select bank1
  2453  00B5  00E8               	movwf	main@speed^(0+128)
  2454  00B6                     l5229:
  2455                           
  2456                           ;main.c: 51:         }
  2457  00B6  3064               	movlw	100
  2458  00B7  0268               	subwf	main@speed^(0+128),w
  2459  00B8  1C03               	skipc
  2460  00B9  28BB               	goto	u4901
  2461  00BA  28BC               	goto	u4900
  2462  00BB                     u4901:
  2463  00BB  28C4               	goto	l5233
  2464  00BC                     u4900:
  2465  00BC                     l5231:
  2466                           
  2467                           ;main.c: 52: ;main.c: 53:         else if(key == 0x3D && gr < 6)
  2468  00BC  3063               	movlw	99
  2469  00BD  1283               	bcf	3,5	;RP0=0, select bank0
  2470  00BE  1303               	bcf	3,6	;RP1=0, select bank0
  2471  00BF  00C1               	movwf	??_main
  2472  00C0  0841               	movf	??_main,w
  2473  00C1  1683               	bsf	3,5	;RP0=1, select bank1
  2474  00C2  1303               	bcf	3,6	;RP1=0, select bank1
  2475  00C3  00E8               	movwf	main@speed^(0+128)
  2476  00C4                     l5233:
  2477                           
  2478                           ;main.c: 56:                 log_car_event(event,speed);
  2479  00C4  120A  158A  2033  120A  118A  	fcall	_read_digital_keypad
  2480  00C9  1283               	bcf	3,5	;RP0=0, select bank0
  2481  00CA  1303               	bcf	3,6	;RP1=0, select bank0
  2482  00CB  00C1               	movwf	??_main
  2483  00CC  0841               	movf	??_main,w
  2484  00CD  1683               	bsf	3,5	;RP0=1, select bank1
  2485  00CE  1303               	bcf	3,6	;RP1=0, select bank1
  2486  00CF  00EB               	movwf	main@key^(0+128)
  2487  00D0                     l5235:
  2488                           
  2489                           ;main.c: 58:         }
  2490  00D0  30D0               	movlw	208
  2491  00D1  00DF               	movwf	main@i^(0+128)
  2492  00D2  3007               	movlw	7
  2493  00D3  00E0               	movwf	(main@i^(0+128)+1)
  2494  00D4                     l5237:
  2495  00D4  30FF               	movlw	255
  2496  00D5  07DF               	addwf	main@i^(0+128),f
  2497  00D6  1803               	skipnc
  2498  00D7  0AE0               	incf	(main@i+1)^(0+128),f
  2499  00D8  30FF               	movlw	255
  2500  00D9  07E0               	addwf	(main@i+1)^(0+128),f
  2501  00DA  0A5F               	incf	main@i^(0+128),w
  2502  00DB  1D03               	skipz
  2503  00DC  28E1               	goto	u4911
  2504  00DD  0A60               	incf	(main@i+1)^(0+128),w
  2505  00DE  1D03               	btfss	3,2
  2506  00DF  28E1               	goto	u4911
  2507  00E0  28E2               	goto	u4910
  2508  00E1                     u4911:
  2509  00E1  28D4               	goto	l5237
  2510  00E2                     u4910:
  2511  00E2                     l5239:
  2512                           
  2513                           ;main.c: 60:        else if(key == 0x3B && gr > 0)
  2514  00E2  303E               	movlw	62
  2515  00E3  066B               	xorwf	main@key^(0+128),w
  2516  00E4  1D03               	btfss	3,2
  2517  00E5  28E7               	goto	u4921
  2518  00E6  28E8               	goto	u4920
  2519  00E7                     u4921:
  2520  00E7  2906               	goto	l5243
  2521  00E8                     u4920:
  2522  00E8                     l5241:
  2523                           
  2524                           ;main.c: 61:        {;main.c: 62:            gr--;
  2525  00E8  3081               	movlw	low (STR_40| (0+32768))
  2526  00E9  00F3               	movwf	strcpy@from
  2527  00EA  3091               	movlw	high (STR_40| (0+32768))
  2528  00EB  00F4               	movwf	strcpy@from+1
  2529  00EC  30E2               	movlw	(low (main@event| 0))& (0+255)
  2530  00ED  160A  158A  27AD  120A  118A  	fcall	_strcpy
  2531                           
  2532                           ;main.c: 63:            strcpy(event,gear[gr]);
  2533  00F2  30E2               	movlw	(low (main@event| 0))& (0+255)
  2534  00F3  1283               	bcf	3,5	;RP0=0, select bank0
  2535  00F4  1303               	bcf	3,6	;RP1=0, select bank0
  2536  00F5  00A4               	movwf	log_car_event@event
  2537  00F6  3000               	movlw	0
  2538  00F7  00A5               	movwf	log_car_event@event+1
  2539  00F8  1683               	bsf	3,5	;RP0=1, select bank1
  2540  00F9  1303               	bcf	3,6	;RP1=0, select bank1
  2541  00FA  0868               	movf	main@speed^(0+128),w
  2542  00FB  1283               	bcf	3,5	;RP0=0, select bank0
  2543  00FC  1303               	bcf	3,6	;RP1=0, select bank0
  2544  00FD  00C1               	movwf	??_main
  2545  00FE  0841               	movf	??_main,w
  2546  00FF  00A6               	movwf	log_car_event@speed
  2547  0100  160A  118A  2579  120A  118A  	fcall	_log_car_event
  2548                           
  2549                           ;main.c: 64:            log_car_event(event,speed);
  2550  0105  2CB2               	goto	l5427
  2551  0106                     l5243:
  2552  0106  303D               	movlw	61
  2553  0107  066B               	xorwf	main@key^(0+128),w
  2554  0108  1D03               	btfss	3,2
  2555  0109  290B               	goto	u4931
  2556  010A  290C               	goto	u4930
  2557  010B                     u4931:
  2558  010B  2942               	goto	l5251
  2559  010C                     u4930:
  2560  010C                     l5245:
  2561  010C  3006               	movlw	6
  2562  010D  0265               	subwf	main@gr^(0+128),w
  2563  010E  1803               	skipnc
  2564  010F  2911               	goto	u4941
  2565  0110  2912               	goto	u4940
  2566  0111                     u4941:
  2567  0111  2942               	goto	l5251
  2568  0112                     u4940:
  2569  0112                     l5247:
  2570                           
  2571                           ;main.c: 67:         else if((key == 0x37 || key == 0x2F) && (control_flag == 0x01));mai
      +                          n.c: 68:        {
  2572  0112  0865               	movf	main@gr^(0+128),w
  2573  0113  1283               	bcf	3,5	;RP0=0, select bank0
  2574  0114  1303               	bcf	3,6	;RP1=0, select bank0
  2575  0115  00C1               	movwf	??_main
  2576  0116  0741               	addwf	??_main,w
  2577  0117  3EC6               	addlw	(low (_gear| 0))& (0+255)
  2578  0118  0084               	movwf	4
  2579  0119  1383               	bcf	3,7	;select IRP bank1
  2580  011A  0800               	movf	0,w
  2581  011B  00F3               	movwf	strcpy@from
  2582  011C  0A84               	incf	4,f
  2583  011D  0800               	movf	0,w
  2584  011E  0384               	decf	4,f
  2585  011F  00F4               	movwf	strcpy@from+1
  2586  0120  30E2               	movlw	(low (main@event| 0))& (0+255)
  2587  0121  160A  158A  27AD  120A  118A  	fcall	_strcpy
  2588                           
  2589                           ;main.c: 69:            clcd_write(0x01, 0);
  2590  0126  30E2               	movlw	(low (main@event| 0))& (0+255)
  2591  0127  1283               	bcf	3,5	;RP0=0, select bank0
  2592  0128  1303               	bcf	3,6	;RP1=0, select bank0
  2593  0129  00A4               	movwf	log_car_event@event
  2594  012A  3000               	movlw	0
  2595  012B  00A5               	movwf	log_car_event@event+1
  2596  012C  1683               	bsf	3,5	;RP0=1, select bank1
  2597  012D  1303               	bcf	3,6	;RP1=0, select bank1
  2598  012E  0868               	movf	main@speed^(0+128),w
  2599  012F  1283               	bcf	3,5	;RP0=0, select bank0
  2600  0130  1303               	bcf	3,6	;RP1=0, select bank0
  2601  0131  00C1               	movwf	??_main
  2602  0132  0841               	movf	??_main,w
  2603  0133  00A6               	movwf	log_car_event@speed
  2604  0134  160A  118A  2579  120A  118A  	fcall	_log_car_event
  2605  0139                     l5249:
  2606                           
  2607                           ;main.c: 70:             _delay((unsigned long)((500)*(20000000/4000000.0)));
  2608  0139  3001               	movlw	1
  2609  013A  1283               	bcf	3,5	;RP0=0, select bank0
  2610  013B  1303               	bcf	3,6	;RP1=0, select bank0
  2611  013C  00C1               	movwf	??_main
  2612  013D  0841               	movf	??_main,w
  2613  013E  1683               	bsf	3,5	;RP0=1, select bank1
  2614  013F  1303               	bcf	3,6	;RP1=0, select bank1
  2615  0140  07E5               	addwf	main@gr^(0+128),f
  2616                           
  2617                           ;main.c: 71:            clcd_print(" ENTER PASSWORD ",(0x80 + 0));
  2618  0141  2CB2               	goto	l5427
  2619  0142                     l5251:
  2620  0142  303B               	movlw	59
  2621  0143  066B               	xorwf	main@key^(0+128),w
  2622  0144  1D03               	btfss	3,2
  2623  0145  2947               	goto	u4951
  2624  0146  2948               	goto	u4950
  2625  0147                     u4951:
  2626  0147  2977               	goto	l5261
  2627  0148                     u4950:
  2628  0148                     l5253:
  2629  0148  0865               	movf	main@gr^(0+128),w
  2630  0149  1903               	btfsc	3,2
  2631  014A  294C               	goto	u4961
  2632  014B  294D               	goto	u4960
  2633  014C                     u4961:
  2634  014C  2977               	goto	l5261
  2635  014D                     u4960:
  2636  014D                     l5255:
  2637                           
  2638                           ;main.c: 74:            _delay((unsigned long)((100)*(20000000/4000000.0)));;main.c: 75:
      +                                      control_flag = 0x02;
  2639  014D  3001               	movlw	1
  2640  014E  02E5               	subwf	main@gr^(0+128),f
  2641  014F                     l5257:
  2642                           
  2643                           ;main.c: 76:            reset_flag = 0x01;
  2644  014F  0865               	movf	main@gr^(0+128),w
  2645  0150  1283               	bcf	3,5	;RP0=0, select bank0
  2646  0151  1303               	bcf	3,6	;RP1=0, select bank0
  2647  0152  00C1               	movwf	??_main
  2648  0153  0741               	addwf	??_main,w
  2649  0154  3EC6               	addlw	(low (_gear| 0))& (0+255)
  2650  0155  0084               	movwf	4
  2651  0156  1383               	bcf	3,7	;select IRP bank1
  2652  0157  0800               	movf	0,w
  2653  0158  00F3               	movwf	strcpy@from
  2654  0159  0A84               	incf	4,f
  2655  015A  0800               	movf	0,w
  2656  015B  0384               	decf	4,f
  2657  015C  00F4               	movwf	strcpy@from+1
  2658  015D  30E2               	movlw	(low (main@event| 0))& (0+255)
  2659  015E  160A  158A  27AD  120A  118A  	fcall	_strcpy
  2660  0163                     l5259:
  2661                           
  2662                           ;main.c: 77:            TMR2ON = 1;
  2663  0163  30E2               	movlw	(low (main@event| 0))& (0+255)
  2664  0164  1283               	bcf	3,5	;RP0=0, select bank0
  2665  0165  1303               	bcf	3,6	;RP1=0, select bank0
  2666  0166  00A4               	movwf	log_car_event@event
  2667  0167  3000               	movlw	0
  2668  0168  00A5               	movwf	log_car_event@event+1
  2669  0169  1683               	bsf	3,5	;RP0=1, select bank1
  2670  016A  1303               	bcf	3,6	;RP1=0, select bank1
  2671  016B  0868               	movf	main@speed^(0+128),w
  2672  016C  1283               	bcf	3,5	;RP0=0, select bank0
  2673  016D  1303               	bcf	3,6	;RP1=0, select bank0
  2674  016E  00C1               	movwf	??_main
  2675  016F  0841               	movf	??_main,w
  2676  0170  00A6               	movwf	log_car_event@speed
  2677  0171  160A  118A  2579  120A  118A  	fcall	_log_car_event
  2678                           
  2679                           ;main.c: 78:        }
  2680  0176  2CB2               	goto	l5427
  2681  0177                     l5261:
  2682  0177  3037               	movlw	55
  2683  0178  066B               	xorwf	main@key^(0+128),w
  2684  0179  1903               	btfsc	3,2
  2685  017A  297C               	goto	u4971
  2686  017B  297D               	goto	u4970
  2687  017C                     u4971:
  2688  017C  2983               	goto	l5265
  2689  017D                     u4970:
  2690  017D                     l5263:
  2691  017D  302F               	movlw	47
  2692  017E  066B               	xorwf	main@key^(0+128),w
  2693  017F  1D03               	btfss	3,2
  2694  0180  2982               	goto	u4981
  2695  0181  2983               	goto	u4980
  2696  0182                     u4981:
  2697  0182  29D0               	goto	l5285
  2698  0183                     u4980:
  2699  0183                     l5265:
  2700  0183  0369               	decf	main@control_flag^(0+128),w
  2701  0184  1D03               	btfss	3,2
  2702  0185  2987               	goto	u4991
  2703  0186  2988               	goto	u4990
  2704  0187                     u4991:
  2705  0187  29D0               	goto	l5285
  2706  0188                     u4990:
  2707  0188                     l5267:
  2708                           
  2709                           ;main.c: 81:   {;main.c: 82: 
  2710  0188  01F3               	clrf	clcd_write@mode
  2711  0189  3001               	movlw	1
  2712  018A  160A  118A  2277  120A  118A  	fcall	_clcd_write
  2713  018F                     l5269:
  2714                           
  2715                           ;main.c: 83: 
  2716  018F  3004               	movlw	4
  2717  0190  1283               	bcf	3,5	;RP0=0, select bank0
  2718  0191  1303               	bcf	3,6	;RP1=0, select bank0
  2719  0192  00C2               	movwf	??_main+1
  2720  0193  303D               	movlw	61
  2721  0194  00C1               	movwf	??_main
  2722  0195                     u5167:
  2723  0195  0BC1               	decfsz	??_main,f
  2724  0196  2995               	goto	u5167
  2725  0197  0BC2               	decfsz	??_main+1,f
  2726  0198  2995               	goto	u5167
  2727  0199                     l5271:
  2728                           
  2729                           ;main.c: 84:    switch ( menu_pos )
  2730  0199  305C               	movlw	low (STR_11| (0+32768))
  2731  019A  1283               	bcf	3,5	;RP0=0, select bank0
  2732  019B  1303               	bcf	3,6	;RP1=0, select bank0
  2733  019C  00A0               	movwf	clcd_print@str
  2734  019D  3090               	movlw	high (STR_11| (0+32768))
  2735  019E  00A1               	movwf	clcd_print@str+1
  2736  019F  3080               	movlw	128
  2737  01A0  00C1               	movwf	??_main
  2738  01A1  0841               	movf	??_main,w
  2739  01A2  00A2               	movwf	clcd_print@addr
  2740  01A3  160A  118A  2210  120A  118A  	fcall	_clcd_print
  2741  01A8                     l5273:
  2742                           
  2743                           ;main.c: 85:    {
  2744  01A8  30C6               	movlw	198
  2745  01A9  1283               	bcf	3,5	;RP0=0, select bank0
  2746  01AA  1303               	bcf	3,6	;RP1=0, select bank0
  2747  01AB  00C1               	movwf	??_main
  2748  01AC  0841               	movf	??_main,w
  2749  01AD  00A7               	movwf	clcd_putch@addr
  2750  01AE  3020               	movlw	32
  2751  01AF  160A  158A  269B  120A  118A  	fcall	_clcd_putch
  2752  01B4                     l5275:
  2753                           
  2754                           ;main.c: 86:     case 0:
  2755  01B4  01F3               	clrf	clcd_write@mode
  2756  01B5  300F               	movlw	15
  2757  01B6  160A  118A  2277  120A  118A  	fcall	_clcd_write
  2758  01BB                     l5277:
  2759                           
  2760                           ;main.c: 87:      clcd_write(0x01,0);
  2761  01BB  30A5               	movlw	165
  2762  01BC  1283               	bcf	3,5	;RP0=0, select bank0
  2763  01BD  1303               	bcf	3,6	;RP1=0, select bank0
  2764  01BE  00C1               	movwf	??_main
  2765  01BF                     u5177:
  2766  01BF  0BC1               	decfsz	??_main,f
  2767  01C0  29BF               	goto	u5177
  2768  01C1  29C2               	nop2
  2769  01C2                     l5279:
  2770                           
  2771                           ;main.c: 88:      clcd_print("Logs",(0x80 + 0));
  2772  01C2  3002               	movlw	2
  2773  01C3  1283               	bcf	3,5	;RP0=0, select bank0
  2774  01C4  1303               	bcf	3,6	;RP1=0, select bank0
  2775  01C5  00C1               	movwf	??_main
  2776  01C6  0841               	movf	??_main,w
  2777  01C7  1683               	bsf	3,5	;RP0=1, select bank1
  2778  01C8  1303               	bcf	3,6	;RP1=0, select bank1
  2779  01C9  00E9               	movwf	main@control_flag^(0+128)
  2780  01CA                     l5281:
  2781                           
  2782                           ;main.c: 89:      control_flag = 0x08;
  2783  01CA  01EA               	clrf	main@reset_flag^(0+128)
  2784  01CB  0AEA               	incf	main@reset_flag^(0+128),f
  2785  01CC                     l5283:
  2786                           
  2787                           ;main.c: 90:      reset_flag = 0x08 ;
  2788  01CC  1283               	bcf	3,5	;RP0=0, select bank0
  2789  01CD  1303               	bcf	3,6	;RP1=0, select bank0
  2790  01CE  1512               	bsf	18,2	;volatile
  2791                           
  2792                           ;main.c: 91:      break;
  2793  01CF  2CB2               	goto	l5427
  2794  01D0                     l5285:
  2795  01D0  3011               	movlw	17
  2796  01D1  066B               	xorwf	main@key^(0+128),w
  2797  01D2  1D03               	btfss	3,2
  2798  01D3  29D5               	goto	u5001
  2799  01D4  29D6               	goto	u5000
  2800  01D5                     u5001:
  2801  01D5  2AAF               	goto	l5335
  2802  01D6                     u5000:
  2803  01D6                     l5287:
  2804  01D6  3004               	movlw	4
  2805  01D7  0669               	xorwf	main@control_flag^(0+128),w
  2806  01D8  1D03               	btfss	3,2
  2807  01D9  29DB               	goto	u5011
  2808  01DA  29DC               	goto	u5010
  2809  01DB                     u5011:
  2810  01DB  2AAF               	goto	l5335
  2811  01DC                     u5010:
  2812  01DC  2A94               	goto	l5333
  2813  01DD                     l5291:
  2814                           
  2815                           ;main.c: 100:                     clcd_write(0x01,0);
  2816  01DD  01F3               	clrf	clcd_write@mode
  2817  01DE  3001               	movlw	1
  2818  01DF  160A  118A  2277  120A  118A  	fcall	_clcd_write
  2819  01E4                     l5293:
  2820                           
  2821                           ;main.c: 101:      control_flag = 0x04;
  2822  01E4  307C               	movlw	low (STR_42| (0+32768))
  2823  01E5  1283               	bcf	3,5	;RP0=0, select bank0
  2824  01E6  1303               	bcf	3,6	;RP1=0, select bank0
  2825  01E7  00A0               	movwf	clcd_print@str
  2826  01E8  3091               	movlw	high (STR_42| (0+32768))
  2827  01E9  00A1               	movwf	clcd_print@str+1
  2828  01EA  3080               	movlw	128
  2829  01EB  00C1               	movwf	??_main
  2830  01EC  0841               	movf	??_main,w
  2831  01ED  00A2               	movwf	clcd_print@addr
  2832  01EE  160A  118A  2210  120A  118A  	fcall	_clcd_print
  2833  01F3                     l5295:
  2834                           
  2835                           ;main.c: 102:      reset_flag = 0x05;
  2836  01F3  3008               	movlw	8
  2837  01F4  1283               	bcf	3,5	;RP0=0, select bank0
  2838  01F5  1303               	bcf	3,6	;RP1=0, select bank0
  2839  01F6  00C1               	movwf	??_main
  2840  01F7  0841               	movf	??_main,w
  2841  01F8  1683               	bsf	3,5	;RP0=1, select bank1
  2842  01F9  1303               	bcf	3,6	;RP1=0, select bank1
  2843  01FA  00E9               	movwf	main@control_flag^(0+128)
  2844  01FB                     l5297:
  2845                           
  2846                           ;main.c: 103:      break;
  2847  01FB  3008               	movlw	8
  2848  01FC  1283               	bcf	3,5	;RP0=0, select bank0
  2849  01FD  1303               	bcf	3,6	;RP1=0, select bank0
  2850  01FE  00C1               	movwf	??_main
  2851  01FF  0841               	movf	??_main,w
  2852  0200  1683               	bsf	3,5	;RP0=1, select bank1
  2853  0201  1303               	bcf	3,6	;RP1=0, select bank1
  2854  0202  00EA               	movwf	main@reset_flag^(0+128)
  2855                           
  2856                           ;main.c: 104:     case 3 :
  2857  0203  2CB2               	goto	l5427
  2858  0204                     l5299:
  2859                           
  2860                           ;main.c: 106:      clcd_write(0x01,0);
  2861  0204  01F3               	clrf	clcd_write@mode
  2862  0205  3001               	movlw	1
  2863  0206  160A  118A  2277  120A  118A  	fcall	_clcd_write
  2864  020B                     l5301:
  2865                           
  2866                           ;main.c: 107:      control_flag = 0x40;
  2867  020B  3010               	movlw	16
  2868  020C  1283               	bcf	3,5	;RP0=0, select bank0
  2869  020D  1303               	bcf	3,6	;RP1=0, select bank0
  2870  020E  00C1               	movwf	??_main
  2871  020F  0841               	movf	??_main,w
  2872  0210  1683               	bsf	3,5	;RP0=1, select bank1
  2873  0211  1303               	bcf	3,6	;RP1=0, select bank1
  2874  0212  00E9               	movwf	main@control_flag^(0+128)
  2875  0213                     l5303:
  2876                           
  2877                           ;main.c: 108:      reset_flag = 0x10;
  2878  0213  3004               	movlw	4
  2879  0214  1283               	bcf	3,5	;RP0=0, select bank0
  2880  0215  1303               	bcf	3,6	;RP1=0, select bank0
  2881  0216  00C1               	movwf	??_main
  2882  0217  0841               	movf	??_main,w
  2883  0218  1683               	bsf	3,5	;RP0=1, select bank1
  2884  0219  1303               	bcf	3,6	;RP1=0, select bank1
  2885  021A  00EA               	movwf	main@reset_flag^(0+128)
  2886                           
  2887                           ;main.c: 109:      break;
  2888  021B  2CB2               	goto	l5427
  2889  021C                     l5305:
  2890                           
  2891                           ;main.c: 111:      log_car_event("CP",speed);
  2892  021C  3093               	movlw	low (STR_43| (0+32768))
  2893  021D  00A4               	movwf	log_car_event@event
  2894  021E  3091               	movlw	high (STR_43| (0+32768))
  2895  021F  00A5               	movwf	log_car_event@event+1
  2896  0220  1683               	bsf	3,5	;RP0=1, select bank1
  2897  0221  1303               	bcf	3,6	;RP1=0, select bank1
  2898  0222  0868               	movf	main@speed^(0+128),w
  2899  0223  1283               	bcf	3,5	;RP0=0, select bank0
  2900  0224  1303               	bcf	3,6	;RP1=0, select bank0
  2901  0225  00C1               	movwf	??_main
  2902  0226  0841               	movf	??_main,w
  2903  0227  00A6               	movwf	log_car_event@speed
  2904  0228  160A  118A  2579  120A  118A  	fcall	_log_car_event
  2905                           
  2906                           ;main.c: 112:      clcd_write(0x01,0);
  2907  022D  120A  118A  2692  120A  118A  	fcall	_download_log
  2908  0232                     l5307:
  2909                           
  2910                           ;main.c: 113:      control_flag = 0x80;
  2911  0232  01F3               	clrf	clcd_write@mode
  2912  0233  3001               	movlw	1
  2913  0234  160A  118A  2277  120A  118A  	fcall	_clcd_write
  2914  0239                     l5309:
  2915                           
  2916                           ;main.c: 114:      reset_flag = 0x01;
  2917  0239  3004               	movlw	4
  2918  023A  1283               	bcf	3,5	;RP0=0, select bank0
  2919  023B  1303               	bcf	3,6	;RP1=0, select bank0
  2920  023C  00C1               	movwf	??_main
  2921  023D  0841               	movf	??_main,w
  2922  023E  1683               	bsf	3,5	;RP0=1, select bank1
  2923  023F  1303               	bcf	3,6	;RP1=0, select bank1
  2924  0240  00E9               	movwf	main@control_flag^(0+128)
  2925  0241                     l5311:
  2926                           
  2927                           ;main.c: 115:      0x0F;
  2928  0241  3005               	movlw	5
  2929  0242  1283               	bcf	3,5	;RP0=0, select bank0
  2930  0243  1303               	bcf	3,6	;RP1=0, select bank0
  2931  0244  00C1               	movwf	??_main
  2932  0245  0841               	movf	??_main,w
  2933  0246  1683               	bsf	3,5	;RP0=1, select bank1
  2934  0247  1303               	bcf	3,6	;RP1=0, select bank1
  2935  0248  00EA               	movwf	main@reset_flag^(0+128)
  2936                           
  2937                           ;main.c: 116:      TMR2ON = 1;
  2938  0249  2CB2               	goto	l5427
  2939  024A                     l5313:
  2940                           
  2941                           ;main.c: 118: 
  2942  024A  309F               	movlw	low (STR_44| (0+32768))
  2943  024B  00A4               	movwf	log_car_event@event
  2944  024C  3091               	movlw	high (STR_44| (0+32768))
  2945  024D  00A5               	movwf	log_car_event@event+1
  2946  024E  1683               	bsf	3,5	;RP0=1, select bank1
  2947  024F  1303               	bcf	3,6	;RP1=0, select bank1
  2948  0250  0868               	movf	main@speed^(0+128),w
  2949  0251  1283               	bcf	3,5	;RP0=0, select bank0
  2950  0252  1303               	bcf	3,6	;RP1=0, select bank0
  2951  0253  00C1               	movwf	??_main
  2952  0254  0841               	movf	??_main,w
  2953  0255  00A6               	movwf	log_car_event@speed
  2954  0256  160A  118A  2579  120A  118A  	fcall	_log_car_event
  2955  025B                     l5315:
  2956                           
  2957                           ;main.c: 119:    }
  2958  025B  01F3               	clrf	clcd_write@mode
  2959  025C  3001               	movlw	1
  2960  025D  160A  118A  2277  120A  118A  	fcall	_clcd_write
  2961  0262                     l5317:
  2962                           
  2963                           ;main.c: 120: 
  2964  0262  3040               	movlw	64
  2965  0263  1283               	bcf	3,5	;RP0=0, select bank0
  2966  0264  1303               	bcf	3,6	;RP1=0, select bank0
  2967  0265  00C1               	movwf	??_main
  2968  0266  0841               	movf	??_main,w
  2969  0267  1683               	bsf	3,5	;RP0=1, select bank1
  2970  0268  1303               	bcf	3,6	;RP1=0, select bank1
  2971  0269  00E9               	movwf	main@control_flag^(0+128)
  2972  026A                     l5319:
  2973                           
  2974                           ;main.c: 121:   }
  2975  026A  3010               	movlw	16
  2976  026B  1283               	bcf	3,5	;RP0=0, select bank0
  2977  026C  1303               	bcf	3,6	;RP1=0, select bank0
  2978  026D  00C1               	movwf	??_main
  2979  026E  0841               	movf	??_main,w
  2980  026F  1683               	bsf	3,5	;RP0=1, select bank1
  2981  0270  1303               	bcf	3,6	;RP1=0, select bank1
  2982  0271  00EA               	movwf	main@reset_flag^(0+128)
  2983                           
  2984                           ;main.c: 122:         else if ( key == 0x22 && (control_flag == 0x04 ||control_flag == 0
      +                          x08))
  2985  0272  2CB2               	goto	l5427
  2986  0273                     l5321:
  2987                           
  2988                           ;main.c: 124:                 control_flag = 0x01;
  2989  0273  3099               	movlw	low (STR_45| (0+32768))
  2990  0274  00A4               	movwf	log_car_event@event
  2991  0275  3091               	movlw	high (STR_45| (0+32768))
  2992  0276  00A5               	movwf	log_car_event@event+1
  2993  0277  1683               	bsf	3,5	;RP0=1, select bank1
  2994  0278  1303               	bcf	3,6	;RP1=0, select bank1
  2995  0279  0868               	movf	main@speed^(0+128),w
  2996  027A  1283               	bcf	3,5	;RP0=0, select bank0
  2997  027B  1303               	bcf	3,6	;RP1=0, select bank0
  2998  027C  00C1               	movwf	??_main
  2999  027D  0841               	movf	??_main,w
  3000  027E  00A6               	movwf	log_car_event@speed
  3001  027F  160A  118A  2579  120A  118A  	fcall	_log_car_event
  3002  0284                     l5323:
  3003                           
  3004                           ;main.c: 125:                 clcd_write(0x01, 0);
  3005  0284  01F3               	clrf	clcd_write@mode
  3006  0285  3001               	movlw	1
  3007  0286  160A  118A  2277  120A  118A  	fcall	_clcd_write
  3008  028B                     l5325:
  3009                           
  3010                           ;main.c: 126:             }
  3011  028B  3080               	movlw	128
  3012  028C  1283               	bcf	3,5	;RP0=0, select bank0
  3013  028D  1303               	bcf	3,6	;RP1=0, select bank0
  3014  028E  00C1               	movwf	??_main
  3015  028F  0841               	movf	??_main,w
  3016  0290  1683               	bsf	3,5	;RP0=1, select bank1
  3017  0291  1303               	bcf	3,6	;RP1=0, select bank1
  3018  0292  00E9               	movwf	main@control_flag^(0+128)
  3019  0293  29CA               	goto	l5281
  3020  0294                     l5333:
  3021  0294  0861               	movf	main@menu_pos^(0+128),w
  3022  0295  1283               	bcf	3,5	;RP0=0, select bank0
  3023  0296  1303               	bcf	3,6	;RP1=0, select bank0
  3024  0297  00C1               	movwf	??_main
  3025  0298  01C2               	clrf	??_main+1
  3026                           
  3027                           ; Switch on 2 bytes has been partitioned into a top level switch of size 1, and 1 sub-sw
      +                          itches
  3028                           ; Switch size 1, requested type "simple"
  3029                           ; Number of cases is 1, Range of values is 0 to 0
  3030                           ; switch strategies available:
  3031                           ; Name         Instructions Cycles
  3032                           ; simple_byte            4     3 (average)
  3033                           ; direct_byte           11     8 (fixed)
  3034                           ; jumptable            260     6 (fixed)
  3035                           ;	Chosen strategy is simple_byte
  3036  0299  0842               	movf	??_main+1,w
  3037  029A  3A00               	xorlw	0	; case 0
  3038  029B  1903               	skipnz
  3039  029C  2A9E               	goto	l5625
  3040  029D  2CB2               	goto	l5427
  3041  029E                     l5625:
  3042                           
  3043                           ; Switch size 1, requested type "simple"
  3044                           ; Number of cases is 5, Range of values is 0 to 4
  3045                           ; switch strategies available:
  3046                           ; Name         Instructions Cycles
  3047                           ; simple_byte           16     9 (average)
  3048                           ; direct_byte           23     8 (fixed)
  3049                           ; jumptable            260     6 (fixed)
  3050                           ;	Chosen strategy is simple_byte
  3051  029E  0841               	movf	??_main,w
  3052  029F  3A00               	xorlw	0	; case 0
  3053  02A0  1903               	skipnz
  3054  02A1  29DD               	goto	l5291
  3055  02A2  3A01               	xorlw	1	; case 1
  3056  02A3  1903               	skipnz
  3057  02A4  2A04               	goto	l5299
  3058  02A5  3A03               	xorlw	3	; case 2
  3059  02A6  1903               	skipnz
  3060  02A7  2A1C               	goto	l5305
  3061  02A8  3A01               	xorlw	1	; case 3
  3062  02A9  1903               	skipnz
  3063  02AA  2A4A               	goto	l5313
  3064  02AB  3A07               	xorlw	7	; case 4
  3065  02AC  1903               	skipnz
  3066  02AD  2A73               	goto	l5321
  3067  02AE  2CB2               	goto	l5427
  3068  02AF                     l5335:
  3069  02AF  3022               	movlw	34
  3070  02B0  066B               	xorwf	main@key^(0+128),w
  3071  02B1  1D03               	btfss	3,2
  3072  02B2  2AB4               	goto	u5021
  3073  02B3  2AB5               	goto	u5020
  3074  02B4                     u5021:
  3075  02B4  2ACB               	goto	l5343
  3076  02B5                     u5020:
  3077  02B5                     l5337:
  3078  02B5  3004               	movlw	4
  3079  02B6  0669               	xorwf	main@control_flag^(0+128),w
  3080  02B7  1903               	btfsc	3,2
  3081  02B8  2ABA               	goto	u5031
  3082  02B9  2ABB               	goto	u5030
  3083  02BA                     u5031:
  3084  02BA  2AC1               	goto	l372
  3085  02BB                     u5030:
  3086  02BB                     l5339:
  3087  02BB  3008               	movlw	8
  3088  02BC  0669               	xorwf	main@control_flag^(0+128),w
  3089  02BD  1D03               	btfss	3,2
  3090  02BE  2AC0               	goto	u5041
  3091  02BF  2AC1               	goto	u5040
  3092  02C0                     u5041:
  3093  02C0  2ACB               	goto	l5343
  3094  02C1                     u5040:
  3095  02C1                     l372:
  3096                           
  3097                           ;main.c: 136:                 clcd_write(0x0C, 0);;main.c: 137:                 _delay((
      +                          unsigned long)((100)*(20000000/4000000.0)));
  3098  02C1  01E9               	clrf	main@control_flag^(0+128)
  3099  02C2  0AE9               	incf	main@control_flag^(0+128),f
  3100  02C3                     l5341:
  3101                           
  3102                           ;main.c: 138:                 display_dash_board(event,speed);
  3103  02C3  01F3               	clrf	clcd_write@mode
  3104  02C4  3001               	movlw	1
  3105  02C5  160A  118A  2277  120A  118A  	fcall	_clcd_write
  3106                           
  3107                           ;main.c: 139:                 break;
  3108  02CA  2CB2               	goto	l5427
  3109  02CB                     l5343:
  3110  02CB  3011               	movlw	17
  3111  02CC  066B               	xorwf	main@key^(0+128),w
  3112  02CD  1D03               	btfss	3,2
  3113  02CE  2AD0               	goto	u5051
  3114  02CF  2AD1               	goto	u5050
  3115  02D0                     u5051:
  3116  02D0  2AE7               	goto	l360
  3117  02D1                     u5050:
  3118  02D1                     l5345:
  3119  02D1  3008               	movlw	8
  3120  02D2  0669               	xorwf	main@control_flag^(0+128),w
  3121  02D3  1D03               	btfss	3,2
  3122  02D4  2AD6               	goto	u5061
  3123  02D5  2AD7               	goto	u5060
  3124  02D6                     u5061:
  3125  02D6  2AE7               	goto	l360
  3126  02D7                     u5060:
  3127  02D7                     l5347:
  3128                           
  3129                           ;main.c: 141:             case 0x02:;main.c: 142:                switch ( login( key, re
      +                          set_flag))
  3130  02D7  3004               	movlw	4
  3131  02D8  1283               	bcf	3,5	;RP0=0, select bank0
  3132  02D9  1303               	bcf	3,6	;RP1=0, select bank0
  3133  02DA  00C1               	movwf	??_main
  3134  02DB  0841               	movf	??_main,w
  3135  02DC  1683               	bsf	3,5	;RP0=1, select bank1
  3136  02DD  1303               	bcf	3,6	;RP1=0, select bank1
  3137  02DE  00E9               	movwf	main@control_flag^(0+128)
  3138  02DF                     l5349:
  3139                           
  3140                           ;main.c: 143:                {
  3141  02DF  01F3               	clrf	clcd_write@mode
  3142  02E0  3001               	movlw	1
  3143  02E1  160A  118A  2277  120A  118A  	fcall	_clcd_write
  3144  02E6  2CB2               	goto	l5427
  3145  02E7                     l360:
  3146  02E7  2CB2               	goto	l5427
  3147  02E8                     l5351:
  3148                           
  3149                           ;main.c: 149:                        clcd_write(0x0C, 0);
  3150  02E8  01F3               	clrf	clcd_write@mode
  3151  02E9  300C               	movlw	12
  3152  02EA  160A  118A  2277  120A  118A  	fcall	_clcd_write
  3153  02EF                     l5353:
  3154                           
  3155                           ;main.c: 150:                         _delay((unsigned long)((100)*(20000000/4000000.0))
      +                          );
  3156  02EF  30A5               	movlw	165
  3157  02F0  1283               	bcf	3,5	;RP0=0, select bank0
  3158  02F1  1303               	bcf	3,6	;RP1=0, select bank0
  3159  02F2  00C1               	movwf	??_main
  3160  02F3                     u5187:
  3161  02F3  0BC1               	decfsz	??_main,f
  3162  02F4  2AF3               	goto	u5187
  3163  02F5  2AF6               	nop2
  3164  02F6                     l5355:
  3165                           
  3166                           ;main.c: 151:                         break;
  3167  02F6  1683               	bsf	3,5	;RP0=1, select bank1
  3168  02F7  1303               	bcf	3,6	;RP1=0, select bank1
  3169  02F8  0868               	movf	main@speed^(0+128),w
  3170  02F9  1283               	bcf	3,5	;RP0=0, select bank0
  3171  02FA  1303               	bcf	3,6	;RP1=0, select bank0
  3172  02FB  00C1               	movwf	??_main
  3173  02FC  0841               	movf	??_main,w
  3174  02FD  00AA               	movwf	display_dash_board@speed
  3175  02FE  30E2               	movlw	(low (main@event| 0))& (0+255)
  3176  02FF  160A  118A  251A  120A  118A  	fcall	_display_dash_board
  3177                           
  3178                           ;main.c: 152: 
  3179  0304  2CD5               	goto	l5429
  3180  0305                     l5357:
  3181                           
  3182                           ;main.c: 158:                        break;
  3183  0305  3004               	movlw	4
  3184  0306  00C1               	movwf	??_main
  3185  0307  0841               	movf	??_main,w
  3186  0308  1683               	bsf	3,5	;RP0=1, select bank1
  3187  0309  1303               	bcf	3,6	;RP1=0, select bank1
  3188  030A  00E9               	movwf	main@control_flag^(0+128)
  3189                           
  3190                           ;main.c: 159: 
  3191  030B  3005               	movlw	5
  3192  030C  1283               	bcf	3,5	;RP0=0, select bank0
  3193  030D  1303               	bcf	3,6	;RP1=0, select bank0
  3194  030E  00C1               	movwf	??_main
  3195  030F  0841               	movf	??_main,w
  3196  0310  1683               	bsf	3,5	;RP0=1, select bank1
  3197  0311  1303               	bcf	3,6	;RP1=0, select bank1
  3198  0312  00EA               	movwf	main@reset_flag^(0+128)
  3199  0313                     l5359:
  3200                           
  3201                           ;main.c: 160:                 }
  3202  0313  01F3               	clrf	clcd_write@mode
  3203  0314  3001               	movlw	1
  3204  0315  160A  118A  2277  120A  118A  	fcall	_clcd_write
  3205  031A                     l5361:
  3206                           
  3207                           ;main.c: 161:                break;
  3208  031A  3004               	movlw	4
  3209  031B  1283               	bcf	3,5	;RP0=0, select bank0
  3210  031C  1303               	bcf	3,6	;RP1=0, select bank0
  3211  031D  00C2               	movwf	??_main+1
  3212  031E  303D               	movlw	61
  3213  031F  00C1               	movwf	??_main
  3214  0320                     u5197:
  3215  0320  0BC1               	decfsz	??_main,f
  3216  0321  2B20               	goto	u5197
  3217  0322  0BC2               	decfsz	??_main+1,f
  3218  0323  2B20               	goto	u5197
  3219                           
  3220                           ;main.c: 162:             case 0x04:
  3221  0324  01F3               	clrf	clcd_write@mode
  3222  0325  300C               	movlw	12
  3223  0326  160A  118A  2277  120A  118A  	fcall	_clcd_write
  3224  032B                     l5363:
  3225                           
  3226                           ;main.c: 163: 
  3227  032B  30A5               	movlw	165
  3228  032C  1283               	bcf	3,5	;RP0=0, select bank0
  3229  032D  1303               	bcf	3,6	;RP1=0, select bank0
  3230  032E  00C1               	movwf	??_main
  3231  032F                     u5207:
  3232  032F  0BC1               	decfsz	??_main,f
  3233  0330  2B2F               	goto	u5207
  3234  0331  2B32               	nop2
  3235                           
  3236                           ;main.c: 164:                 menu_pos = login_menu(key,reset_flag);
  3237  0332  2CD5               	goto	l5429
  3238  0333                     l382:	
  3239                           ;main.c: 166: 
  3240                           
  3241                           
  3242                           ;main.c: 167:             case 0x08 :
  3243  0333  1683               	bsf	3,5	;RP0=1, select bank1
  3244  0334  1303               	bcf	3,6	;RP1=0, select bank1
  3245  0335  01E9               	clrf	main@control_flag^(0+128)
  3246  0336  0AE9               	incf	main@control_flag^(0+128),f
  3247                           
  3248                           ;main.c: 168: 
  3249  0337  1283               	bcf	3,5	;RP0=0, select bank0
  3250  0338  1303               	bcf	3,6	;RP1=0, select bank0
  3251  0339  1112               	bcf	18,2	;volatile
  3252  033A                     l5365:
  3253                           
  3254                           ;main.c: 169:     view_log(key, reset_flag);
  3255  033A  01F3               	clrf	clcd_write@mode
  3256  033B  300C               	movlw	12
  3257  033C  160A  118A  2277  120A  118A  	fcall	_clcd_write
  3258  0341  2B2B               	goto	l5363
  3259  0342                     l5371:
  3260  0342  1683               	bsf	3,5	;RP0=1, select bank1
  3261  0343  1303               	bcf	3,6	;RP1=0, select bank1
  3262  0344  086A               	movf	main@reset_flag^(0+128),w
  3263  0345  1283               	bcf	3,5	;RP0=0, select bank0
  3264  0346  1303               	bcf	3,6	;RP1=0, select bank0
  3265  0347  00C1               	movwf	??_main
  3266  0348  0841               	movf	??_main,w
  3267  0349  00A9               	movwf	login@reset_flag
  3268  034A  1683               	bsf	3,5	;RP0=1, select bank1
  3269  034B  1303               	bcf	3,6	;RP1=0, select bank1
  3270  034C  086B               	movf	main@key^(0+128),w
  3271  034D  120A  158A  2336  120A  118A  	fcall	_login
  3272  0352  1283               	bcf	3,5	;RP0=0, select bank0
  3273  0353  1303               	bcf	3,6	;RP1=0, select bank0
  3274  0354  00C2               	movwf	??_main+1
  3275  0355  01C3               	clrf	??_main+2
  3276                           
  3277                           ; Switch on 2 bytes has been partitioned into a top level switch of size 1, and 1 sub-sw
      +                          itches
  3278                           ; Switch size 1, requested type "simple"
  3279                           ; Number of cases is 1, Range of values is 0 to 0
  3280                           ; switch strategies available:
  3281                           ; Name         Instructions Cycles
  3282                           ; simple_byte            4     3 (average)
  3283                           ; direct_byte           11     8 (fixed)
  3284                           ; jumptable            260     6 (fixed)
  3285                           ;	Chosen strategy is simple_byte
  3286  0356  0843               	movf	??_main+2,w
  3287  0357  3A00               	xorlw	0	; case 0
  3288  0358  1903               	skipnz
  3289  0359  2B5B               	goto	l5627
  3290  035A  2CD5               	goto	l5429
  3291  035B                     l5627:
  3292                           
  3293                           ; Switch size 1, requested type "simple"
  3294                           ; Number of cases is 2, Range of values is 1 to 3
  3295                           ; switch strategies available:
  3296                           ; Name         Instructions Cycles
  3297                           ; simple_byte            7     4 (average)
  3298                           ; direct_byte           20    11 (fixed)
  3299                           ; jumptable            263     9 (fixed)
  3300                           ;	Chosen strategy is simple_byte
  3301  035B  0842               	movf	??_main+1,w
  3302  035C  3A01               	xorlw	1	; case 1
  3303  035D  1903               	skipnz
  3304  035E  2B05               	goto	l5357
  3305  035F  3A02               	xorlw	2	; case 3
  3306  0360  1903               	skipnz
  3307  0361  2B33               	goto	l382
  3308  0362  2CD5               	goto	l5429
  3309  0363                     l5373:
  3310                           
  3311                           ;main.c: 177:     if ( reset_flag == 0x04 )
  3312  0363  1683               	bsf	3,5	;RP0=1, select bank1
  3313  0364  1303               	bcf	3,6	;RP1=0, select bank1
  3314  0365  086A               	movf	main@reset_flag^(0+128),w
  3315  0366  1283               	bcf	3,5	;RP0=0, select bank0
  3316  0367  1303               	bcf	3,6	;RP1=0, select bank0
  3317  0368  00C1               	movwf	??_main
  3318  0369  0841               	movf	??_main,w
  3319  036A  00A9               	movwf	login_menu@reset_flag
  3320  036B  1683               	bsf	3,5	;RP0=1, select bank1
  3321  036C  1303               	bcf	3,6	;RP1=0, select bank1
  3322  036D  086B               	movf	main@key^(0+128),w
  3323  036E  120A  158A  20BE  120A  118A  	fcall	_login_menu
  3324  0373  1283               	bcf	3,5	;RP0=0, select bank0
  3325  0374  1303               	bcf	3,6	;RP1=0, select bank0
  3326  0375  00C2               	movwf	??_main+1
  3327  0376  0842               	movf	??_main+1,w
  3328  0377  1683               	bsf	3,5	;RP0=1, select bank1
  3329  0378  1303               	bcf	3,6	;RP1=0, select bank1
  3330  0379  00E1               	movwf	main@menu_pos^(0+128)
  3331                           
  3332                           ;main.c: 178:      log_car_event("CL",0);
  3333  037A  2CD5               	goto	l5429
  3334  037B                     l5375:
  3335                           
  3336                           ;main.c: 182:      control_flag = 0x04;
  3337  037B  1683               	bsf	3,5	;RP0=1, select bank1
  3338  037C  1303               	bcf	3,6	;RP1=0, select bank1
  3339  037D  086A               	movf	main@reset_flag^(0+128),w
  3340  037E  1283               	bcf	3,5	;RP0=0, select bank0
  3341  037F  1303               	bcf	3,6	;RP1=0, select bank0
  3342  0380  00C1               	movwf	??_main
  3343  0381  0841               	movf	??_main,w
  3344  0382  00A9               	movwf	view_log@reset_shift
  3345  0383  1683               	bsf	3,5	;RP0=1, select bank1
  3346  0384  1303               	bcf	3,6	;RP1=0, select bank1
  3347  0385  086B               	movf	main@key^(0+128),w
  3348  0386  120A  118A  24DC  120A  118A  	fcall	_view_log
  3349                           
  3350                           ;main.c: 183:      reset_flag = 0x05;
  3351  038B  2CD5               	goto	l5429
  3352  038C                     l5377:
  3353                           
  3354                           ;main.c: 187: 
  3355  038C  1683               	bsf	3,5	;RP0=1, select bank1
  3356  038D  1303               	bcf	3,6	;RP1=0, select bank1
  3357  038E  086A               	movf	main@reset_flag^(0+128),w
  3358  038F  120A  158A  2000  120A  118A  	fcall	_clear_log
  3359  0394  3A11               	xorlw	17
  3360  0395  1D03               	skipz
  3361  0396  2B98               	goto	u5071
  3362  0397  2B99               	goto	u5070
  3363  0398                     u5071:
  3364  0398  2B9F               	goto	l5381
  3365  0399                     u5070:
  3366  0399                     l5379:
  3367                           
  3368                           ;main.c: 188:     break;
  3369  0399  3032               	movlw	50
  3370  039A  1683               	bsf	3,5	;RP0=1, select bank1
  3371  039B  1303               	bcf	3,6	;RP1=0, select bank1
  3372  039C  00E6               	movwf	main@wait_time^(0+128)
  3373  039D  3000               	movlw	0
  3374  039E  00E7               	movwf	(main@wait_time^(0+128)+1)
  3375  039F                     l5381:
  3376                           
  3377                           ;main.c: 190: 
  3378  039F  3004               	movlw	4
  3379  03A0  1683               	bsf	3,5	;RP0=1, select bank1
  3380  03A1  1303               	bcf	3,6	;RP1=0, select bank1
  3381  03A2  066A               	xorwf	main@reset_flag^(0+128),w
  3382  03A3  1D03               	btfss	3,2
  3383  03A4  2BA6               	goto	u5081
  3384  03A5  2BA7               	goto	u5080
  3385  03A6                     u5081:
  3386  03A6  2BB3               	goto	l5385
  3387  03A7                     u5080:
  3388  03A7                     l5383:
  3389                           
  3390                           ;main.c: 191:     if ( change_time( key ,reset_flag ) == 0x11 )
  3391  03A7  3090               	movlw	low (STR_46| (0+32768))
  3392  03A8  1283               	bcf	3,5	;RP0=0, select bank0
  3393  03A9  1303               	bcf	3,6	;RP1=0, select bank0
  3394  03AA  00A4               	movwf	log_car_event@event
  3395  03AB  3091               	movlw	high (STR_46| (0+32768))
  3396  03AC  00A5               	movwf	log_car_event@event+1
  3397  03AD  01A6               	clrf	log_car_event@speed
  3398  03AE  160A  118A  2579  120A  118A  	fcall	_log_car_event
  3399  03B3                     l5385:
  3400                           
  3401                           ;main.c: 193: 
  3402  03B3  1683               	bsf	3,5	;RP0=1, select bank1
  3403  03B4  1303               	bcf	3,6	;RP1=0, select bank1
  3404  03B5  0867               	movf	(main@wait_time+1)^(0+128),w
  3405  03B6  3A80               	xorlw	128
  3406  03B7  00FF               	movwf	btemp+1
  3407  03B8  3080               	movlw	128
  3408  03B9  027F               	subwf	btemp+1,w
  3409  03BA  1D03               	skipz
  3410  03BB  2BBE               	goto	u5095
  3411  03BC  3001               	movlw	1
  3412  03BD  0266               	subwf	main@wait_time^(0+128),w
  3413  03BE                     u5095:
  3414  03BE  1C03               	skipc
  3415  03BF  2BC1               	goto	u5091
  3416  03C0  2BC2               	goto	u5090
  3417  03C1                     u5091:
  3418  03C1  2CD5               	goto	l5429
  3419  03C2                     u5090:
  3420  03C2                     l5387:
  3421  03C2  30FF               	movlw	255
  3422  03C3  1683               	bsf	3,5	;RP0=1, select bank1
  3423  03C4  1303               	bcf	3,6	;RP1=0, select bank1
  3424  03C5  07E6               	addwf	main@wait_time^(0+128),f
  3425  03C6  1803               	skipnc
  3426  03C7  0AE7               	incf	(main@wait_time+1)^(0+128),f
  3427  03C8  30FF               	movlw	255
  3428  03C9  07E7               	addwf	(main@wait_time+1)^(0+128),f
  3429  03CA  0866               	movf	main@wait_time^(0+128),w
  3430  03CB  0467               	iorwf	(main@wait_time+1)^(0+128),w
  3431  03CC  1D03               	btfss	3,2
  3432  03CD  2BCF               	goto	u5101
  3433  03CE  2BD0               	goto	u5100
  3434  03CF                     u5101:
  3435  03CF  2CD5               	goto	l5429
  3436  03D0                     u5100:
  3437  03D0                     l5389:
  3438                           
  3439                           ;main.c: 194:     if (wait_time > 0 && --wait_time == 0 );main.c: 195:     {
  3440  03D0  3004               	movlw	4
  3441  03D1  1283               	bcf	3,5	;RP0=0, select bank0
  3442  03D2  1303               	bcf	3,6	;RP1=0, select bank0
  3443  03D3  00C1               	movwf	??_main
  3444  03D4  0841               	movf	??_main,w
  3445  03D5  1683               	bsf	3,5	;RP0=1, select bank1
  3446  03D6  1303               	bcf	3,6	;RP1=0, select bank1
  3447  03D7  00E9               	movwf	main@control_flag^(0+128)
  3448                           
  3449                           ;main.c: 196:      control_flag = 0x04;
  3450  03D8  3005               	movlw	5
  3451  03D9  1283               	bcf	3,5	;RP0=0, select bank0
  3452  03DA  1303               	bcf	3,6	;RP1=0, select bank0
  3453  03DB  00C1               	movwf	??_main
  3454  03DC  0841               	movf	??_main,w
  3455  03DD  1683               	bsf	3,5	;RP0=1, select bank1
  3456  03DE  1303               	bcf	3,6	;RP1=0, select bank1
  3457  03DF  00EA               	movwf	main@reset_flag^(0+128)
  3458  03E0                     l5391:
  3459                           
  3460                           ;main.c: 197:      reset_flag = 0x05;
  3461  03E0  01F3               	clrf	clcd_write@mode
  3462  03E1  3001               	movlw	1
  3463  03E2  160A  118A  2277  120A  118A  	fcall	_clcd_write
  3464                           
  3465                           ;main.c: 198:                     clcd_write(0x01,0);
  3466  03E7  2898               	goto	l5227
  3467  03E8                     l5393:
  3468                           
  3469                           ;main.c: 204:     switch ( change_password( key ,reset_flag ) )
  3470  03E8  1683               	bsf	3,5	;RP0=1, select bank1
  3471  03E9  1303               	bcf	3,6	;RP1=0, select bank1
  3472  03EA  086A               	movf	main@reset_flag^(0+128),w
  3473  03EB  1283               	bcf	3,5	;RP0=0, select bank0
  3474  03EC  1303               	bcf	3,6	;RP1=0, select bank0
  3475  03ED  00C1               	movwf	??_main
  3476  03EE  0841               	movf	??_main,w
  3477  03EF  00A9               	movwf	change_time@reset_time
  3478  03F0  1683               	bsf	3,5	;RP0=1, select bank1
  3479  03F1  1303               	bcf	3,6	;RP1=0, select bank1
  3480  03F2  086B               	movf	main@key^(0+128),w
  3481  03F3  120A  158A  24D8  120A  118A  	fcall	_change_time
  3482  03F8  3A11               	xorlw	17
  3483  03F9  1D03               	skipz
  3484  03FA  2BFC               	goto	u5111
  3485  03FB  2BFD               	goto	u5110
  3486  03FC                     u5111:
  3487  03FC  2C03               	goto	l5397
  3488  03FD                     u5110:
  3489  03FD                     l5395:
  3490                           
  3491                           ;main.c: 205:     {
  3492  03FD  3064               	movlw	100
  3493  03FE  1683               	bsf	3,5	;RP0=1, select bank1
  3494  03FF  1303               	bcf	3,6	;RP1=0, select bank1
  3495  0400  00E6               	movwf	main@wait_time^(0+128)
  3496  0401  3000               	movlw	0
  3497  0402  00E7               	movwf	(main@wait_time^(0+128)+1)
  3498  0403                     l5397:
  3499                           
  3500                           ;main.c: 207:                         wait_time = 100;
  3501  0403  1683               	bsf	3,5	;RP0=1, select bank1
  3502  0404  1303               	bcf	3,6	;RP1=0, select bank1
  3503  0405  0867               	movf	(main@wait_time+1)^(0+128),w
  3504  0406  3A80               	xorlw	128
  3505  0407  00FF               	movwf	btemp+1
  3506  0408  3080               	movlw	128
  3507  0409  027F               	subwf	btemp+1,w
  3508  040A  1D03               	skipz
  3509  040B  2C0E               	goto	u5125
  3510  040C  3001               	movlw	1
  3511  040D  0266               	subwf	main@wait_time^(0+128),w
  3512  040E                     u5125:
  3513  040E  1C03               	skipc
  3514  040F  2C11               	goto	u5121
  3515  0410  2C12               	goto	u5120
  3516  0411                     u5121:
  3517  0411  2CD5               	goto	l5429
  3518  0412                     u5120:
  3519  0412                     l5399:
  3520  0412  30FF               	movlw	255
  3521  0413  1683               	bsf	3,5	;RP0=1, select bank1
  3522  0414  1303               	bcf	3,6	;RP1=0, select bank1
  3523  0415  07E6               	addwf	main@wait_time^(0+128),f
  3524  0416  1803               	skipnc
  3525  0417  0AE7               	incf	(main@wait_time+1)^(0+128),f
  3526  0418  30FF               	movlw	255
  3527  0419  07E7               	addwf	(main@wait_time+1)^(0+128),f
  3528  041A  0866               	movf	main@wait_time^(0+128),w
  3529  041B  0467               	iorwf	(main@wait_time+1)^(0+128),w
  3530  041C  1D03               	btfss	3,2
  3531  041D  2C1F               	goto	u5131
  3532  041E  2C20               	goto	u5130
  3533  041F                     u5131:
  3534  041F  2CD5               	goto	l5429
  3535  0420                     u5130:
  3536  0420                     l5401:
  3537                           
  3538                           ;main.c: 208: ;main.c: 209:                         clcd_write(0x0C,0);
  3539  0420  3004               	movlw	4
  3540  0421  1283               	bcf	3,5	;RP0=0, select bank0
  3541  0422  1303               	bcf	3,6	;RP1=0, select bank0
  3542  0423  00C1               	movwf	??_main
  3543  0424  0841               	movf	??_main,w
  3544  0425  1683               	bsf	3,5	;RP0=1, select bank1
  3545  0426  1303               	bcf	3,6	;RP1=0, select bank1
  3546  0427  00E9               	movwf	main@control_flag^(0+128)
  3547                           
  3548                           ;main.c: 210:                         break;
  3549  0428  3005               	movlw	5
  3550  0429  1283               	bcf	3,5	;RP0=0, select bank0
  3551  042A  1303               	bcf	3,6	;RP1=0, select bank0
  3552  042B  00C1               	movwf	??_main
  3553  042C  0841               	movf	??_main,w
  3554  042D  1683               	bsf	3,5	;RP0=1, select bank1
  3555  042E  1303               	bcf	3,6	;RP1=0, select bank1
  3556  042F  00EA               	movwf	main@reset_flag^(0+128)
  3557  0430                     l5403:
  3558                           
  3559                           ;main.c: 211: 
  3560  0430  01F3               	clrf	clcd_write@mode
  3561  0431  3001               	movlw	1
  3562  0432  160A  118A  2277  120A  118A  	fcall	_clcd_write
  3563                           
  3564                           ;main.c: 212:      case 0x03 :
  3565  0437  2898               	goto	l5227
  3566  0438                     l5405:
  3567                           
  3568                           ;main.c: 220:     {
  3569  0438  3064               	movlw	100
  3570  0439  1683               	bsf	3,5	;RP0=1, select bank1
  3571  043A  1303               	bcf	3,6	;RP1=0, select bank1
  3572  043B  00E6               	movwf	main@wait_time^(0+128)
  3573  043C  3000               	movlw	0
  3574  043D  00E7               	movwf	(main@wait_time^(0+128)+1)
  3575  043E                     l5407:
  3576                           
  3577                           ;main.c: 222:      reset_flag = 0x05;
  3578  043E  01F3               	clrf	clcd_write@mode
  3579  043F  300C               	movlw	12
  3580  0440  160A  118A  2277  120A  118A  	fcall	_clcd_write
  3581                           
  3582                           ;main.c: 223:                     clcd_write(0x01,0);
  3583  0445  2C7D               	goto	l5417
  3584  0446                     l5409:
  3585                           
  3586                           ;main.c: 226:     break;
  3587  0446  3004               	movlw	4
  3588  0447  00C1               	movwf	??_main
  3589  0448  0841               	movf	??_main,w
  3590  0449  1683               	bsf	3,5	;RP0=1, select bank1
  3591  044A  1303               	bcf	3,6	;RP1=0, select bank1
  3592  044B  00E9               	movwf	main@control_flag^(0+128)
  3593                           
  3594                           ;main.c: 227:         }
  3595  044C  3005               	movlw	5
  3596  044D  1283               	bcf	3,5	;RP0=0, select bank0
  3597  044E  1303               	bcf	3,6	;RP1=0, select bank0
  3598  044F  00C1               	movwf	??_main
  3599  0450  0841               	movf	??_main,w
  3600  0451  1683               	bsf	3,5	;RP0=1, select bank1
  3601  0452  1303               	bcf	3,6	;RP1=0, select bank1
  3602  0453  00EA               	movwf	main@reset_flag^(0+128)
  3603  0454                     l5411:
  3604                           
  3605                           ;main.c: 228:         reset_flag = 0x00;
  3606  0454  01F3               	clrf	clcd_write@mode
  3607  0455  300C               	movlw	12
  3608  0456  160A  118A  2277  120A  118A  	fcall	_clcd_write
  3609                           
  3610                           ;main.c: 229:     }
  3611  045B  2898               	goto	l5227
  3612  045C                     l5415:
  3613  045C  1683               	bsf	3,5	;RP0=1, select bank1
  3614  045D  1303               	bcf	3,6	;RP1=0, select bank1
  3615  045E  086A               	movf	main@reset_flag^(0+128),w
  3616  045F  1283               	bcf	3,5	;RP0=0, select bank0
  3617  0460  1303               	bcf	3,6	;RP1=0, select bank0
  3618  0461  00C1               	movwf	??_main
  3619  0462  0841               	movf	??_main,w
  3620  0463  00A9               	movwf	change_password@reset_pwd
  3621  0464  1683               	bsf	3,5	;RP0=1, select bank1
  3622  0465  1303               	bcf	3,6	;RP1=0, select bank1
  3623  0466  086B               	movf	main@key^(0+128),w
  3624  0467  120A  158A  21BB  120A  118A  	fcall	_change_password
  3625  046C  1283               	bcf	3,5	;RP0=0, select bank0
  3626  046D  1303               	bcf	3,6	;RP1=0, select bank0
  3627  046E  00C2               	movwf	??_main+1
  3628  046F  01C3               	clrf	??_main+2
  3629                           
  3630                           ; Switch on 2 bytes has been partitioned into a top level switch of size 1, and 1 sub-sw
      +                          itches
  3631                           ; Switch size 1, requested type "simple"
  3632                           ; Number of cases is 1, Range of values is 0 to 0
  3633                           ; switch strategies available:
  3634                           ; Name         Instructions Cycles
  3635                           ; simple_byte            4     3 (average)
  3636                           ; direct_byte           11     8 (fixed)
  3637                           ; jumptable            260     6 (fixed)
  3638                           ;	Chosen strategy is simple_byte
  3639  0470  0843               	movf	??_main+2,w
  3640  0471  3A00               	xorlw	0	; case 0
  3641  0472  1903               	skipnz
  3642  0473  2C75               	goto	l5629
  3643  0474  2C7D               	goto	l5417
  3644  0475                     l5629:
  3645                           
  3646                           ; Switch size 1, requested type "simple"
  3647                           ; Number of cases is 2, Range of values is 3 to 17
  3648                           ; switch strategies available:
  3649                           ; Name         Instructions Cycles
  3650                           ; simple_byte            7     4 (average)
  3651                           ; direct_byte           56    11 (fixed)
  3652                           ; jumptable            263     9 (fixed)
  3653                           ;	Chosen strategy is simple_byte
  3654  0475  0842               	movf	??_main+1,w
  3655  0476  3A03               	xorlw	3	; case 3
  3656  0477  1903               	skipnz
  3657  0478  2C46               	goto	l5409
  3658  0479  3A12               	xorlw	18	; case 17
  3659  047A  1903               	skipnz
  3660  047B  2C38               	goto	l5405
  3661  047C  2C7D               	goto	l5417
  3662  047D                     l5417:
  3663  047D  1683               	bsf	3,5	;RP0=1, select bank1
  3664  047E  1303               	bcf	3,6	;RP1=0, select bank1
  3665  047F  0867               	movf	(main@wait_time+1)^(0+128),w
  3666  0480  3A80               	xorlw	128
  3667  0481  00FF               	movwf	btemp+1
  3668  0482  3080               	movlw	128
  3669  0483  027F               	subwf	btemp+1,w
  3670  0484  1D03               	skipz
  3671  0485  2C88               	goto	u5145
  3672  0486  3001               	movlw	1
  3673  0487  0266               	subwf	main@wait_time^(0+128),w
  3674  0488                     u5145:
  3675  0488  1C03               	skipc
  3676  0489  2C8B               	goto	u5141
  3677  048A  2C8C               	goto	u5140
  3678  048B                     u5141:
  3679  048B  2CD5               	goto	l5429
  3680  048C                     u5140:
  3681  048C                     l5419:
  3682  048C  30FF               	movlw	255
  3683  048D  1683               	bsf	3,5	;RP0=1, select bank1
  3684  048E  1303               	bcf	3,6	;RP1=0, select bank1
  3685  048F  07E6               	addwf	main@wait_time^(0+128),f
  3686  0490  1803               	skipnc
  3687  0491  0AE7               	incf	(main@wait_time+1)^(0+128),f
  3688  0492  30FF               	movlw	255
  3689  0493  07E7               	addwf	(main@wait_time+1)^(0+128),f
  3690  0494  0866               	movf	main@wait_time^(0+128),w
  3691  0495  0467               	iorwf	(main@wait_time+1)^(0+128),w
  3692  0496  1D03               	btfss	3,2
  3693  0497  2C99               	goto	u5151
  3694  0498  2C9A               	goto	u5150
  3695  0499                     u5151:
  3696  0499  2CD5               	goto	l5429
  3697  049A                     u5150:
  3698  049A                     l5421:
  3699  049A  3004               	movlw	4
  3700  049B  1283               	bcf	3,5	;RP0=0, select bank0
  3701  049C  1303               	bcf	3,6	;RP1=0, select bank0
  3702  049D  00C1               	movwf	??_main
  3703  049E  0841               	movf	??_main,w
  3704  049F  1683               	bsf	3,5	;RP0=1, select bank1
  3705  04A0  1303               	bcf	3,6	;RP1=0, select bank1
  3706  04A1  00E9               	movwf	main@control_flag^(0+128)
  3707  04A2  3005               	movlw	5
  3708  04A3  1283               	bcf	3,5	;RP0=0, select bank0
  3709  04A4  1303               	bcf	3,6	;RP1=0, select bank0
  3710  04A5  00C1               	movwf	??_main
  3711  04A6  0841               	movf	??_main,w
  3712  04A7  1683               	bsf	3,5	;RP0=1, select bank1
  3713  04A8  1303               	bcf	3,6	;RP1=0, select bank1
  3714  04A9  00EA               	movwf	main@reset_flag^(0+128)
  3715  04AA                     l5423:
  3716  04AA  01F3               	clrf	clcd_write@mode
  3717  04AB  3001               	movlw	1
  3718  04AC  160A  118A  2277  120A  118A  	fcall	_clcd_write
  3719  04B1  2898               	goto	l5227
  3720  04B2                     l5427:
  3721  04B2  1683               	bsf	3,5	;RP0=1, select bank1
  3722  04B3  1303               	bcf	3,6	;RP1=0, select bank1
  3723  04B4  0869               	movf	main@control_flag^(0+128),w
  3724  04B5  1283               	bcf	3,5	;RP0=0, select bank0
  3725  04B6  1303               	bcf	3,6	;RP1=0, select bank0
  3726  04B7  00C1               	movwf	??_main
  3727  04B8  01C2               	clrf	??_main+1
  3728                           
  3729                           ; Switch on 2 bytes has been partitioned into a top level switch of size 1, and 1 sub-sw
      +                          itches
  3730                           ; Switch size 1, requested type "simple"
  3731                           ; Number of cases is 1, Range of values is 0 to 0
  3732                           ; switch strategies available:
  3733                           ; Name         Instructions Cycles
  3734                           ; simple_byte            4     3 (average)
  3735                           ; direct_byte           11     8 (fixed)
  3736                           ; jumptable            260     6 (fixed)
  3737                           ;	Chosen strategy is simple_byte
  3738  04B9  0842               	movf	??_main+1,w
  3739  04BA  3A00               	xorlw	0	; case 0
  3740  04BB  1903               	skipnz
  3741  04BC  2CBE               	goto	l5631
  3742  04BD  2CD5               	goto	l5429
  3743  04BE                     l5631:
  3744                           
  3745                           ; Switch size 1, requested type "simple"
  3746                           ; Number of cases is 7, Range of values is 1 to 128
  3747                           ; switch strategies available:
  3748                           ; Name         Instructions Cycles
  3749                           ; simple_byte           22    12 (average)
  3750                           ; jumptable            263     9 (fixed)
  3751                           ;	Chosen strategy is simple_byte
  3752  04BE  0841               	movf	??_main,w
  3753  04BF  3A01               	xorlw	1	; case 1
  3754  04C0  1903               	skipnz
  3755  04C1  2AE8               	goto	l5351
  3756  04C2  3A03               	xorlw	3	; case 2
  3757  04C3  1903               	skipnz
  3758  04C4  2B42               	goto	l5371
  3759  04C5  3A06               	xorlw	6	; case 4
  3760  04C6  1903               	skipnz
  3761  04C7  2B63               	goto	l5373
  3762  04C8  3A0C               	xorlw	12	; case 8
  3763  04C9  1903               	skipnz
  3764  04CA  2B7B               	goto	l5375
  3765  04CB  3A18               	xorlw	24	; case 16
  3766  04CC  1903               	skipnz
  3767  04CD  2B8C               	goto	l5377
  3768  04CE  3A50               	xorlw	80	; case 64
  3769  04CF  1903               	skipnz
  3770  04D0  2BE8               	goto	l5393
  3771  04D1  3AC0               	xorlw	192	; case 128
  3772  04D2  1903               	skipnz
  3773  04D3  2C5C               	goto	l5415
  3774  04D4  2CD5               	goto	l5429
  3775  04D5                     l5429:
  3776  04D5  1683               	bsf	3,5	;RP0=1, select bank1
  3777  04D6  1303               	bcf	3,6	;RP1=0, select bank1
  3778  04D7  01EA               	clrf	main@reset_flag^(0+128)
  3779  04D8  2898               	goto	l5227
  3780  04D9  120A  118A  280E   	ljmp	start
  3781  04DC                     __end_of_main:
  3782                           
  3783                           	psect	text1
  3784  04DC                     __ptext1:	
  3785 ;; *************** function _view_log *****************
  3786 ;; Defined at:
  3787 ;;		line 244 in file "display.c"
  3788 ;; Parameters:    Size  Location     Type
  3789 ;;  key             1    wreg     unsigned char 
  3790 ;;  reset_shift     1    9[BANK0 ] unsigned char 
  3791 ;; Auto vars:     Size  Location     Type
  3792 ;;  key             1   24[BANK0 ] unsigned char 
  3793 ;;  i               4   25[BANK0 ] unsigned long 
  3794 ;;  i               2   31[BANK0 ] int 
  3795 ;;  rlog           11   12[BANK0 ] unsigned char [11]
  3796 ;;  rpos            2   29[BANK0 ] int 
  3797 ;;  add             1   23[BANK0 ] unsigned char 
  3798 ;; Return value:  Size  Location     Type
  3799 ;;                  1    wreg      void 
  3800 ;; Registers used:
  3801 ;;		wreg, fsr0l, fsr0h, status,2, status,0, btemp+1, pclath, cstack
  3802 ;; Tracked objects:
  3803 ;;		On entry : 0/0
  3804 ;;		On exit  : 0/0
  3805 ;;		Unchanged: 0/0
  3806 ;; Data sizes:     COMMON   BANK0   BANK1   BANK3   BANK2
  3807 ;;      Params:         0       1       0       0       0
  3808 ;;      Locals:         0      21       0       0       0
  3809 ;;      Temps:          0       2       0       0       0
  3810 ;;      Totals:         0      24       0       0       0
  3811 ;;Total ram usage:       24 bytes
  3812 ;; Hardware stack levels used: 1
  3813 ;; Hardware stack levels required when called: 4
  3814 ;; This function calls:
  3815 ;;		___awmod
  3816 ;;		___bmul
  3817 ;;		_clcd_print
  3818 ;;		_clcd_putch
  3819 ;;		_clcd_write
  3820 ;;		_ext_eeprom_24C02_read
  3821 ;; This function is called by:
  3822 ;;		_main
  3823 ;; This function uses a non-reentrant model
  3824 ;;
  3825                           
  3826  04DC                     _view_log:	
  3827                           ;psect for function _view_log
  3828                           
  3829                           
  3830                           ;incstack = 0
  3831                           ; Regs used in _view_log: [wreg-fsr0h+status,2+status,0+btemp+1+pclath+cstack]
  3832                           ;view_log@key stored from wreg
  3833  04DC  1283               	bcf	3,5	;RP0=0, select bank0
  3834  04DD  1303               	bcf	3,6	;RP1=0, select bank0
  3835  04DE  00B8               	movwf	view_log@key
  3836  04DF                     l4833:
  3837                           
  3838                           ;display.c: 244:  unsigned char add;;display.c: 245:  if ( access == -1 );display.c: 246
      +                          :  {;display.c: 247:   clcd_print("No logs available" , (0xC0 + 0));;display.c: 248:  }
  3839  04DF  01B6               	clrf	view_log@rlog+10
  3840  04E0                     l4835:
  3841                           
  3842                           ;display.c: 249:  else;display.c: 250:  {;display.c: 251:   if ( reset_shift == 0x08 )
  3843  04E0  0A62               	incf	_access,w
  3844  04E1  1D03               	skipz
  3845  04E2  2CE7               	goto	u4491
  3846  04E3  0A63               	incf	_access+1,w
  3847  04E4  1D03               	btfss	3,2
  3848  04E5  2CE7               	goto	u4491
  3849  04E6  2CE8               	goto	u4490
  3850  04E7                     u4491:
  3851  04E7  2CF6               	goto	l4839
  3852  04E8                     u4490:
  3853  04E8                     l4837:
  3854                           
  3855                           ;display.c: 252:    shift = 0 ;;display.c: 253:   rpos = (overflow)? (pos + 1) % 10 : 0;
  3856  04E8  3039               	movlw	low (STR_12| (0+32768))
  3857  04E9  00A0               	movwf	clcd_print@str
  3858  04EA  3090               	movlw	high (STR_12| (0+32768))
  3859  04EB  00A1               	movwf	clcd_print@str+1
  3860  04EC  30C0               	movlw	192
  3861  04ED  00AA               	movwf	??_view_log
  3862  04EE  082A               	movf	??_view_log,w
  3863  04EF  00A2               	movwf	clcd_print@addr
  3864  04F0  160A  118A  2210  120A  118A  	fcall	_clcd_print
  3865                           
  3866                           ;display.c: 254: 
  3867  04F5  2E91               	goto	l208
  3868  04F6                     l4839:
  3869                           
  3870                           ;display.c: 256:         {;display.c: 257:    shift++;
  3871  04F6  3008               	movlw	8
  3872  04F7  0629               	xorwf	view_log@reset_shift,w
  3873  04F8  1D03               	btfss	3,2
  3874  04F9  2CFB               	goto	u4501
  3875  04FA  2CFC               	goto	u4500
  3876  04FB                     u4501:
  3877  04FB  2CFE               	goto	l4843
  3878  04FC                     u4500:
  3879  04FC                     l4841:
  3880                           
  3881                           ;display.c: 258:             clcd_print("                 ", (0xC0 + 0)) ;
  3882  04FC  01D1               	clrf	view_log@shift
  3883  04FD  01D2               	clrf	view_log@shift+1
  3884  04FE                     l4843:
  3885                           
  3886                           ;display.c: 259:         }
  3887  04FE  085F               	movf	_overflow,w
  3888  04FF  1D03               	btfss	3,2
  3889  0500  2D02               	goto	u4511
  3890  0501  2D03               	goto	u4510
  3891  0502                     u4511:
  3892  0502  2D06               	goto	l4847
  3893  0503                     u4510:
  3894  0503                     l4845:
  3895  0503  01BD               	clrf	view_log@rpos
  3896  0504  01BE               	clrf	view_log@rpos+1
  3897  0505  2D1D               	goto	l4849
  3898  0506                     l4847:
  3899  0506  300A               	movlw	10
  3900  0507  00F3               	movwf	___awmod@divisor
  3901  0508  3000               	movlw	0
  3902  0509  00F4               	movwf	___awmod@divisor+1
  3903  050A  0864               	movf	_pos,w
  3904  050B  3E01               	addlw	1
  3905  050C  00F5               	movwf	___awmod@dividend
  3906  050D  0865               	movf	_pos+1,w
  3907  050E  1803               	skipnc
  3908  050F  3E01               	addlw	1
  3909  0510  3E00               	addlw	0
  3910  0511  00F6               	movwf	___awmod@dividend+1
  3911  0512  160A  118A  24BF  120A  118A  	fcall	___awmod
  3912  0517  0874               	movf	?___awmod+1,w
  3913  0518  1283               	bcf	3,5	;RP0=0, select bank0
  3914  0519  1303               	bcf	3,6	;RP1=0, select bank0
  3915  051A  00BE               	movwf	view_log@rpos+1
  3916  051B  0873               	movf	?___awmod,w
  3917  051C  00BD               	movwf	view_log@rpos
  3918  051D                     l4849:
  3919                           
  3920                           ;display.c: 261:         {
  3921  051D  3037               	movlw	55
  3922  051E  0638               	xorwf	view_log@key,w
  3923  051F  1D03               	btfss	3,2
  3924  0520  2D22               	goto	u4521
  3925  0521  2D23               	goto	u4520
  3926  0522                     u4521:
  3927  0522  2D47               	goto	l4857
  3928  0523                     u4520:
  3929  0523                     l4851:
  3930  0523  0852               	movf	view_log@shift+1,w
  3931  0524  3A80               	xorlw	128
  3932  0525  00AA               	movwf	??_view_log
  3933  0526  0863               	movf	_access+1,w
  3934  0527  3A80               	xorlw	128
  3935  0528  022A               	subwf	??_view_log,w
  3936  0529  1D03               	skipz
  3937  052A  2D2D               	goto	u4535
  3938  052B  0862               	movf	_access,w
  3939  052C  0251               	subwf	view_log@shift,w
  3940  052D                     u4535:
  3941  052D  1803               	skipnc
  3942  052E  2D30               	goto	u4531
  3943  052F  2D31               	goto	u4530
  3944  0530                     u4531:
  3945  0530  2D47               	goto	l4857
  3946  0531                     u4530:
  3947  0531                     l4853:
  3948                           
  3949                           ;display.c: 262:    shift--;;display.c: 263:             clcd_print("                 ",
      +                           (0xC0 + 0)) ;
  3950  0531  3001               	movlw	1
  3951  0532  1283               	bcf	3,5	;RP0=0, select bank0
  3952  0533  1303               	bcf	3,6	;RP1=0, select bank0
  3953  0534  07D1               	addwf	view_log@shift,f
  3954  0535  1803               	skipnc
  3955  0536  0AD2               	incf	view_log@shift+1,f
  3956  0537  3000               	movlw	0
  3957  0538  07D2               	addwf	view_log@shift+1,f
  3958  0539                     l4855:
  3959                           
  3960                           ;display.c: 264:         }
  3961  0539  3015               	movlw	low (STR_13| (0+32768))
  3962  053A  00A0               	movwf	clcd_print@str
  3963  053B  3090               	movlw	high (STR_13| (0+32768))
  3964  053C  00A1               	movwf	clcd_print@str+1
  3965  053D  30C0               	movlw	192
  3966  053E  00AA               	movwf	??_view_log
  3967  053F  082A               	movf	??_view_log,w
  3968  0540  00A2               	movwf	clcd_print@addr
  3969  0541  160A  118A  2210  120A  118A  	fcall	_clcd_print
  3970                           
  3971                           ;display.c: 265: 
  3972  0546  2D71               	goto	l4865
  3973  0547                     l4857:
  3974  0547  302F               	movlw	47
  3975  0548  1283               	bcf	3,5	;RP0=0, select bank0
  3976  0549  1303               	bcf	3,6	;RP1=0, select bank0
  3977  054A  0638               	xorwf	view_log@key,w
  3978  054B  1D03               	btfss	3,2
  3979  054C  2D4E               	goto	u4541
  3980  054D  2D4F               	goto	u4540
  3981  054E                     u4541:
  3982  054E  2D71               	goto	l4865
  3983  054F                     u4540:
  3984  054F                     l4859:
  3985  054F  0852               	movf	view_log@shift+1,w
  3986  0550  3A80               	xorlw	128
  3987  0551  00FF               	movwf	btemp+1
  3988  0552  3080               	movlw	128
  3989  0553  027F               	subwf	btemp+1,w
  3990  0554  1D03               	skipz
  3991  0555  2D58               	goto	u4555
  3992  0556  3001               	movlw	1
  3993  0557  0251               	subwf	view_log@shift,w
  3994  0558                     u4555:
  3995  0558  1C03               	skipc
  3996  0559  2D5B               	goto	u4551
  3997  055A  2D5C               	goto	u4550
  3998  055B                     u4551:
  3999  055B  2D71               	goto	l4865
  4000  055C                     u4550:
  4001  055C                     l4861:
  4002                           
  4003                           ;display.c: 267: ;display.c: 268:   for ( int i = 0 ; i < 10 ; i++ )
  4004  055C  30FF               	movlw	255
  4005  055D  1283               	bcf	3,5	;RP0=0, select bank0
  4006  055E  1303               	bcf	3,6	;RP1=0, select bank0
  4007  055F  07D1               	addwf	view_log@shift,f
  4008  0560  1803               	skipnc
  4009  0561  0AD2               	incf	view_log@shift+1,f
  4010  0562  30FF               	movlw	255
  4011  0563  07D2               	addwf	view_log@shift+1,f
  4012  0564                     l4863:
  4013                           
  4014                           ;display.c: 269:   {
  4015  0564  3015               	movlw	low (STR_13| (0+32768))
  4016  0565  00A0               	movwf	clcd_print@str
  4017  0566  3090               	movlw	high (STR_13| (0+32768))
  4018  0567  00A1               	movwf	clcd_print@str+1
  4019  0568  30C0               	movlw	192
  4020  0569  00AA               	movwf	??_view_log
  4021  056A  082A               	movf	??_view_log,w
  4022  056B  00A2               	movwf	clcd_print@addr
  4023  056C  160A  118A  2210  120A  118A  	fcall	_clcd_print
  4024  0571                     l4865:
  4025                           
  4026                           ;display.c: 272:   }
  4027  0571  300A               	movlw	10
  4028  0572  00F3               	movwf	___awmod@divisor
  4029  0573  3000               	movlw	0
  4030  0574  00F4               	movwf	___awmod@divisor+1
  4031  0575  1283               	bcf	3,5	;RP0=0, select bank0
  4032  0576  1303               	bcf	3,6	;RP1=0, select bank0
  4033  0577  0851               	movf	view_log@shift,w
  4034  0578  073D               	addwf	view_log@rpos,w
  4035  0579  00F5               	movwf	___awmod@dividend
  4036  057A  0852               	movf	view_log@shift+1,w
  4037  057B  1803               	skipnc
  4038  057C  0A52               	incf	view_log@shift+1,w
  4039  057D  073E               	addwf	view_log@rpos+1,w
  4040  057E  00F6               	movwf	___awmod@dividend+1
  4041  057F  160A  118A  24BF  120A  118A  	fcall	___awmod
  4042  0584  0874               	movf	?___awmod+1,w
  4043  0585  1283               	bcf	3,5	;RP0=0, select bank0
  4044  0586  1303               	bcf	3,6	;RP1=0, select bank0
  4045  0587  00BE               	movwf	view_log@rpos+1
  4046  0588  0873               	movf	?___awmod,w
  4047  0589  00BD               	movwf	view_log@rpos
  4048  058A                     l4867:
  4049                           
  4050                           ;display.c: 274:   clcd_putch ( shift + '0' , (0xC0 + 0));
  4051  058A  01BF               	clrf	view_log@i
  4052  058B  01C0               	clrf	view_log@i+1
  4053  058C                     l4873:
  4054                           
  4055                           ;display.c: 275:   clcd_putch ( rlog[0] , (0xC0 + 2));;display.c: 276:   clcd_putch ( rl
      +                          og[1] , (0xC0 + 3));
  4056  058C  300A               	movlw	10
  4057  058D  1283               	bcf	3,5	;RP0=0, select bank0
  4058  058E  1303               	bcf	3,6	;RP1=0, select bank0
  4059  058F  00AA               	movwf	??_view_log
  4060  0590  082A               	movf	??_view_log,w
  4061  0591  00F3               	movwf	___bmul@multiplicand
  4062  0592  083D               	movf	view_log@rpos,w
  4063  0593  160A  118A  21A2  120A  118A  	fcall	___bmul
  4064  0598  1283               	bcf	3,5	;RP0=0, select bank0
  4065  0599  1303               	bcf	3,6	;RP1=0, select bank0
  4066  059A  073F               	addwf	view_log@i,w
  4067  059B  3E05               	addlw	5
  4068  059C  00AB               	movwf	??_view_log+1
  4069  059D  082B               	movf	??_view_log+1,w
  4070  059E  00B7               	movwf	view_log@add
  4071  059F                     l4875:
  4072                           
  4073                           ;display.c: 277:   clcd_putch ( ':' , (0xC0 + 4));
  4074  059F  0837               	movf	view_log@add,w
  4075  05A0  120A  118A  27D0  120A  118A  	fcall	_ext_eeprom_24C02_read
  4076  05A5  1283               	bcf	3,5	;RP0=0, select bank0
  4077  05A6  1303               	bcf	3,6	;RP1=0, select bank0
  4078  05A7  00AA               	movwf	??_view_log
  4079  05A8  083F               	movf	view_log@i,w
  4080  05A9  3E2C               	addlw	(low (view_log@rlog| 0))& (0+255)
  4081  05AA  0084               	movwf	4
  4082  05AB  082A               	movf	??_view_log,w
  4083  05AC  1383               	bcf	3,7	;select IRP bank0
  4084  05AD  0080               	movwf	0
  4085  05AE                     l4877:
  4086                           
  4087                           ;display.c: 278:   clcd_putch ( rlog[2] , (0xC0 + 5));
  4088  05AE  3001               	movlw	1
  4089  05AF  07BF               	addwf	view_log@i,f
  4090  05B0  1803               	skipnc
  4091  05B1  0AC0               	incf	view_log@i+1,f
  4092  05B2  3000               	movlw	0
  4093  05B3  07C0               	addwf	view_log@i+1,f
  4094  05B4                     l4879:
  4095  05B4  0840               	movf	view_log@i+1,w
  4096  05B5  3A80               	xorlw	128
  4097  05B6  00FF               	movwf	btemp+1
  4098  05B7  3080               	movlw	128
  4099  05B8  027F               	subwf	btemp+1,w
  4100  05B9  1D03               	skipz
  4101  05BA  2DBD               	goto	u4565
  4102  05BB  300A               	movlw	10
  4103  05BC  023F               	subwf	view_log@i,w
  4104  05BD                     u4565:
  4105  05BD  1C03               	skipc
  4106  05BE  2DC0               	goto	u4561
  4107  05BF  2DC1               	goto	u4560
  4108  05C0                     u4561:
  4109  05C0  2D8C               	goto	l4873
  4110  05C1                     u4560:
  4111  05C1                     l4881:
  4112                           
  4113                           ;display.c: 280:   clcd_putch ( ':' , (0xC0 + 7));
  4114  05C1  30C0               	movlw	192
  4115  05C2  1283               	bcf	3,5	;RP0=0, select bank0
  4116  05C3  1303               	bcf	3,6	;RP1=0, select bank0
  4117  05C4  00AA               	movwf	??_view_log
  4118  05C5  082A               	movf	??_view_log,w
  4119  05C6  00A7               	movwf	clcd_putch@addr
  4120  05C7  0851               	movf	view_log@shift,w
  4121  05C8  3E30               	addlw	48
  4122  05C9  160A  158A  269B  120A  118A  	fcall	_clcd_putch
  4123                           
  4124                           ;display.c: 281:   clcd_putch ( rlog[4] , (0xC0 + 8));
  4125  05CE  30C2               	movlw	194
  4126  05CF  1283               	bcf	3,5	;RP0=0, select bank0
  4127  05D0  1303               	bcf	3,6	;RP1=0, select bank0
  4128  05D1  00AA               	movwf	??_view_log
  4129  05D2  082A               	movf	??_view_log,w
  4130  05D3  00A7               	movwf	clcd_putch@addr
  4131  05D4  082C               	movf	view_log@rlog,w
  4132  05D5  160A  158A  269B  120A  118A  	fcall	_clcd_putch
  4133                           
  4134                           ;display.c: 282:   clcd_putch ( rlog[5] , (0xC0 + 9));
  4135  05DA  30C3               	movlw	195
  4136  05DB  1283               	bcf	3,5	;RP0=0, select bank0
  4137  05DC  1303               	bcf	3,6	;RP1=0, select bank0
  4138  05DD  00AA               	movwf	??_view_log
  4139  05DE  082A               	movf	??_view_log,w
  4140  05DF  00A7               	movwf	clcd_putch@addr
  4141  05E0  082D               	movf	view_log@rlog+1,w
  4142  05E1  160A  158A  269B  120A  118A  	fcall	_clcd_putch
  4143                           
  4144                           ;display.c: 283:   clcd_putch ( rlog[6] , (0xC0 + 11));
  4145  05E6  30C4               	movlw	196
  4146  05E7  1283               	bcf	3,5	;RP0=0, select bank0
  4147  05E8  1303               	bcf	3,6	;RP1=0, select bank0
  4148  05E9  00AA               	movwf	??_view_log
  4149  05EA  082A               	movf	??_view_log,w
  4150  05EB  00A7               	movwf	clcd_putch@addr
  4151  05EC  303A               	movlw	58
  4152  05ED  160A  158A  269B  120A  118A  	fcall	_clcd_putch
  4153                           
  4154                           ;display.c: 284:   clcd_putch ( rlog[7] , (0xC0 + 12));
  4155  05F2  30C5               	movlw	197
  4156  05F3  1283               	bcf	3,5	;RP0=0, select bank0
  4157  05F4  1303               	bcf	3,6	;RP1=0, select bank0
  4158  05F5  00AA               	movwf	??_view_log
  4159  05F6  082A               	movf	??_view_log,w
  4160  05F7  00A7               	movwf	clcd_putch@addr
  4161  05F8  082E               	movf	view_log@rlog+2,w
  4162  05F9  160A  158A  269B  120A  118A  	fcall	_clcd_putch
  4163                           
  4164                           ;display.c: 285:   clcd_putch ( rlog[8] , (0xC0 + 14));
  4165  05FE  30C6               	movlw	198
  4166  05FF  1283               	bcf	3,5	;RP0=0, select bank0
  4167  0600  1303               	bcf	3,6	;RP1=0, select bank0
  4168  0601  00AA               	movwf	??_view_log
  4169  0602  082A               	movf	??_view_log,w
  4170  0603  00A7               	movwf	clcd_putch@addr
  4171  0604  082F               	movf	view_log@rlog+3,w
  4172  0605  160A  158A  269B  120A  118A  	fcall	_clcd_putch
  4173                           
  4174                           ;display.c: 286:   clcd_putch ( rlog[9] , (0xC0 + 15));
  4175  060A  30C7               	movlw	199
  4176  060B  1283               	bcf	3,5	;RP0=0, select bank0
  4177  060C  1303               	bcf	3,6	;RP1=0, select bank0
  4178  060D  00AA               	movwf	??_view_log
  4179  060E  082A               	movf	??_view_log,w
  4180  060F  00A7               	movwf	clcd_putch@addr
  4181  0610  303A               	movlw	58
  4182  0611  160A  158A  269B  120A  118A  	fcall	_clcd_putch
  4183                           
  4184                           ;display.c: 287:         for(unsigned long int i =0;i < 20000;i++);
  4185  0616  30C8               	movlw	200
  4186  0617  1283               	bcf	3,5	;RP0=0, select bank0
  4187  0618  1303               	bcf	3,6	;RP1=0, select bank0
  4188  0619  00AA               	movwf	??_view_log
  4189  061A  082A               	movf	??_view_log,w
  4190  061B  00A7               	movwf	clcd_putch@addr
  4191  061C  0830               	movf	view_log@rlog+4,w
  4192  061D  160A  158A  269B  120A  118A  	fcall	_clcd_putch
  4193                           
  4194                           ;display.c: 288:         clcd_write(0x0C, 0);
  4195  0622  30C9               	movlw	201
  4196  0623  1283               	bcf	3,5	;RP0=0, select bank0
  4197  0624  1303               	bcf	3,6	;RP1=0, select bank0
  4198  0625  00AA               	movwf	??_view_log
  4199  0626  082A               	movf	??_view_log,w
  4200  0627  00A7               	movwf	clcd_putch@addr
  4201  0628  0831               	movf	view_log@rlog+5,w
  4202  0629  160A  158A  269B  120A  118A  	fcall	_clcd_putch
  4203                           
  4204                           ;display.c: 289:  }
  4205  062E  30CB               	movlw	203
  4206  062F  1283               	bcf	3,5	;RP0=0, select bank0
  4207  0630  1303               	bcf	3,6	;RP1=0, select bank0
  4208  0631  00AA               	movwf	??_view_log
  4209  0632  082A               	movf	??_view_log,w
  4210  0633  00A7               	movwf	clcd_putch@addr
  4211  0634  0832               	movf	view_log@rlog+6,w
  4212  0635  160A  158A  269B  120A  118A  	fcall	_clcd_putch
  4213                           
  4214                           ;display.c: 290: }
  4215  063A  30CC               	movlw	204
  4216  063B  1283               	bcf	3,5	;RP0=0, select bank0
  4217  063C  1303               	bcf	3,6	;RP1=0, select bank0
  4218  063D  00AA               	movwf	??_view_log
  4219  063E  082A               	movf	??_view_log,w
  4220  063F  00A7               	movwf	clcd_putch@addr
  4221  0640  0833               	movf	view_log@rlog+7,w
  4222  0641  160A  158A  269B  120A  118A  	fcall	_clcd_putch
  4223                           
  4224                           ;display.c: 291: 
  4225  0646  30CE               	movlw	206
  4226  0647  1283               	bcf	3,5	;RP0=0, select bank0
  4227  0648  1303               	bcf	3,6	;RP1=0, select bank0
  4228  0649  00AA               	movwf	??_view_log
  4229  064A  082A               	movf	??_view_log,w
  4230  064B  00A7               	movwf	clcd_putch@addr
  4231  064C  0834               	movf	view_log@rlog+8,w
  4232  064D  160A  158A  269B  120A  118A  	fcall	_clcd_putch
  4233                           
  4234                           ;display.c: 292: 
  4235  0652  30CF               	movlw	207
  4236  0653  1283               	bcf	3,5	;RP0=0, select bank0
  4237  0654  1303               	bcf	3,6	;RP1=0, select bank0
  4238  0655  00AA               	movwf	??_view_log
  4239  0656  082A               	movf	??_view_log,w
  4240  0657  00A7               	movwf	clcd_putch@addr
  4241  0658  0835               	movf	view_log@rlog+9,w
  4242  0659  160A  158A  269B  120A  118A  	fcall	_clcd_putch
  4243  065E                     l4883:
  4244                           
  4245                           ;display.c: 293: char clear_log (char reset_memory)
  4246  065E  3000               	movlw	0
  4247  065F  1283               	bcf	3,5	;RP0=0, select bank0
  4248  0660  1303               	bcf	3,6	;RP1=0, select bank0
  4249  0661  00BC               	movwf	view_log@i_185+3
  4250  0662  3000               	movlw	0
  4251  0663  00BB               	movwf	view_log@i_185+2
  4252  0664  3000               	movlw	0
  4253  0665  00BA               	movwf	view_log@i_185+1
  4254  0666  3000               	movlw	0
  4255  0667  00B9               	movwf	view_log@i_185
  4256  0668                     l4889:
  4257  0668  3001               	movlw	1
  4258  0669  1283               	bcf	3,5	;RP0=0, select bank0
  4259  066A  1303               	bcf	3,6	;RP1=0, select bank0
  4260  066B  07B9               	addwf	view_log@i_185,f
  4261  066C  3000               	movlw	0
  4262  066D  1803               	skipnc
  4263  066E  3001               	movlw	1
  4264  066F  07BA               	addwf	view_log@i_185+1,f
  4265  0670  3000               	movlw	0
  4266  0671  1803               	skipnc
  4267  0672  3001               	movlw	1
  4268  0673  07BB               	addwf	view_log@i_185+2,f
  4269  0674  3000               	movlw	0
  4270  0675  1803               	skipnc
  4271  0676  3001               	movlw	1
  4272  0677  07BC               	addwf	view_log@i_185+3,f
  4273  0678                     l4891:
  4274  0678  083C               	movf	view_log@i_185+3,w
  4275  0679  1D03               	btfss	3,2
  4276  067A  2E8A               	goto	u4570
  4277  067B  083B               	movf	view_log@i_185+2,w
  4278  067C  1D03               	btfss	3,2
  4279  067D  2E8A               	goto	u4570
  4280  067E  304E               	movlw	78
  4281  067F  023A               	subwf	view_log@i_185+1,w
  4282  0680  1D03               	skipz
  4283  0681  2E86               	goto	u4573
  4284  0682  3020               	movlw	32
  4285  0683  0239               	subwf	view_log@i_185,w
  4286  0684  1D03               	skipz
  4287  0685  2E86               	goto	u4573
  4288  0686                     u4573:
  4289  0686  1C03               	btfss	3,0
  4290  0687  2E89               	goto	u4571
  4291  0688  2E8A               	goto	u4570
  4292  0689                     u4571:
  4293  0689  2E68               	goto	l4889
  4294  068A                     u4570:
  4295  068A                     l4893:
  4296                           
  4297                           ;display.c: 294: {
  4298  068A  01F3               	clrf	clcd_write@mode
  4299  068B  300C               	movlw	12
  4300  068C  160A  118A  2277  120A  118A  	fcall	_clcd_write
  4301  0691                     l208:
  4302  0691  0008               	return
  4303  0692                     __end_of_view_log:
  4304                           
  4305                           	psect	text2
  4306  1FAD                     __ptext2:	
  4307 ;; *************** function _strcpy *****************
  4308 ;; Defined at:
  4309 ;;		line 8 in file "C:\Program Files\Microchip\xc8\v2.36\pic\sources\c90\common\strcpy.c"
  4310 ;; Parameters:    Size  Location     Type
  4311 ;;  to              1    wreg     PTR unsigned char 
  4312 ;;		 -> main@event(3), 
  4313 ;;  from            2    3[COMMON] PTR const unsigned char 
  4314 ;;		 -> STR_40(3), STR_39(3), STR_38(3), STR_37(3), 
  4315 ;;		 -> STR_36(3), STR_35(3), STR_34(3), 
  4316 ;; Auto vars:     Size  Location     Type
  4317 ;;  to              1    7[COMMON] PTR unsigned char 
  4318 ;;		 -> main@event(3), 
  4319 ;;  cp              1    6[COMMON] PTR unsigned char 
  4320 ;;		 -> main@event(3), 
  4321 ;; Return value:  Size  Location     Type
  4322 ;;                  1    wreg      PTR unsigned char 
  4323 ;; Registers used:
  4324 ;;		wreg, fsr0l, fsr0h, status,2, status,0, btemp+1, pclath
  4325 ;; Tracked objects:
  4326 ;;		On entry : 0/0
  4327 ;;		On exit  : 0/0
  4328 ;;		Unchanged: 0/0
  4329 ;; Data sizes:     COMMON   BANK0   BANK1   BANK3   BANK2
  4330 ;;      Params:         2       0       0       0       0
  4331 ;;      Locals:         2       0       0       0       0
  4332 ;;      Temps:          1       0       0       0       0
  4333 ;;      Totals:         5       0       0       0       0
  4334 ;;Total ram usage:        5 bytes
  4335 ;; Hardware stack levels used: 2
  4336 ;; Hardware stack levels required when called: 1
  4337 ;; This function calls:
  4338 ;;		Nothing
  4339 ;; This function is called by:
  4340 ;;		_main
  4341 ;; This function uses a non-reentrant model
  4342 ;;
  4343                           
  4344  1FAD                     _strcpy:	
  4345                           ;psect for function _strcpy
  4346                           
  4347                           
  4348                           ;incstack = 0
  4349                           ; Regs used in _strcpy: [wreg-fsr0h+status,2+status,0+btemp+1+pclath]
  4350                           ;strcpy@to stored from wreg
  4351  1FAD  00F7               	movwf	strcpy@to
  4352  1FAE                     l5193:
  4353  1FAE  0877               	movf	strcpy@to,w
  4354  1FAF  00F5               	movwf	??_strcpy
  4355  1FB0  0875               	movf	??_strcpy,w
  4356  1FB1  00F6               	movwf	strcpy@cp
  4357  1FB2  2FBD               	goto	l5199
  4358  1FB3                     l5195:
  4359  1FB3  3001               	movlw	1
  4360  1FB4  00F5               	movwf	??_strcpy
  4361  1FB5  0875               	movf	??_strcpy,w
  4362  1FB6  07F6               	addwf	strcpy@cp,f
  4363  1FB7                     l5197:
  4364  1FB7  3001               	movlw	1
  4365  1FB8  07F3               	addwf	strcpy@from,f
  4366  1FB9  1803               	skipnc
  4367  1FBA  0AF4               	incf	strcpy@from+1,f
  4368  1FBB  3000               	movlw	0
  4369  1FBC  07F4               	addwf	strcpy@from+1,f
  4370  1FBD                     l5199:
  4371  1FBD  0874               	movf	strcpy@from+1,w
  4372  1FBE  1283               	bcf	3,5	;RP0=0, select bank0
  4373  1FBF  1303               	bcf	3,6	;RP1=0, select bank0
  4374  1FC0  00FF               	movwf	btemp+1
  4375  1FC1  0873               	movf	strcpy@from,w
  4376  1FC2  0084               	movwf	4
  4377  1FC3  160A  158A  2000  160A  158A  	fcall	stringtab
  4378  1FC8  00F5               	movwf	??_strcpy
  4379  1FC9  0876               	movf	strcpy@cp,w
  4380  1FCA  0084               	movwf	4
  4381  1FCB  0875               	movf	??_strcpy,w
  4382  1FCC  1383               	bcf	3,7	;select IRP bank0
  4383  1FCD  0080               	movwf	0
  4384  1FCE  0800               	movf	0,w
  4385  1FCF  1D03               	btfss	3,2
  4386  1FD0  2FD2               	goto	u4891
  4387  1FD1  2FD3               	goto	u4890
  4388  1FD2                     u4891:
  4389  1FD2  2FB3               	goto	l5195
  4390  1FD3                     u4890:
  4391  1FD3                     l1104:
  4392  1FD3  0008               	return
  4393  1FD4                     __end_of_strcpy:
  4394                           
  4395                           	psect	text3
  4396  0833                     __ptext3:	
  4397 ;; *************** function _read_digital_keypad *****************
  4398 ;; Defined at:
  4399 ;;		line 12 in file "digital_keypad.c"
  4400 ;; Parameters:    Size  Location     Type
  4401 ;;		None
  4402 ;; Auto vars:     Size  Location     Type
  4403 ;;  key             1    4[COMMON] unsigned char 
  4404 ;; Return value:  Size  Location     Type
  4405 ;;                  1    wreg      unsigned char 
  4406 ;; Registers used:
  4407 ;;		wreg, status,2, status,0, btemp+1
  4408 ;; Tracked objects:
  4409 ;;		On entry : 0/0
  4410 ;;		On exit  : 0/0
  4411 ;;		Unchanged: 0/0
  4412 ;; Data sizes:     COMMON   BANK0   BANK1   BANK3   BANK2
  4413 ;;      Params:         0       0       0       0       0
  4414 ;;      Locals:         1       0       0       0       0
  4415 ;;      Temps:          1       0       0       0       0
  4416 ;;      Totals:         2       0       0       0       0
  4417 ;;Total ram usage:        2 bytes
  4418 ;; Hardware stack levels used: 1
  4419 ;; Hardware stack levels required when called: 1
  4420 ;; This function calls:
  4421 ;;		Nothing
  4422 ;; This function is called by:
  4423 ;;		_main
  4424 ;; This function uses a non-reentrant model
  4425 ;;
  4426                           
  4427  0833                     _read_digital_keypad:	
  4428                           ;psect for function _read_digital_keypad
  4429                           
  4430  0833                     l4599:	
  4431                           ;incstack = 0
  4432                           ; Regs used in _read_digital_keypad: [wreg+status,2+status,0+btemp+1]
  4433                           
  4434                           
  4435                           ;digital_keypad.c: 14:  {;digital_keypad.c: 15:   once = 1;;digital_keypad.c: 16:   long
      +                          pressed = 0 ;;digital_keypad.c: 17:   pre_key = key;
  4436  0833  1283               	bcf	3,5	;RP0=0, select bank0
  4437  0834  1303               	bcf	3,6	;RP1=0, select bank0
  4438  0835  0806               	movf	6,w	;volatile
  4439  0836  393F               	andlw	63
  4440  0837  00F3               	movwf	??_read_digital_keypad
  4441  0838  0873               	movf	??_read_digital_keypad,w
  4442  0839  00F4               	movwf	read_digital_keypad@key
  4443  083A                     l4601:
  4444                           
  4445                           ;digital_keypad.c: 18:  }
  4446  083A  303F               	movlw	63
  4447  083B  0674               	xorwf	read_digital_keypad@key,w
  4448  083C  1903               	btfsc	3,2
  4449  083D  283F               	goto	u4171
  4450  083E  2840               	goto	u4170
  4451  083F                     u4171:
  4452  083F  284E               	goto	l4611
  4453  0840                     u4170:
  4454  0840                     l4603:
  4455  0840  087A               	movf	read_digital_keypad@once,w
  4456  0841  1D03               	btfss	3,2
  4457  0842  2844               	goto	u4181
  4458  0843  2845               	goto	u4180
  4459  0844                     u4181:
  4460  0844  284E               	goto	l4611
  4461  0845                     u4180:
  4462  0845                     l4605:
  4463                           
  4464                           ;digital_keypad.c: 19:  else if( key == 0x3F && once );digital_keypad.c: 20:  {
  4465  0845  01FA               	clrf	read_digital_keypad@once
  4466  0846  0AFA               	incf	read_digital_keypad@once,f
  4467  0847                     l4607:
  4468                           
  4469                           ;digital_keypad.c: 21:   once = 0;
  4470  0847  01E6               	clrf	read_digital_keypad@longpressed
  4471  0848  01E7               	clrf	read_digital_keypad@longpressed+1
  4472  0849                     l4609:
  4473                           
  4474                           ;digital_keypad.c: 22:   if ( longpressed < 30 )
  4475  0849  0874               	movf	read_digital_keypad@key,w
  4476  084A  00F3               	movwf	??_read_digital_keypad
  4477  084B  0873               	movf	??_read_digital_keypad,w
  4478  084C  00F9               	movwf	read_digital_keypad@pre_key
  4479                           
  4480                           ;digital_keypad.c: 23:   return pre_key ;
  4481  084D  28BC               	goto	l4651
  4482  084E                     l4611:
  4483  084E  303F               	movlw	63
  4484  084F  0674               	xorwf	read_digital_keypad@key,w
  4485  0850  1D03               	btfss	3,2
  4486  0851  2853               	goto	u4191
  4487  0852  2854               	goto	u4190
  4488  0853                     u4191:
  4489  0853  2869               	goto	l4623
  4490  0854                     u4190:
  4491  0854                     l4613:
  4492  0854  087A               	movf	read_digital_keypad@once,w
  4493  0855  1903               	btfsc	3,2
  4494  0856  2858               	goto	u4201
  4495  0857  2859               	goto	u4200
  4496  0858                     u4201:
  4497  0858  2869               	goto	l4623
  4498  0859                     u4200:
  4499  0859                     l4615:
  4500                           
  4501                           ;digital_keypad.c: 25:  else if (once && longpressed <= 30 );digital_keypad.c: 26:   lon
      +                          gpressed++;
  4502  0859  01FA               	clrf	read_digital_keypad@once
  4503  085A                     l4617:
  4504                           
  4505                           ;digital_keypad.c: 27:  else if ( once && longpressed == 31 && key == 0x37)
  4506  085A  0867               	movf	read_digital_keypad@longpressed+1,w
  4507  085B  3A80               	xorlw	128
  4508  085C  00FF               	movwf	btemp+1
  4509  085D  3080               	movlw	128
  4510  085E  027F               	subwf	btemp+1,w
  4511  085F  1D03               	skipz
  4512  0860  2863               	goto	u4215
  4513  0861  301E               	movlw	30
  4514  0862  0266               	subwf	read_digital_keypad@longpressed,w
  4515  0863                     u4215:
  4516  0863  1803               	skipnc
  4517  0864  2866               	goto	u4211
  4518  0865  2867               	goto	u4210
  4519  0866                     u4211:
  4520  0866  28BC               	goto	l4651
  4521  0867                     u4210:
  4522  0867                     l4619:
  4523                           
  4524                           ;digital_keypad.c: 28:  {
  4525  0867  0879               	movf	read_digital_keypad@pre_key,w
  4526  0868  28BD               	goto	l77
  4527  0869                     l4623:
  4528  0869  087A               	movf	read_digital_keypad@once,w
  4529  086A  1903               	btfsc	3,2
  4530  086B  286D               	goto	u4221
  4531  086C  286E               	goto	u4220
  4532  086D                     u4221:
  4533  086D  2884               	goto	l4629
  4534  086E                     u4220:
  4535  086E                     l4625:
  4536  086E  0867               	movf	read_digital_keypad@longpressed+1,w
  4537  086F  3A80               	xorlw	128
  4538  0870  00FF               	movwf	btemp+1
  4539  0871  3080               	movlw	128
  4540  0872  027F               	subwf	btemp+1,w
  4541  0873  1D03               	skipz
  4542  0874  2877               	goto	u4235
  4543  0875  301F               	movlw	31
  4544  0876  0266               	subwf	read_digital_keypad@longpressed,w
  4545  0877                     u4235:
  4546  0877  1803               	skipnc
  4547  0878  287A               	goto	u4231
  4548  0879  287B               	goto	u4230
  4549  087A                     u4231:
  4550  087A  2884               	goto	l4629
  4551  087B                     u4230:
  4552  087B                     l4627:
  4553                           
  4554                           ;digital_keypad.c: 31:  }
  4555  087B  3001               	movlw	1
  4556  087C  1283               	bcf	3,5	;RP0=0, select bank0
  4557  087D  1303               	bcf	3,6	;RP1=0, select bank0
  4558  087E  07E6               	addwf	read_digital_keypad@longpressed,f
  4559  087F  1803               	skipnc
  4560  0880  0AE7               	incf	read_digital_keypad@longpressed+1,f
  4561  0881  3000               	movlw	0
  4562  0882  07E7               	addwf	read_digital_keypad@longpressed+1,f
  4563  0883  28BC               	goto	l4651
  4564  0884                     l4629:
  4565  0884  087A               	movf	read_digital_keypad@once,w
  4566  0885  1903               	btfsc	3,2
  4567  0886  2888               	goto	u4241
  4568  0887  2889               	goto	u4240
  4569  0888                     u4241:
  4570  0888  28A0               	goto	l4641
  4571  0889                     u4240:
  4572  0889                     l4631:
  4573  0889  301F               	movlw	31
  4574  088A  1283               	bcf	3,5	;RP0=0, select bank0
  4575  088B  1303               	bcf	3,6	;RP1=0, select bank0
  4576  088C  0666               	xorwf	read_digital_keypad@longpressed,w
  4577  088D  0467               	iorwf	read_digital_keypad@longpressed+1,w
  4578  088E  1D03               	btfss	3,2
  4579  088F  2891               	goto	u4251
  4580  0890  2892               	goto	u4250
  4581  0891                     u4251:
  4582  0891  28A0               	goto	l4641
  4583  0892                     u4250:
  4584  0892                     l4633:
  4585  0892  3037               	movlw	55
  4586  0893  0674               	xorwf	read_digital_keypad@key,w
  4587  0894  1D03               	btfss	3,2
  4588  0895  2897               	goto	u4261
  4589  0896  2898               	goto	u4260
  4590  0897                     u4261:
  4591  0897  28A0               	goto	l4641
  4592  0898                     u4260:
  4593  0898                     l4635:
  4594                           
  4595                           ;digital_keypad.c: 33:  {;digital_keypad.c: 34:   longpressed++;
  4596  0898  3001               	movlw	1
  4597  0899  07E6               	addwf	read_digital_keypad@longpressed,f
  4598  089A  1803               	skipnc
  4599  089B  0AE7               	incf	read_digital_keypad@longpressed+1,f
  4600  089C  3000               	movlw	0
  4601  089D  07E7               	addwf	read_digital_keypad@longpressed+1,f
  4602                           
  4603                           ;digital_keypad.c: 35:   return 0x22;
  4604  089E  3011               	movlw	17
  4605  089F  28BD               	goto	l77
  4606  08A0                     l4641:
  4607  08A0  087A               	movf	read_digital_keypad@once,w
  4608  08A1  1903               	btfsc	3,2
  4609  08A2  28A4               	goto	u4271
  4610  08A3  28A5               	goto	u4270
  4611  08A4                     u4271:
  4612  08A4  28BC               	goto	l4651
  4613  08A5                     u4270:
  4614  08A5                     l4643:
  4615  08A5  301F               	movlw	31
  4616  08A6  1283               	bcf	3,5	;RP0=0, select bank0
  4617  08A7  1303               	bcf	3,6	;RP1=0, select bank0
  4618  08A8  0666               	xorwf	read_digital_keypad@longpressed,w
  4619  08A9  0467               	iorwf	read_digital_keypad@longpressed+1,w
  4620  08AA  1D03               	btfss	3,2
  4621  08AB  28AD               	goto	u4281
  4622  08AC  28AE               	goto	u4280
  4623  08AD                     u4281:
  4624  08AD  28BC               	goto	l4651
  4625  08AE                     u4280:
  4626  08AE                     l4645:
  4627  08AE  302F               	movlw	47
  4628  08AF  0674               	xorwf	read_digital_keypad@key,w
  4629  08B0  1D03               	btfss	3,2
  4630  08B1  28B3               	goto	u4291
  4631  08B2  28B4               	goto	u4290
  4632  08B3                     u4291:
  4633  08B3  28BC               	goto	l4651
  4634  08B4                     u4290:
  4635  08B4                     l4647:
  4636                           
  4637                           ;digital_keypad.c: 38: }
  4638  08B4  3001               	movlw	1
  4639  08B5  07E6               	addwf	read_digital_keypad@longpressed,f
  4640  08B6  1803               	skipnc
  4641  08B7  0AE7               	incf	read_digital_keypad@longpressed+1,f
  4642  08B8  3000               	movlw	0
  4643  08B9  07E7               	addwf	read_digital_keypad@longpressed+1,f
  4644  08BA  3022               	movlw	34
  4645  08BB  28BD               	goto	l77
  4646  08BC                     l4651:
  4647  08BC  303F               	movlw	63
  4648  08BD                     l77:
  4649  08BD  0008               	return
  4650  08BE                     __end_of_read_digital_keypad:
  4651                           
  4652                           	psect	text4
  4653  1E76                     __ptext4:	
  4654 ;; *************** function _read_adc *****************
  4655 ;; Defined at:
  4656 ;;		line 15 in file "adc.c"
  4657 ;; Parameters:    Size  Location     Type
  4658 ;;		None
  4659 ;; Auto vars:     Size  Location     Type
  4660 ;;  adc_reg_val     2    5[COMMON] unsigned short 
  4661 ;; Return value:  Size  Location     Type
  4662 ;;                  2    3[COMMON] unsigned short 
  4663 ;; Registers used:
  4664 ;;		wreg
  4665 ;; Tracked objects:
  4666 ;;		On entry : 0/0
  4667 ;;		On exit  : 0/0
  4668 ;;		Unchanged: 0/0
  4669 ;; Data sizes:     COMMON   BANK0   BANK1   BANK3   BANK2
  4670 ;;      Params:         2       0       0       0       0
  4671 ;;      Locals:         2       0       0       0       0
  4672 ;;      Temps:          0       0       0       0       0
  4673 ;;      Totals:         4       0       0       0       0
  4674 ;;Total ram usage:        4 bytes
  4675 ;; Hardware stack levels used: 1
  4676 ;; Hardware stack levels required when called: 1
  4677 ;; This function calls:
  4678 ;;		Nothing
  4679 ;; This function is called by:
  4680 ;;		_main
  4681 ;; This function uses a non-reentrant model
  4682 ;;
  4683                           
  4684  1E76                     _read_adc:	
  4685                           ;psect for function _read_adc
  4686                           
  4687  1E76                     l4593:	
  4688                           ;incstack = 0
  4689                           ; Regs used in _read_adc: [wreg]
  4690                           
  4691                           
  4692                           ;adc.c: 17:     unsigned short adc_reg_val;;adc.c: 20:     GO = 1;
  4693  1E76  1283               	bcf	3,5	;RP0=0, select bank0
  4694  1E77  1303               	bcf	3,6	;RP1=0, select bank0
  4695  1E78  151F               	bsf	31,2	;volatile
  4696  1E79                     l18:	
  4697                           ;adc.c: 22:     while (nDONE);
  4698                           
  4699  1E79  191F               	btfsc	31,2	;volatile
  4700  1E7A  2E7C               	goto	u4161
  4701  1E7B  2E7D               	goto	u4160
  4702  1E7C                     u4161:
  4703  1E7C  2E79               	goto	l18
  4704  1E7D                     u4160:
  4705  1E7D                     l4595:
  4706                           
  4707                           ;adc.c: 24:     adc_reg_val = (ADRESH << 8) | ADRESL;
  4708  1E7D  081E               	movf	30,w	;volatile
  4709  1E7E  00F6               	movwf	read_adc@adc_reg_val+1
  4710  1E7F  1683               	bsf	3,5	;RP0=1, select bank1
  4711  1E80  1303               	bcf	3,6	;RP1=0, select bank1
  4712  1E81  081E               	movf	30,w	;volatile
  4713  1E82  00F5               	movwf	read_adc@adc_reg_val
  4714                           
  4715                           ;adc.c: 28:     return adc_reg_val;
  4716  1E83  0876               	movf	read_adc@adc_reg_val+1,w
  4717  1E84  00F4               	movwf	?_read_adc+1
  4718  1E85  0875               	movf	read_adc@adc_reg_val,w
  4719  1E86  00F3               	movwf	?_read_adc
  4720  1E87                     l21:
  4721  1E87  0008               	return
  4722  1E88                     __end_of_read_adc:
  4723                           
  4724                           	psect	text5
  4725  08BE                     __ptext5:	
  4726 ;; *************** function _login_menu *****************
  4727 ;; Defined at:
  4728 ;;		line 197 in file "display.c"
  4729 ;; Parameters:    Size  Location     Type
  4730 ;;  key             1    wreg     unsigned char 
  4731 ;;  reset_flag      1    9[BANK0 ] unsigned char 
  4732 ;; Auto vars:     Size  Location     Type
  4733 ;;  key             1   13[BANK0 ] unsigned char 
  4734 ;; Return value:  Size  Location     Type
  4735 ;;                  1    wreg      unsigned char 
  4736 ;; Registers used:
  4737 ;;		wreg, fsr0l, fsr0h, status,2, status,0, btemp+1, pclath, cstack
  4738 ;; Tracked objects:
  4739 ;;		On entry : 0/0
  4740 ;;		On exit  : 0/0
  4741 ;;		Unchanged: 0/0
  4742 ;; Data sizes:     COMMON   BANK0   BANK1   BANK3   BANK2
  4743 ;;      Params:         0       1       0       0       0
  4744 ;;      Locals:         0       1       0       0       0
  4745 ;;      Temps:          0       3       0       0       0
  4746 ;;      Totals:         0       5       0       0       0
  4747 ;;Total ram usage:        5 bytes
  4748 ;; Hardware stack levels used: 1
  4749 ;; Hardware stack levels required when called: 3
  4750 ;; This function calls:
  4751 ;;		_clcd_print
  4752 ;;		_clcd_putch
  4753 ;;		_clcd_write
  4754 ;; This function is called by:
  4755 ;;		_main
  4756 ;; This function uses a non-reentrant model
  4757 ;;
  4758                           
  4759  08BE                     _login_menu:	
  4760                           ;psect for function _login_menu
  4761                           
  4762                           
  4763                           ;incstack = 0
  4764                           ; Regs used in _login_menu: [wreg-fsr0h+status,2+status,0+btemp+1+pclath+cstack]
  4765                           ;login_menu@key stored from wreg
  4766  08BE  1283               	bcf	3,5	;RP0=0, select bank0
  4767  08BF  1303               	bcf	3,6	;RP1=0, select bank0
  4768  08C0  00AD               	movwf	login_menu@key
  4769  08C1                     l4785:
  4770                           
  4771                           ;display.c: 197:   menu_pos = 0;;display.c: 198:   select_pos = 1;;display.c: 199:  };di
      +                          splay.c: 200: ;display.c: 201:  if ( key == 0x2F && menu_pos < 4 )
  4772  08C1  3005               	movlw	5
  4773  08C2  0629               	xorwf	login_menu@reset_flag,w
  4774  08C3  1D03               	btfss	3,2
  4775  08C4  28C6               	goto	u4411
  4776  08C5  28C7               	goto	u4410
  4777  08C6                     u4411:
  4778  08C6  28CD               	goto	l4791
  4779  08C7                     u4410:
  4780  08C7                     l4787:
  4781                           
  4782                           ;display.c: 202:  {;display.c: 203:   menu_pos++;
  4783  08C7  01D3               	clrf	login_menu@menu_pos
  4784  08C8  01D4               	clrf	login_menu@menu_pos+1
  4785  08C9                     l4789:
  4786                           
  4787                           ;display.c: 204:   if ( select_pos < 2 )
  4788  08C9  3001               	movlw	1
  4789  08CA  00E0               	movwf	login_menu@select_pos
  4790  08CB  3000               	movlw	0
  4791  08CC  00E1               	movwf	login_menu@select_pos+1
  4792  08CD                     l4791:
  4793                           
  4794                           ;display.c: 207:         clcd_write(0x01, 0);
  4795  08CD  302F               	movlw	47
  4796  08CE  062D               	xorwf	login_menu@key,w
  4797  08CF  1D03               	btfss	3,2
  4798  08D0  28D2               	goto	u4421
  4799  08D1  28D3               	goto	u4420
  4800  08D2                     u4421:
  4801  08D2  2905               	goto	l4803
  4802  08D3                     u4420:
  4803  08D3                     l4793:
  4804  08D3  0854               	movf	login_menu@menu_pos+1,w
  4805  08D4  3A80               	xorlw	128
  4806  08D5  00FF               	movwf	btemp+1
  4807  08D6  3080               	movlw	128
  4808  08D7  027F               	subwf	btemp+1,w
  4809  08D8  1D03               	skipz
  4810  08D9  28DC               	goto	u4435
  4811  08DA  3004               	movlw	4
  4812  08DB  0253               	subwf	login_menu@menu_pos,w
  4813  08DC                     u4435:
  4814  08DC  1803               	skipnc
  4815  08DD  28DF               	goto	u4431
  4816  08DE  28E0               	goto	u4430
  4817  08DF                     u4431:
  4818  08DF  2905               	goto	l4803
  4819  08E0                     u4430:
  4820  08E0                     l4795:
  4821                           
  4822                           ;display.c: 208:  };display.c: 209: 
  4823  08E0  3001               	movlw	1
  4824  08E1  1283               	bcf	3,5	;RP0=0, select bank0
  4825  08E2  1303               	bcf	3,6	;RP1=0, select bank0
  4826  08E3  07D3               	addwf	login_menu@menu_pos,f
  4827  08E4  1803               	skipnc
  4828  08E5  0AD4               	incf	login_menu@menu_pos+1,f
  4829  08E6  3000               	movlw	0
  4830  08E7  07D4               	addwf	login_menu@menu_pos+1,f
  4831  08E8                     l4797:
  4832                           
  4833                           ;display.c: 210:  else if( key == 0x37 && menu_pos > 0)
  4834  08E8  0861               	movf	login_menu@select_pos+1,w
  4835  08E9  3A80               	xorlw	128
  4836  08EA  00FF               	movwf	btemp+1
  4837  08EB  3080               	movlw	128
  4838  08EC  027F               	subwf	btemp+1,w
  4839  08ED  1D03               	skipz
  4840  08EE  28F1               	goto	u4445
  4841  08EF  3002               	movlw	2
  4842  08F0  0260               	subwf	login_menu@select_pos,w
  4843  08F1                     u4445:
  4844  08F1  1803               	skipnc
  4845  08F2  28F4               	goto	u4441
  4846  08F3  28F5               	goto	u4440
  4847  08F4                     u4441:
  4848  08F4  28FD               	goto	l4801
  4849  08F5                     u4440:
  4850  08F5                     l4799:
  4851                           
  4852                           ;display.c: 211:  {
  4853  08F5  3001               	movlw	1
  4854  08F6  1283               	bcf	3,5	;RP0=0, select bank0
  4855  08F7  1303               	bcf	3,6	;RP1=0, select bank0
  4856  08F8  07E0               	addwf	login_menu@select_pos,f
  4857  08F9  1803               	skipnc
  4858  08FA  0AE1               	incf	login_menu@select_pos+1,f
  4859  08FB  3000               	movlw	0
  4860  08FC  07E1               	addwf	login_menu@select_pos+1,f
  4861  08FD                     l4801:
  4862                           
  4863                           ;display.c: 213:   if ( select_pos > 1 )
  4864  08FD  01F3               	clrf	clcd_write@mode
  4865  08FE  3001               	movlw	1
  4866  08FF  160A  118A  2277  120A  158A  	fcall	_clcd_write
  4867                           
  4868                           ;display.c: 214:    select_pos--;
  4869  0904  293E               	goto	l4815
  4870  0905                     l4803:
  4871  0905  3037               	movlw	55
  4872  0906  1283               	bcf	3,5	;RP0=0, select bank0
  4873  0907  1303               	bcf	3,6	;RP1=0, select bank0
  4874  0908  062D               	xorwf	login_menu@key,w
  4875  0909  1D03               	btfss	3,2
  4876  090A  290C               	goto	u4451
  4877  090B  290D               	goto	u4450
  4878  090C                     u4451:
  4879  090C  293E               	goto	l4815
  4880  090D                     u4450:
  4881  090D                     l4805:
  4882  090D  0854               	movf	login_menu@menu_pos+1,w
  4883  090E  3A80               	xorlw	128
  4884  090F  00FF               	movwf	btemp+1
  4885  0910  3080               	movlw	128
  4886  0911  027F               	subwf	btemp+1,w
  4887  0912  1D03               	skipz
  4888  0913  2916               	goto	u4465
  4889  0914  3001               	movlw	1
  4890  0915  0253               	subwf	login_menu@menu_pos,w
  4891  0916                     u4465:
  4892  0916  1C03               	skipc
  4893  0917  2919               	goto	u4461
  4894  0918  291A               	goto	u4460
  4895  0919                     u4461:
  4896  0919  293E               	goto	l4815
  4897  091A                     u4460:
  4898  091A                     l4807:
  4899                           
  4900                           ;display.c: 217: ;display.c: 218:  if ( select_pos == 1 )
  4901  091A  30FF               	movlw	255
  4902  091B  1283               	bcf	3,5	;RP0=0, select bank0
  4903  091C  1303               	bcf	3,6	;RP1=0, select bank0
  4904  091D  07D3               	addwf	login_menu@menu_pos,f
  4905  091E  1803               	skipnc
  4906  091F  0AD4               	incf	login_menu@menu_pos+1,f
  4907  0920  30FF               	movlw	255
  4908  0921  07D4               	addwf	login_menu@menu_pos+1,f
  4909  0922                     l4809:
  4910                           
  4911                           ;display.c: 219:  {
  4912  0922  0861               	movf	login_menu@select_pos+1,w
  4913  0923  3A80               	xorlw	128
  4914  0924  00FF               	movwf	btemp+1
  4915  0925  3080               	movlw	128
  4916  0926  027F               	subwf	btemp+1,w
  4917  0927  1D03               	skipz
  4918  0928  292B               	goto	u4475
  4919  0929  3002               	movlw	2
  4920  092A  0260               	subwf	login_menu@select_pos,w
  4921  092B                     u4475:
  4922  092B  1C03               	skipc
  4923  092C  292E               	goto	u4471
  4924  092D  292F               	goto	u4470
  4925  092E                     u4471:
  4926  092E  2937               	goto	l4813
  4927  092F                     u4470:
  4928  092F                     l4811:
  4929                           
  4930                           ;display.c: 220:   clcd_putch('*',(0x80 + 0));
  4931  092F  30FF               	movlw	255
  4932  0930  1283               	bcf	3,5	;RP0=0, select bank0
  4933  0931  1303               	bcf	3,6	;RP1=0, select bank0
  4934  0932  07E0               	addwf	login_menu@select_pos,f
  4935  0933  1803               	skipnc
  4936  0934  0AE1               	incf	login_menu@select_pos+1,f
  4937  0935  30FF               	movlw	255
  4938  0936  07E1               	addwf	login_menu@select_pos+1,f
  4939  0937                     l4813:
  4940                           
  4941                           ;display.c: 221:   clcd_print( menu[menu_pos],(0x80 + 2));
  4942  0937  01F3               	clrf	clcd_write@mode
  4943  0938  3001               	movlw	1
  4944  0939  160A  118A  2277  120A  158A  	fcall	_clcd_write
  4945  093E                     l4815:
  4946                           
  4947                           ;display.c: 224:  else
  4948  093E  1283               	bcf	3,5	;RP0=0, select bank0
  4949  093F  1303               	bcf	3,6	;RP1=0, select bank0
  4950  0940  0360               	decf	login_menu@select_pos,w
  4951  0941  0461               	iorwf	login_menu@select_pos+1,w
  4952  0942  1D03               	btfss	3,2
  4953  0943  2945               	goto	u4481
  4954  0944  2946               	goto	u4480
  4955  0945                     u4481:
  4956  0945  297F               	goto	l4823
  4957  0946                     u4480:
  4958  0946                     l4817:
  4959                           
  4960                           ;display.c: 225:  {;display.c: 226:   clcd_putch('*',(0xC0 + 0));
  4961  0946  3080               	movlw	128
  4962  0947  00AA               	movwf	??_login_menu
  4963  0948  082A               	movf	??_login_menu,w
  4964  0949  00A7               	movwf	clcd_putch@addr
  4965  094A  302A               	movlw	42
  4966  094B  160A  158A  269B  120A  158A  	fcall	_clcd_putch
  4967  0950                     l4819:
  4968                           
  4969                           ;display.c: 227:   clcd_print( menu[menu_pos-1],(0x80 + 2));
  4970  0950  1283               	bcf	3,5	;RP0=0, select bank0
  4971  0951  1303               	bcf	3,6	;RP1=0, select bank0
  4972  0952  0853               	movf	login_menu@menu_pos,w
  4973  0953  00AA               	movwf	??_login_menu
  4974  0954  072A               	addwf	??_login_menu,w
  4975  0955  3ED2               	addlw	(low (_menu| 0))& (0+255)
  4976  0956  0084               	movwf	4
  4977  0957  1383               	bcf	3,7	;select IRP bank1
  4978  0958  0800               	movf	0,w
  4979  0959  00A0               	movwf	clcd_print@str
  4980  095A  0A84               	incf	4,f
  4981  095B  0800               	movf	0,w
  4982  095C  0384               	decf	4,f
  4983  095D  00A1               	movwf	clcd_print@str+1
  4984  095E  3082               	movlw	130
  4985  095F  00AC               	movwf	??_login_menu+2
  4986  0960  082C               	movf	??_login_menu+2,w
  4987  0961  00A2               	movwf	clcd_print@addr
  4988  0962  160A  118A  2210  120A  158A  	fcall	_clcd_print
  4989  0967                     l4821:
  4990                           
  4991                           ;display.c: 228:   clcd_print( menu[menu_pos],(0xC0 + 2));
  4992  0967  1283               	bcf	3,5	;RP0=0, select bank0
  4993  0968  1303               	bcf	3,6	;RP1=0, select bank0
  4994  0969  0853               	movf	login_menu@menu_pos,w
  4995  096A  00AA               	movwf	??_login_menu
  4996  096B  072A               	addwf	??_login_menu,w
  4997  096C  3ED4               	addlw	(low ((_menu| 0+2)))& (0+255)
  4998  096D  0084               	movwf	4
  4999  096E  1383               	bcf	3,7	;select IRP bank1
  5000  096F  0800               	movf	0,w
  5001  0970  00A0               	movwf	clcd_print@str
  5002  0971  0A84               	incf	4,f
  5003  0972  0800               	movf	0,w
  5004  0973  0384               	decf	4,f
  5005  0974  00A1               	movwf	clcd_print@str+1
  5006  0975  30C2               	movlw	194
  5007  0976  00AC               	movwf	??_login_menu+2
  5008  0977  082C               	movf	??_login_menu+2,w
  5009  0978  00A2               	movwf	clcd_print@addr
  5010  0979  160A  118A  2210  120A  158A  	fcall	_clcd_print
  5011                           
  5012                           ;display.c: 229:  }
  5013  097E  29B7               	goto	l4829
  5014  097F                     l4823:
  5015                           
  5016                           ;display.c: 231:  return menu_pos;;display.c: 232: 
  5017  097F  30C0               	movlw	192
  5018  0980  00AA               	movwf	??_login_menu
  5019  0981  082A               	movf	??_login_menu,w
  5020  0982  00A7               	movwf	clcd_putch@addr
  5021  0983  302A               	movlw	42
  5022  0984  160A  158A  269B  120A  158A  	fcall	_clcd_putch
  5023  0989                     l4825:
  5024                           
  5025                           ;display.c: 233: }
  5026  0989  1283               	bcf	3,5	;RP0=0, select bank0
  5027  098A  1303               	bcf	3,6	;RP1=0, select bank0
  5028  098B  0853               	movf	login_menu@menu_pos,w
  5029  098C  00AA               	movwf	??_login_menu
  5030  098D  072A               	addwf	??_login_menu,w
  5031  098E  3ED0               	addlw	(low ((_menu| 0+254)))& (0+255)
  5032  098F  0084               	movwf	4
  5033  0990  1383               	bcf	3,7	;select IRP bank1
  5034  0991  0800               	movf	0,w
  5035  0992  00A0               	movwf	clcd_print@str
  5036  0993  0A84               	incf	4,f
  5037  0994  0800               	movf	0,w
  5038  0995  0384               	decf	4,f
  5039  0996  00A1               	movwf	clcd_print@str+1
  5040  0997  3082               	movlw	130
  5041  0998  00AC               	movwf	??_login_menu+2
  5042  0999  082C               	movf	??_login_menu+2,w
  5043  099A  00A2               	movwf	clcd_print@addr
  5044  099B  160A  118A  2210  120A  158A  	fcall	_clcd_print
  5045  09A0                     l4827:
  5046                           
  5047                           ;display.c: 234: 
  5048  09A0  1283               	bcf	3,5	;RP0=0, select bank0
  5049  09A1  1303               	bcf	3,6	;RP1=0, select bank0
  5050  09A2  0853               	movf	login_menu@menu_pos,w
  5051  09A3  00AA               	movwf	??_login_menu
  5052  09A4  072A               	addwf	??_login_menu,w
  5053  09A5  3ED2               	addlw	(low (_menu| 0))& (0+255)
  5054  09A6  0084               	movwf	4
  5055  09A7  1383               	bcf	3,7	;select IRP bank1
  5056  09A8  0800               	movf	0,w
  5057  09A9  00A0               	movwf	clcd_print@str
  5058  09AA  0A84               	incf	4,f
  5059  09AB  0800               	movf	0,w
  5060  09AC  0384               	decf	4,f
  5061  09AD  00A1               	movwf	clcd_print@str+1
  5062  09AE  30C2               	movlw	194
  5063  09AF  00AC               	movwf	??_login_menu+2
  5064  09B0  082C               	movf	??_login_menu+2,w
  5065  09B1  00A2               	movwf	clcd_print@addr
  5066  09B2  160A  118A  2210  120A  158A  	fcall	_clcd_print
  5067  09B7                     l4829:
  5068                           
  5069                           ;display.c: 237: 
  5070  09B7  1283               	bcf	3,5	;RP0=0, select bank0
  5071  09B8  1303               	bcf	3,6	;RP1=0, select bank0
  5072  09B9  0853               	movf	login_menu@menu_pos,w
  5073  09BA                     l189:
  5074  09BA  0008               	return
  5075  09BB                     __end_of_login_menu:
  5076                           
  5077                           	psect	text6
  5078  0B36                     __ptext6:	
  5079 ;; *************** function _login *****************
  5080 ;; Defined at:
  5081 ;;		line 104 in file "display.c"
  5082 ;; Parameters:    Size  Location     Type
  5083 ;;  key             1    wreg     unsigned char 
  5084 ;;  reset_flag      1    9[BANK0 ] unsigned char 
  5085 ;; Auto vars:     Size  Location     Type
  5086 ;;  key             1   17[BANK0 ] unsigned char 
  5087 ;;  spassword       5   12[BANK0 ] unsigned char [5]
  5088 ;; Return value:  Size  Location     Type
  5089 ;;                  1    wreg      unsigned char 
  5090 ;; Registers used:
  5091 ;;		wreg, fsr0l, fsr0h, status,2, status,0, btemp+1, pclath, cstack
  5092 ;; Tracked objects:
  5093 ;;		On entry : 0/0
  5094 ;;		On exit  : 0/0
  5095 ;;		Unchanged: 0/0
  5096 ;; Data sizes:     COMMON   BANK0   BANK1   BANK3   BANK2
  5097 ;;      Params:         0       1       0       0       0
  5098 ;;      Locals:         0       6       0       0       0
  5099 ;;      Temps:          0       2       0       0       0
  5100 ;;      Totals:         0       9       0       0       0
  5101 ;;Total ram usage:        9 bytes
  5102 ;; Hardware stack levels used: 1
  5103 ;; Hardware stack levels required when called: 5
  5104 ;; This function calls:
  5105 ;;		___awdiv
  5106 ;;		___awmod
  5107 ;;		_clcd_print
  5108 ;;		_clcd_putch
  5109 ;;		_clcd_write
  5110 ;;		_get_password
  5111 ;;		_strcmp
  5112 ;; This function is called by:
  5113 ;;		_main
  5114 ;; This function uses a non-reentrant model
  5115 ;;
  5116                           
  5117  0B36                     _login:	
  5118                           ;psect for function _login
  5119                           
  5120                           
  5121                           ;incstack = 0
  5122                           ; Regs used in _login: [wreg-fsr0h+status,2+status,0+btemp+1+pclath+cstack]
  5123                           ;login@key stored from wreg
  5124  0B36  1283               	bcf	3,5	;RP0=0, select bank0
  5125  0B37  1303               	bcf	3,6	;RP1=0, select bank0
  5126  0B38  00B1               	movwf	login@key
  5127  0B39                     l4673:
  5128                           
  5129                           ;display.c: 104:     if(reset_flag == 0x01);display.c: 105:     {;display.c: 106:       
      +                            key = 0x3F;;display.c: 107:         attempt_rem = 3;;display.c: 108:         i = 0;;di
      +                          splay.c: 109:         sec = 0;;display.c: 110:         npassword[0] = 0;
  5130  0B39  0329               	decf	login@reset_flag,w
  5131  0B3A  1D03               	btfss	3,2
  5132  0B3B  2B3D               	goto	u4301
  5133  0B3C  2B3E               	goto	u4300
  5134  0B3D                     u4301:
  5135  0B3D  2B56               	goto	l4693
  5136  0B3E                     u4300:
  5137  0B3E                     l4675:
  5138                           
  5139                           ;display.c: 111:         npassword[1] = 0;;display.c: 112:         npassword[2] = 0;
  5140  0B3E  303F               	movlw	63
  5141  0B3F  00AA               	movwf	??_login
  5142  0B40  082A               	movf	??_login,w
  5143  0B41  00B1               	movwf	login@key
  5144                           
  5145                           ;display.c: 113:         npassword[3] = 0;
  5146  0B42  3003               	movlw	3
  5147  0B43  00AA               	movwf	??_login
  5148  0B44  082A               	movf	??_login,w
  5149  0B45  00DD               	movwf	login@attempt_rem
  5150  0B46                     l4677:
  5151                           
  5152                           ;display.c: 114:         npassword[4] = '\0';
  5153  0B46  01DE               	clrf	login@i
  5154  0B47                     l4679:
  5155                           
  5156                           ;display.c: 115:          return_time = 5;
  5157  0B47  01D7               	clrf	_sec
  5158  0B48  01D8               	clrf	_sec+1
  5159  0B49                     l4681:
  5160                           
  5161                           ;display.c: 116: 
  5162  0B49  1683               	bsf	3,5	;RP0=1, select bank1
  5163  0B4A  1303               	bcf	3,6	;RP1=0, select bank1
  5164  0B4B  01C1               	clrf	login@npassword^(0+128)
  5165  0B4C                     l4683:
  5166                           
  5167                           ;display.c: 117:     }
  5168  0B4C  01C2               	clrf	(login@npassword^(0+128)+1)
  5169  0B4D                     l4685:
  5170                           
  5171                           ;display.c: 118:     if(return_time == 0)
  5172  0B4D  01C3               	clrf	(login@npassword^(0+128)+2)
  5173  0B4E                     l4687:
  5174                           
  5175                           ;display.c: 119:     {
  5176  0B4E  01C4               	clrf	(login@npassword^(0+128)+3)
  5177  0B4F                     l4689:
  5178                           
  5179                           ;display.c: 120:         return 0x03;
  5180  0B4F  01C5               	clrf	(login@npassword^(0+128)+4)
  5181  0B50                     l4691:
  5182                           
  5183                           ;display.c: 121:     }
  5184  0B50  3005               	movlw	5
  5185  0B51  1283               	bcf	3,5	;RP0=0, select bank0
  5186  0B52  1303               	bcf	3,6	;RP1=0, select bank0
  5187  0B53  00D5               	movwf	_return_time
  5188  0B54  3000               	movlw	0
  5189  0B55  00D6               	movwf	_return_time+1
  5190  0B56                     l4693:
  5191                           
  5192                           ;display.c: 124:     if (key == 0x37 && i < 4 )
  5193  0B56  0855               	movf	_return_time,w
  5194  0B57  0456               	iorwf	_return_time+1,w
  5195  0B58  1D03               	btfss	3,2
  5196  0B59  2B5B               	goto	u4311
  5197  0B5A  2B5C               	goto	u4310
  5198  0B5B                     u4311:
  5199  0B5B  2B5E               	goto	l4699
  5200  0B5C                     u4310:
  5201  0B5C                     l4695:
  5202                           
  5203                           ;display.c: 125:     {;display.c: 126:         return_time = 5;
  5204  0B5C  3003               	movlw	3
  5205  0B5D  2CD7               	goto	l160
  5206  0B5E                     l4699:
  5207                           
  5208                           ;display.c: 128:         clcd_putch('*',(0xC0 + 6 + i));
  5209  0B5E  01F3               	clrf	clcd_write@mode
  5210  0B5F  300F               	movlw	15
  5211  0B60  160A  118A  2277  120A  158A  	fcall	_clcd_write
  5212  0B65                     l4701:
  5213                           
  5214                           ;display.c: 130:     }
  5215  0B65  3037               	movlw	55
  5216  0B66  1283               	bcf	3,5	;RP0=0, select bank0
  5217  0B67  1303               	bcf	3,6	;RP1=0, select bank0
  5218  0B68  0631               	xorwf	login@key,w
  5219  0B69  1D03               	btfss	3,2
  5220  0B6A  2B6C               	goto	u4321
  5221  0B6B  2B6D               	goto	u4320
  5222  0B6C                     u4321:
  5223  0B6C  2B91               	goto	l4713
  5224  0B6D                     u4320:
  5225  0B6D                     l4703:
  5226  0B6D  3004               	movlw	4
  5227  0B6E  025E               	subwf	login@i,w
  5228  0B6F  1803               	skipnc
  5229  0B70  2B72               	goto	u4331
  5230  0B71  2B73               	goto	u4330
  5231  0B72                     u4331:
  5232  0B72  2B91               	goto	l4713
  5233  0B73                     u4330:
  5234  0B73                     l4705:
  5235                           
  5236                           ;display.c: 131: ;display.c: 132:     else if(key == 0x2F && i < 4 )
  5237  0B73  3005               	movlw	5
  5238  0B74  00D5               	movwf	_return_time
  5239  0B75  3000               	movlw	0
  5240  0B76  00D6               	movwf	_return_time+1
  5241  0B77                     l4707:
  5242                           
  5243                           ;display.c: 133:     {
  5244  0B77  3031               	movlw	49
  5245  0B78  00AA               	movwf	??_login
  5246  0B79  085E               	movf	login@i,w
  5247  0B7A  3EC1               	addlw	(low (login@npassword| 0))& (0+255)
  5248  0B7B  0084               	movwf	4
  5249  0B7C  082A               	movf	??_login,w
  5250  0B7D  1383               	bcf	3,7	;select IRP bank1
  5251  0B7E  0080               	movwf	0
  5252  0B7F                     l4709:
  5253                           
  5254                           ;display.c: 134:         return_time = 5;
  5255  0B7F  085E               	movf	login@i,w
  5256  0B80  3EC6               	addlw	198
  5257  0B81  00AA               	movwf	??_login
  5258  0B82  082A               	movf	??_login,w
  5259  0B83  00A7               	movwf	clcd_putch@addr
  5260  0B84  302A               	movlw	42
  5261  0B85  160A  158A  269B  120A  158A  	fcall	_clcd_putch
  5262  0B8A                     l4711:
  5263                           
  5264                           ;display.c: 135:         npassword[i] = '0';
  5265  0B8A  3001               	movlw	1
  5266  0B8B  1283               	bcf	3,5	;RP0=0, select bank0
  5267  0B8C  1303               	bcf	3,6	;RP1=0, select bank0
  5268  0B8D  00AA               	movwf	??_login
  5269  0B8E  082A               	movf	??_login,w
  5270  0B8F  07DE               	addwf	login@i,f
  5271                           
  5272                           ;display.c: 136:         clcd_putch('*',(0xC0 + 6 + i));
  5273  0B90  2BB5               	goto	l4725
  5274  0B91                     l4713:
  5275  0B91  302F               	movlw	47
  5276  0B92  0631               	xorwf	login@key,w
  5277  0B93  1D03               	btfss	3,2
  5278  0B94  2B96               	goto	u4341
  5279  0B95  2B97               	goto	u4340
  5280  0B96                     u4341:
  5281  0B96  2BB5               	goto	l4725
  5282  0B97                     u4340:
  5283  0B97                     l4715:
  5284  0B97  3004               	movlw	4
  5285  0B98  025E               	subwf	login@i,w
  5286  0B99  1803               	skipnc
  5287  0B9A  2B9C               	goto	u4351
  5288  0B9B  2B9D               	goto	u4350
  5289  0B9C                     u4351:
  5290  0B9C  2BB5               	goto	l4725
  5291  0B9D                     u4350:
  5292  0B9D                     l4717:
  5293                           
  5294                           ;display.c: 139: ;display.c: 140:     if(i == 4)
  5295  0B9D  3005               	movlw	5
  5296  0B9E  00D5               	movwf	_return_time
  5297  0B9F  3000               	movlw	0
  5298  0BA0  00D6               	movwf	_return_time+1
  5299  0BA1                     l4719:
  5300                           
  5301                           ;display.c: 141:     {
  5302  0BA1  3030               	movlw	48
  5303  0BA2  00AA               	movwf	??_login
  5304  0BA3  085E               	movf	login@i,w
  5305  0BA4  3EC1               	addlw	(low (login@npassword| 0))& (0+255)
  5306  0BA5  0084               	movwf	4
  5307  0BA6  082A               	movf	??_login,w
  5308  0BA7  1383               	bcf	3,7	;select IRP bank1
  5309  0BA8  0080               	movwf	0
  5310  0BA9                     l4721:
  5311                           
  5312                           ;display.c: 142:         get_password(spassword);
  5313  0BA9  085E               	movf	login@i,w
  5314  0BAA  3EC6               	addlw	198
  5315  0BAB  00AA               	movwf	??_login
  5316  0BAC  082A               	movf	??_login,w
  5317  0BAD  00A7               	movwf	clcd_putch@addr
  5318  0BAE  302A               	movlw	42
  5319  0BAF  160A  158A  269B  120A  158A  	fcall	_clcd_putch
  5320  0BB4  2B8A               	goto	l4711
  5321  0BB5                     l4725:
  5322                           
  5323                           ;display.c: 146:         }
  5324  0BB5  3004               	movlw	4
  5325  0BB6  065E               	xorwf	login@i,w
  5326  0BB7  1D03               	btfss	3,2
  5327  0BB8  2BBA               	goto	u4361
  5328  0BB9  2BBB               	goto	u4360
  5329  0BBA                     u4361:
  5330  0BBA  2CD6               	goto	l4781
  5331  0BBB                     u4360:
  5332  0BBB                     l4727:
  5333                           
  5334                           ;display.c: 147:     else;display.c: 148:     {
  5335  0BBB  302C               	movlw	(low (login@spassword| 0))& (0+255)
  5336  0BBC  160A  158A  27D4  120A  158A  	fcall	_get_password
  5337  0BC1                     l4729:
  5338                           
  5339                           ;display.c: 149:        if(--attempt_rem == 0 )
  5340  0BC1  302C               	movlw	(low (login@spassword| 0))& (0+255)
  5341  0BC2  1283               	bcf	3,5	;RP0=0, select bank0
  5342  0BC3  1303               	bcf	3,6	;RP1=0, select bank0
  5343  0BC4  00AA               	movwf	??_login
  5344  0BC5  082A               	movf	??_login,w
  5345  0BC6  00F3               	movwf	strcmp@s2
  5346  0BC7  30C1               	movlw	(low (login@npassword| 0))& (0+255)
  5347  0BC8  160A  118A  21B7  120A  158A  	fcall	_strcmp
  5348  0BCD  0873               	movf	?_strcmp,w
  5349  0BCE  0474               	iorwf	?_strcmp+1,w
  5350  0BCF  1D03               	btfss	3,2
  5351  0BD0  2BD2               	goto	u4371
  5352  0BD1  2BD3               	goto	u4370
  5353  0BD2                     u4371:
  5354  0BD2  2BD5               	goto	l4737
  5355  0BD3                     u4370:
  5356  0BD3                     l4731:
  5357                           
  5358                           ;display.c: 150:             {;display.c: 151: 
  5359  0BD3  3001               	movlw	1
  5360  0BD4  2CD7               	goto	l160
  5361  0BD5                     l4737:
  5362                           
  5363                           ;display.c: 154:                     _delay((unsigned long)((500)*(20000000/4000000.0)))
      +                          ;;display.c: 155:                 clcd_print("You are blocked",(0x80 + 0));
  5364  0BD5  3001               	movlw	1
  5365  0BD6  1283               	bcf	3,5	;RP0=0, select bank0
  5366  0BD7  1303               	bcf	3,6	;RP1=0, select bank0
  5367  0BD8  02DD               	subwf	login@attempt_rem,f
  5368  0BD9  1D03               	btfss	3,2
  5369  0BDA  2BDC               	goto	u4381
  5370  0BDB  2BDD               	goto	u4380
  5371  0BDC                     u4381:
  5372  0BDC  2C59               	goto	l4755
  5373  0BDD                     u4380:
  5374  0BDD                     l4739:
  5375                           
  5376                           ;display.c: 156:                 clcd_print("wait for ..60sec",(0xC0 + 0));;display.c: 1
      +                          58:                 while(sec)
  5377  0BDD  01F3               	clrf	clcd_write@mode
  5378  0BDE  300C               	movlw	12
  5379  0BDF  160A  118A  2277  120A  158A  	fcall	_clcd_write
  5380                           
  5381                           ;display.c: 159:                 {
  5382  0BE4  01F3               	clrf	clcd_write@mode
  5383  0BE5  3001               	movlw	1
  5384  0BE6  160A  118A  2277  120A  158A  	fcall	_clcd_write
  5385  0BEB                     l4741:
  5386                           
  5387                           ;display.c: 160:                     clcd_putch(sec / 10 + '0',(0xC0 + 11));
  5388  0BEB  3004               	movlw	4
  5389  0BEC  1283               	bcf	3,5	;RP0=0, select bank0
  5390  0BED  1303               	bcf	3,6	;RP1=0, select bank0
  5391  0BEE  00AB               	movwf	??_login+1
  5392  0BEF  303D               	movlw	61
  5393  0BF0  00AA               	movwf	??_login
  5394  0BF1                     u5217:
  5395  0BF1  0BAA               	decfsz	??_login,f
  5396  0BF2  2BF1               	goto	u5217
  5397  0BF3  0BAB               	decfsz	??_login+1,f
  5398  0BF4  2BF1               	goto	u5217
  5399  0BF5                     l4743:
  5400                           
  5401                           ;display.c: 161:                     clcd_putch(sec % 10 + '0',(0xC0 + 12));
  5402  0BF5  30D2               	movlw	low (STR_7| (0+32768))
  5403  0BF6  1283               	bcf	3,5	;RP0=0, select bank0
  5404  0BF7  1303               	bcf	3,6	;RP1=0, select bank0
  5405  0BF8  00A0               	movwf	clcd_print@str
  5406  0BF9  3090               	movlw	high (STR_7| (0+32768))
  5407  0BFA  00A1               	movwf	clcd_print@str+1
  5408  0BFB  3080               	movlw	128
  5409  0BFC  00AA               	movwf	??_login
  5410  0BFD  082A               	movf	??_login,w
  5411  0BFE  00A2               	movwf	clcd_print@addr
  5412  0BFF  160A  118A  2210  120A  158A  	fcall	_clcd_print
  5413  0C04                     l4745:
  5414                           
  5415                           ;display.c: 162:                 }
  5416  0C04  307E               	movlw	low (STR_8| (0+32768))
  5417  0C05  1283               	bcf	3,5	;RP0=0, select bank0
  5418  0C06  1303               	bcf	3,6	;RP1=0, select bank0
  5419  0C07  00A0               	movwf	clcd_print@str
  5420  0C08  3090               	movlw	high (STR_8| (0+32768))
  5421  0C09  00A1               	movwf	clcd_print@str+1
  5422  0C0A  30C0               	movlw	192
  5423  0C0B  00AA               	movwf	??_login
  5424  0C0C  082A               	movf	??_login,w
  5425  0C0D  00A2               	movwf	clcd_print@addr
  5426  0C0E  160A  118A  2210  120A  158A  	fcall	_clcd_print
  5427  0C13                     l4747:
  5428                           
  5429                           ;display.c: 163:                 attempt_rem = 3;
  5430  0C13  303C               	movlw	60
  5431  0C14  1283               	bcf	3,5	;RP0=0, select bank0
  5432  0C15  1303               	bcf	3,6	;RP1=0, select bank0
  5433  0C16  00D7               	movwf	_sec
  5434  0C17  3000               	movlw	0
  5435  0C18  00D8               	movwf	_sec+1
  5436                           
  5437                           ;display.c: 164: 
  5438  0C19  2C4C               	goto	l4751
  5439  0C1A                     l4749:
  5440                           
  5441                           ;display.c: 165:             };display.c: 166:             else
  5442  0C1A  30CB               	movlw	203
  5443  0C1B  00AA               	movwf	??_login
  5444  0C1C  082A               	movf	??_login,w
  5445  0C1D  00A7               	movwf	clcd_putch@addr
  5446  0C1E  300A               	movlw	10
  5447  0C1F  00F3               	movwf	___awdiv@divisor
  5448  0C20  3000               	movlw	0
  5449  0C21  00F4               	movwf	___awdiv@divisor+1
  5450  0C22  0858               	movf	_sec+1,w
  5451  0C23  00F6               	movwf	___awdiv@dividend+1
  5452  0C24  0857               	movf	_sec,w
  5453  0C25  00F5               	movwf	___awdiv@dividend
  5454  0C26  160A  118A  2641  120A  158A  	fcall	___awdiv
  5455  0C2B  0873               	movf	?___awdiv,w
  5456  0C2C  3E30               	addlw	48
  5457  0C2D  160A  158A  269B  120A  158A  	fcall	_clcd_putch
  5458                           
  5459                           ;display.c: 167:             {
  5460  0C32  30CC               	movlw	204
  5461  0C33  1283               	bcf	3,5	;RP0=0, select bank0
  5462  0C34  1303               	bcf	3,6	;RP1=0, select bank0
  5463  0C35  00AA               	movwf	??_login
  5464  0C36  082A               	movf	??_login,w
  5465  0C37  00A7               	movwf	clcd_putch@addr
  5466  0C38  300A               	movlw	10
  5467  0C39  00F3               	movwf	___awmod@divisor
  5468  0C3A  3000               	movlw	0
  5469  0C3B  00F4               	movwf	___awmod@divisor+1
  5470  0C3C  0858               	movf	_sec+1,w
  5471  0C3D  00F6               	movwf	___awmod@dividend+1
  5472  0C3E  0857               	movf	_sec,w
  5473  0C3F  00F5               	movwf	___awmod@dividend
  5474  0C40  160A  118A  24BF  120A  158A  	fcall	___awmod
  5475  0C45  0873               	movf	?___awmod,w
  5476  0C46  3E30               	addlw	48
  5477  0C47  160A  158A  269B  120A  158A  	fcall	_clcd_putch
  5478  0C4C                     l4751:
  5479                           
  5480                           ;display.c: 164: 
  5481  0C4C  1283               	bcf	3,5	;RP0=0, select bank0
  5482  0C4D  1303               	bcf	3,6	;RP1=0, select bank0
  5483  0C4E  0857               	movf	_sec,w
  5484  0C4F  0458               	iorwf	_sec+1,w
  5485  0C50  1D03               	btfss	3,2
  5486  0C51  2C53               	goto	u4391
  5487  0C52  2C54               	goto	u4390
  5488  0C53                     u4391:
  5489  0C53  2C1A               	goto	l4749
  5490  0C54                     u4390:
  5491  0C54                     l4753:
  5492                           
  5493                           ;display.c: 169:                 clcd_write(0x01, 0);
  5494  0C54  3003               	movlw	3
  5495  0C55  00AA               	movwf	??_login
  5496  0C56  082A               	movf	??_login,w
  5497  0C57  00DD               	movwf	login@attempt_rem
  5498                           
  5499                           ;display.c: 171:                 clcd_write(0x0C, 0);
  5500  0C58  2CAF               	goto	l4771
  5501  0C59                     l4755:
  5502                           
  5503                           ;display.c: 173:                 clcd_print(" WRONG PASSWORD ",(0x80 + 0));;display.c: 1
      +                          75:                 clcd_print("attempt remains",(0xC0 + 2));
  5504  0C59  01F3               	clrf	clcd_write@mode
  5505  0C5A  3001               	movlw	1
  5506  0C5B  160A  118A  2277  120A  158A  	fcall	_clcd_write
  5507  0C60                     l4757:
  5508                           
  5509                           ;display.c: 176:                  sec = 3;
  5510  0C60  3004               	movlw	4
  5511  0C61  1283               	bcf	3,5	;RP0=0, select bank0
  5512  0C62  1303               	bcf	3,6	;RP1=0, select bank0
  5513  0C63  00AB               	movwf	??_login+1
  5514  0C64  303D               	movlw	61
  5515  0C65  00AA               	movwf	??_login
  5516  0C66                     u5227:
  5517  0C66  0BAA               	decfsz	??_login,f
  5518  0C67  2C66               	goto	u5227
  5519  0C68  0BAB               	decfsz	??_login+1,f
  5520  0C69  2C66               	goto	u5227
  5521  0C6A                     l4759:
  5522                           
  5523                           ;display.c: 177:                  while(sec);
  5524  0C6A  01F3               	clrf	clcd_write@mode
  5525  0C6B  300C               	movlw	12
  5526  0C6C  160A  118A  2277  120A  158A  	fcall	_clcd_write
  5527                           
  5528                           ;display.c: 178:             }
  5529  0C71  30A5               	movlw	165
  5530  0C72  1283               	bcf	3,5	;RP0=0, select bank0
  5531  0C73  1303               	bcf	3,6	;RP1=0, select bank0
  5532  0C74  00AA               	movwf	??_login
  5533  0C75                     u5237:
  5534  0C75  0BAA               	decfsz	??_login,f
  5535  0C76  2C75               	goto	u5237
  5536  0C77  2C78               	nop2
  5537  0C78                     l4761:
  5538                           
  5539                           ;display.c: 179:          clcd_write(0x01, 0);
  5540  0C78  304B               	movlw	low (STR_9| (0+32768))
  5541  0C79  1283               	bcf	3,5	;RP0=0, select bank0
  5542  0C7A  1303               	bcf	3,6	;RP1=0, select bank0
  5543  0C7B  00A0               	movwf	clcd_print@str
  5544  0C7C  3090               	movlw	high (STR_9| (0+32768))
  5545  0C7D  00A1               	movwf	clcd_print@str+1
  5546  0C7E  3080               	movlw	128
  5547  0C7F  00AA               	movwf	??_login
  5548  0C80  082A               	movf	??_login,w
  5549  0C81  00A2               	movwf	clcd_print@addr
  5550  0C82  160A  118A  2210  120A  158A  	fcall	_clcd_print
  5551  0C87                     l4763:
  5552                           
  5553                           ;display.c: 180:              _delay((unsigned long)((500)*(20000000/4000000.0)));
  5554  0C87  30C0               	movlw	192
  5555  0C88  1283               	bcf	3,5	;RP0=0, select bank0
  5556  0C89  1303               	bcf	3,6	;RP1=0, select bank0
  5557  0C8A  00AA               	movwf	??_login
  5558  0C8B  082A               	movf	??_login,w
  5559  0C8C  00A7               	movwf	clcd_putch@addr
  5560  0C8D  085D               	movf	login@attempt_rem,w
  5561  0C8E  3E30               	addlw	48
  5562  0C8F  160A  158A  269B  120A  158A  	fcall	_clcd_putch
  5563  0C94                     l4765:
  5564                           
  5565                           ;display.c: 181:         clcd_print(" ENTER PASSWORD ",(0x80 + 0));
  5566  0C94  30E2               	movlw	low (STR_10| (0+32768))
  5567  0C95  1283               	bcf	3,5	;RP0=0, select bank0
  5568  0C96  1303               	bcf	3,6	;RP1=0, select bank0
  5569  0C97  00A0               	movwf	clcd_print@str
  5570  0C98  3090               	movlw	high (STR_10| (0+32768))
  5571  0C99  00A1               	movwf	clcd_print@str+1
  5572  0C9A  30C2               	movlw	194
  5573  0C9B  00AA               	movwf	??_login
  5574  0C9C  082A               	movf	??_login,w
  5575  0C9D  00A2               	movwf	clcd_print@addr
  5576  0C9E  160A  118A  2210  120A  158A  	fcall	_clcd_print
  5577  0CA3                     l4767:
  5578                           
  5579                           ;display.c: 182: 
  5580  0CA3  3003               	movlw	3
  5581  0CA4  1283               	bcf	3,5	;RP0=0, select bank0
  5582  0CA5  1303               	bcf	3,6	;RP1=0, select bank0
  5583  0CA6  00D7               	movwf	_sec
  5584  0CA7  3000               	movlw	0
  5585  0CA8  00D8               	movwf	_sec+1
  5586  0CA9                     l4769:	
  5587                           ;display.c: 183:            i = 0;
  5588                           
  5589  0CA9  0857               	movf	_sec,w
  5590  0CAA  0458               	iorwf	_sec+1,w
  5591  0CAB  1D03               	btfss	3,2
  5592  0CAC  2CAE               	goto	u4401
  5593  0CAD  2CAF               	goto	u4400
  5594  0CAE                     u4401:
  5595  0CAE  2CA9               	goto	l4769
  5596  0CAF                     u4400:
  5597  0CAF                     l4771:
  5598                           
  5599                           ;display.c: 185:     }
  5600  0CAF  01F3               	clrf	clcd_write@mode
  5601  0CB0  3001               	movlw	1
  5602  0CB1  160A  118A  2277  120A  158A  	fcall	_clcd_write
  5603  0CB6                     l4773:
  5604                           
  5605                           ;display.c: 186:     }
  5606  0CB6  3004               	movlw	4
  5607  0CB7  1283               	bcf	3,5	;RP0=0, select bank0
  5608  0CB8  1303               	bcf	3,6	;RP1=0, select bank0
  5609  0CB9  00AB               	movwf	??_login+1
  5610  0CBA  303D               	movlw	61
  5611  0CBB  00AA               	movwf	??_login
  5612  0CBC                     u5247:
  5613  0CBC  0BAA               	decfsz	??_login,f
  5614  0CBD  2CBC               	goto	u5247
  5615  0CBE  0BAB               	decfsz	??_login+1,f
  5616  0CBF  2CBC               	goto	u5247
  5617  0CC0                     l4775:
  5618                           
  5619                           ;display.c: 187:     return 0x10;
  5620  0CC0  305C               	movlw	low (STR_11| (0+32768))
  5621  0CC1  1283               	bcf	3,5	;RP0=0, select bank0
  5622  0CC2  1303               	bcf	3,6	;RP1=0, select bank0
  5623  0CC3  00A0               	movwf	clcd_print@str
  5624  0CC4  3090               	movlw	high (STR_11| (0+32768))
  5625  0CC5  00A1               	movwf	clcd_print@str+1
  5626  0CC6  3080               	movlw	128
  5627  0CC7  00AA               	movwf	??_login
  5628  0CC8  082A               	movf	??_login,w
  5629  0CC9  00A2               	movwf	clcd_print@addr
  5630  0CCA  160A  118A  2210  120A  158A  	fcall	_clcd_print
  5631  0CCF                     l4777:
  5632                           
  5633                           ;display.c: 189: 
  5634  0CCF  1283               	bcf	3,5	;RP0=0, select bank0
  5635  0CD0  1303               	bcf	3,6	;RP1=0, select bank0
  5636  0CD1  01DE               	clrf	login@i
  5637  0CD2                     l4779:
  5638                           
  5639                           ;display.c: 190: 
  5640  0CD2  3005               	movlw	5
  5641  0CD3  00D5               	movwf	_return_time
  5642  0CD4  3000               	movlw	0
  5643  0CD5  00D6               	movwf	_return_time+1
  5644  0CD6                     l4781:
  5645                           
  5646                           ;display.c: 193:     static int menu_pos = 0 ;
  5647  0CD6  3010               	movlw	16
  5648  0CD7                     l160:
  5649  0CD7  0008               	return
  5650  0CD8                     __end_of_login:
  5651                           
  5652                           	psect	text7
  5653  11B7                     __ptext7:	
  5654 ;; *************** function _strcmp *****************
  5655 ;; Defined at:
  5656 ;;		line 33 in file "C:\Program Files\Microchip\xc8\v2.36\pic\sources\c90\common\strcmp.c"
  5657 ;; Parameters:    Size  Location     Type
  5658 ;;  s1              1    wreg     PTR const unsigned char 
  5659 ;;		 -> login@npassword(5), 
  5660 ;;  s2              1    3[COMMON] PTR const unsigned char 
  5661 ;;		 -> login@spassword(5), 
  5662 ;; Auto vars:     Size  Location     Type
  5663 ;;  s1              1    1[BANK0 ] PTR const unsigned char 
  5664 ;;		 -> login@npassword(5), 
  5665 ;;  r               1    0[BANK0 ] char 
  5666 ;; Return value:  Size  Location     Type
  5667 ;;                  2    3[COMMON] int 
  5668 ;; Registers used:
  5669 ;;		wreg, fsr0l, fsr0h, status,2, status,0
  5670 ;; Tracked objects:
  5671 ;;		On entry : 0/0
  5672 ;;		On exit  : 0/0
  5673 ;;		Unchanged: 0/0
  5674 ;; Data sizes:     COMMON   BANK0   BANK1   BANK3   BANK2
  5675 ;;      Params:         2       0       0       0       0
  5676 ;;      Locals:         0       2       0       0       0
  5677 ;;      Temps:          3       0       0       0       0
  5678 ;;      Totals:         5       2       0       0       0
  5679 ;;Total ram usage:        7 bytes
  5680 ;; Hardware stack levels used: 1
  5681 ;; Hardware stack levels required when called: 1
  5682 ;; This function calls:
  5683 ;;		Nothing
  5684 ;; This function is called by:
  5685 ;;		_login
  5686 ;; This function uses a non-reentrant model
  5687 ;;
  5688                           
  5689  11B7                     _strcmp:	
  5690                           ;psect for function _strcmp
  5691                           
  5692                           
  5693                           ;incstack = 0
  5694                           ; Regs used in _strcmp: [wreg-fsr0h+status,2+status,0]
  5695                           ;strcmp@s1 stored from wreg
  5696  11B7  1283               	bcf	3,5	;RP0=0, select bank0
  5697  11B8  1303               	bcf	3,6	;RP1=0, select bank0
  5698  11B9  00A1               	movwf	strcmp@s1
  5699  11BA                     l4387:
  5700  11BA  29C3               	goto	l4393
  5701  11BB                     l4389:
  5702  11BB  3001               	movlw	1
  5703  11BC  00F5               	movwf	??_strcmp
  5704  11BD  0875               	movf	??_strcmp,w
  5705  11BE  07A1               	addwf	strcmp@s1,f
  5706  11BF                     l4391:
  5707  11BF  3001               	movlw	1
  5708  11C0  00F5               	movwf	??_strcmp
  5709  11C1  0875               	movf	??_strcmp,w
  5710  11C2  07F3               	addwf	strcmp@s2,f
  5711  11C3                     l4393:
  5712  11C3  0873               	movf	strcmp@s2,w
  5713  11C4  0084               	movwf	4
  5714  11C5  1383               	bcf	3,7	;select IRP bank0
  5715  11C6  0800               	movf	0,w
  5716  11C7  00F5               	movwf	??_strcmp
  5717  11C8  0821               	movf	strcmp@s1,w
  5718  11C9  0084               	movwf	4
  5719  11CA  0800               	movf	0,w
  5720  11CB  00F6               	movwf	??_strcmp+1
  5721  11CC  0875               	movf	??_strcmp,w
  5722  11CD  0276               	subwf	??_strcmp+1,w
  5723  11CE  00F7               	movwf	??_strcmp+2
  5724  11CF  0877               	movf	??_strcmp+2,w
  5725  11D0  00A0               	movwf	strcmp@r
  5726  11D1  0820               	movf	strcmp@r,w
  5727  11D2  1D03               	btfss	3,2
  5728  11D3  29D5               	goto	u3721
  5729  11D4  29D6               	goto	u3720
  5730  11D5                     u3721:
  5731  11D5  29DD               	goto	l4397
  5732  11D6                     u3720:
  5733  11D6                     l4395:
  5734  11D6  0821               	movf	strcmp@s1,w
  5735  11D7  0084               	movwf	4
  5736  11D8  0800               	movf	0,w
  5737  11D9  1D03               	btfss	3,2
  5738  11DA  29DC               	goto	u3731
  5739  11DB  29DD               	goto	u3730
  5740  11DC                     u3731:
  5741  11DC  29BB               	goto	l4389
  5742  11DD                     u3730:
  5743  11DD                     l4397:
  5744  11DD  0820               	movf	strcmp@r,w
  5745  11DE  00F3               	movwf	?_strcmp
  5746  11DF  01F4               	clrf	?_strcmp+1
  5747  11E0  1BF3               	btfsc	?_strcmp,7
  5748  11E1  03F4               	decf	?_strcmp+1,f
  5749  11E2                     l1098:
  5750  11E2  0008               	return
  5751  11E3                     __end_of_strcmp:
  5752                           
  5753                           	psect	text8
  5754  1FD4                     __ptext8:	
  5755 ;; *************** function _get_password *****************
  5756 ;; Defined at:
  5757 ;;		line 95 in file "display.c"
  5758 ;; Parameters:    Size  Location     Type
  5759 ;;  spassword       1    wreg     PTR unsigned char 
  5760 ;;		 -> login@spassword(5), 
  5761 ;; Auto vars:     Size  Location     Type
  5762 ;;  spassword       1    2[BANK0 ] PTR unsigned char 
  5763 ;;		 -> login@spassword(5), 
  5764 ;;  i               2    3[BANK0 ] int 
  5765 ;; Return value:  Size  Location     Type
  5766 ;;                  1    wreg      void 
  5767 ;; Registers used:
  5768 ;;		wreg, fsr0l, fsr0h, status,2, status,0, btemp+1, pclath, cstack
  5769 ;; Tracked objects:
  5770 ;;		On entry : 0/0
  5771 ;;		On exit  : 0/0
  5772 ;;		Unchanged: 0/0
  5773 ;; Data sizes:     COMMON   BANK0   BANK1   BANK3   BANK2
  5774 ;;      Params:         0       0       0       0       0
  5775 ;;      Locals:         0       3       0       0       0
  5776 ;;      Temps:          0       2       0       0       0
  5777 ;;      Totals:         0       5       0       0       0
  5778 ;;Total ram usage:        5 bytes
  5779 ;; Hardware stack levels used: 1
  5780 ;; Hardware stack levels required when called: 4
  5781 ;; This function calls:
  5782 ;;		_ext_eeprom_24C02_read
  5783 ;; This function is called by:
  5784 ;;		_login
  5785 ;; This function uses a non-reentrant model
  5786 ;;
  5787                           
  5788  1FD4                     _get_password:	
  5789                           ;psect for function _get_password
  5790                           
  5791                           
  5792                           ;incstack = 0
  5793                           ; Regs used in _get_password: [wreg-fsr0h+status,2+status,0+btemp+1+pclath+cstack]
  5794                           ;get_password@spassword stored from wreg
  5795  1FD4  1283               	bcf	3,5	;RP0=0, select bank0
  5796  1FD5  1303               	bcf	3,6	;RP1=0, select bank0
  5797  1FD6  00A2               	movwf	get_password@spassword
  5798  1FD7                     l4375:
  5799                           
  5800                           ;display.c: 95:     };display.c: 96: };display.c: 98: char login(char key ,char reset_fl
      +                          ag)
  5801  1FD7  01A3               	clrf	get_password@i
  5802  1FD8  01A4               	clrf	get_password@i+1
  5803  1FD9                     l4381:
  5804                           
  5805                           ;display.c: 99: {;display.c: 100:     char spassword[5];
  5806  1FD9  1283               	bcf	3,5	;RP0=0, select bank0
  5807  1FDA  1303               	bcf	3,6	;RP1=0, select bank0
  5808  1FDB  0823               	movf	get_password@i,w
  5809  1FDC  120A  118A  27D0  160A  158A  	fcall	_ext_eeprom_24C02_read
  5810  1FE1  1283               	bcf	3,5	;RP0=0, select bank0
  5811  1FE2  1303               	bcf	3,6	;RP1=0, select bank0
  5812  1FE3  00A0               	movwf	??_get_password
  5813  1FE4  0823               	movf	get_password@i,w
  5814  1FE5  0722               	addwf	get_password@spassword,w
  5815  1FE6  00A1               	movwf	??_get_password+1
  5816  1FE7  0821               	movf	??_get_password+1,w
  5817  1FE8  0084               	movwf	4
  5818  1FE9  0820               	movf	??_get_password,w
  5819  1FEA  1383               	bcf	3,7	;select IRP bank0
  5820  1FEB  0080               	movwf	0
  5821  1FEC                     l4383:
  5822                           
  5823                           ;display.c: 101:     static char npassword[5];
  5824  1FEC  3001               	movlw	1
  5825  1FED  07A3               	addwf	get_password@i,f
  5826  1FEE  1803               	skipnc
  5827  1FEF  0AA4               	incf	get_password@i+1,f
  5828  1FF0  3000               	movlw	0
  5829  1FF1  07A4               	addwf	get_password@i+1,f
  5830  1FF2                     l4385:
  5831  1FF2  0824               	movf	get_password@i+1,w
  5832  1FF3  3A80               	xorlw	128
  5833  1FF4  00FF               	movwf	btemp+1
  5834  1FF5  3080               	movlw	128
  5835  1FF6  027F               	subwf	btemp+1,w
  5836  1FF7  1D03               	skipz
  5837  1FF8  2FFB               	goto	u3715
  5838  1FF9  3005               	movlw	5
  5839  1FFA  0223               	subwf	get_password@i,w
  5840  1FFB                     u3715:
  5841  1FFB  1C03               	skipc
  5842  1FFC  2FFE               	goto	u3711
  5843  1FFD  2FFF               	goto	u3710
  5844  1FFE                     u3711:
  5845  1FFE  2FD9               	goto	l4381
  5846  1FFF                     u3710:
  5847  1FFF                     l149:
  5848  1FFF  0008               	return
  5849  2000                     __end_of_get_password:
  5850                           
  5851                           	psect	text9
  5852  1579                     __ptext9:	
  5853 ;; *************** function _log_car_event *****************
  5854 ;; Defined at:
  5855 ;;		line 82 in file "display.c"
  5856 ;; Parameters:    Size  Location     Type
  5857 ;;  event           2    4[BANK0 ] PTR unsigned char 
  5858 ;;		 -> STR_46(3), STR_45(3), STR_44(3), STR_43(3), 
  5859 ;;		 -> main@event(3), 
  5860 ;;  speed           1    6[BANK0 ] unsigned char 
  5861 ;; Auto vars:     Size  Location     Type
  5862 ;;		None
  5863 ;; Return value:  Size  Location     Type
  5864 ;;                  1    wreg      void 
  5865 ;; Registers used:
  5866 ;;		wreg, fsr0l, fsr0h, status,2, status,0, btemp+1, pclath, cstack
  5867 ;; Tracked objects:
  5868 ;;		On entry : 0/0
  5869 ;;		On exit  : 0/0
  5870 ;;		Unchanged: 0/0
  5871 ;; Data sizes:     COMMON   BANK0   BANK1   BANK3   BANK2
  5872 ;;      Params:         0       3       0       0       0
  5873 ;;      Locals:         0       0       0       0       0
  5874 ;;      Temps:          0       3       0       0       0
  5875 ;;      Totals:         0       6       0       0       0
  5876 ;;Total ram usage:        6 bytes
  5877 ;; Hardware stack levels used: 1
  5878 ;; Hardware stack levels required when called: 6
  5879 ;; This function calls:
  5880 ;;		___awdiv
  5881 ;;		___awmod
  5882 ;;		_get_time
  5883 ;;		_log_event
  5884 ;;		_strncpy
  5885 ;; This function is called by:
  5886 ;;		_main
  5887 ;; This function uses a non-reentrant model
  5888 ;;
  5889                           
  5890  1579                     _log_car_event:	
  5891                           ;psect for function _log_car_event
  5892                           
  5893  1579                     l4663:	
  5894                           ;incstack = 0
  5895                           ; Regs used in _log_car_event: [wreg-fsr0h+status,2+status,0+btemp+1+pclath+cstack]
  5896                           
  5897                           
  5898                           ;display.c: 82:  log[8] = (speed / 10) + '0';;display.c: 83:  log[9] = (speed % 10) + '0
      +                          ';;display.c: 85: 
  5899  1579  160A  118A  278B  160A  118A  	fcall	_get_time
  5900  157E                     l4665:
  5901                           
  5902                           ;display.c: 86:  log_event();
  5903  157E  30BA               	movlw	(low (_time| 0))& (0+255)
  5904  157F  00F3               	movwf	strncpy@from
  5905  1580  3000               	movlw	0
  5906  1581  00F4               	movwf	strncpy@from+1
  5907  1582  3006               	movlw	6
  5908  1583  00F5               	movwf	strncpy@size
  5909  1584  3000               	movlw	0
  5910  1585  00F6               	movwf	strncpy@size+1
  5911  1586  30A6               	movlw	(low (_log| 0))& (0+255)
  5912  1587  160A  118A  2422  160A  118A  	fcall	_strncpy
  5913  158C                     l4667:
  5914                           
  5915                           ;display.c: 87: }
  5916  158C  1283               	bcf	3,5	;RP0=0, select bank0
  5917  158D  1303               	bcf	3,6	;RP1=0, select bank0
  5918  158E  0824               	movf	log_car_event@event,w
  5919  158F  00F3               	movwf	strncpy@from
  5920  1590  0825               	movf	log_car_event@event+1,w
  5921  1591  00F4               	movwf	strncpy@from+1
  5922  1592  3002               	movlw	2
  5923  1593  00F5               	movwf	strncpy@size
  5924  1594  3000               	movlw	0
  5925  1595  00F6               	movwf	strncpy@size+1
  5926  1596  30AC               	movlw	(low ((_log| 0+6)))& (0+255)
  5927  1597  160A  118A  2422  160A  118A  	fcall	_strncpy
  5928                           
  5929                           ;display.c: 88: 
  5930  159C  300A               	movlw	10
  5931  159D  00F3               	movwf	___awdiv@divisor
  5932  159E  3000               	movlw	0
  5933  159F  00F4               	movwf	___awdiv@divisor+1
  5934  15A0  1283               	bcf	3,5	;RP0=0, select bank0
  5935  15A1  1303               	bcf	3,6	;RP1=0, select bank0
  5936  15A2  0826               	movf	log_car_event@speed,w
  5937  15A3  00A7               	movwf	??_log_car_event
  5938  15A4  01A8               	clrf	??_log_car_event+1
  5939  15A5  0827               	movf	??_log_car_event,w
  5940  15A6  00F5               	movwf	___awdiv@dividend
  5941  15A7  0828               	movf	??_log_car_event+1,w
  5942  15A8  00F6               	movwf	___awdiv@dividend+1
  5943  15A9  160A  118A  2641  160A  118A  	fcall	___awdiv
  5944  15AE  0873               	movf	?___awdiv,w
  5945  15AF  3E30               	addlw	48
  5946  15B0  1283               	bcf	3,5	;RP0=0, select bank0
  5947  15B1  1303               	bcf	3,6	;RP1=0, select bank0
  5948  15B2  00A9               	movwf	??_log_car_event+2
  5949  15B3  0829               	movf	??_log_car_event+2,w
  5950  15B4  1683               	bsf	3,5	;RP0=1, select bank1
  5951  15B5  1303               	bcf	3,6	;RP1=0, select bank1
  5952  15B6  00AE               	movwf	(_log^(0+128)+8)
  5953                           
  5954                           ;display.c: 89: void get_password(char *spassword)
  5955  15B7  300A               	movlw	10
  5956  15B8  00F3               	movwf	___awmod@divisor
  5957  15B9  3000               	movlw	0
  5958  15BA  00F4               	movwf	___awmod@divisor+1
  5959  15BB  1283               	bcf	3,5	;RP0=0, select bank0
  5960  15BC  1303               	bcf	3,6	;RP1=0, select bank0
  5961  15BD  0826               	movf	log_car_event@speed,w
  5962  15BE  00A7               	movwf	??_log_car_event
  5963  15BF  01A8               	clrf	??_log_car_event+1
  5964  15C0  0827               	movf	??_log_car_event,w
  5965  15C1  00F5               	movwf	___awmod@dividend
  5966  15C2  0828               	movf	??_log_car_event+1,w
  5967  15C3  00F6               	movwf	___awmod@dividend+1
  5968  15C4  160A  118A  24BF  160A  118A  	fcall	___awmod
  5969  15C9  0873               	movf	?___awmod,w
  5970  15CA  3E30               	addlw	48
  5971  15CB  1283               	bcf	3,5	;RP0=0, select bank0
  5972  15CC  1303               	bcf	3,6	;RP1=0, select bank0
  5973  15CD  00A9               	movwf	??_log_car_event+2
  5974  15CE  0829               	movf	??_log_car_event+2,w
  5975  15CF  1683               	bsf	3,5	;RP0=1, select bank1
  5976  15D0  1303               	bcf	3,6	;RP1=0, select bank1
  5977  15D1  00AF               	movwf	(_log^(0+128)+9)
  5978  15D2                     l4669:
  5979                           
  5980                           ;display.c: 90: {
  5981  15D2  01B0               	clrf	(_log^(0+128)+10)
  5982  15D3                     l4671:
  5983                           
  5984                           ;display.c: 92:     for(int i = 0 ; i < 5;i++)
  5985  15D3  160A  118A  2397  160A  118A  	fcall	_log_event
  5986  15D8                     l144:
  5987  15D8  0008               	return
  5988  15D9                     __end_of_log_car_event:
  5989                           
  5990                           	psect	text10
  5991  1397                     __ptext10:	
  5992 ;; *************** function _log_event *****************
  5993 ;; Defined at:
  5994 ;;		line 64 in file "display.c"
  5995 ;; Parameters:    Size  Location     Type
  5996 ;;		None
  5997 ;; Auto vars:     Size  Location     Type
  5998 ;;  add             1    2[BANK0 ] unsigned char 
  5999 ;; Return value:  Size  Location     Type
  6000 ;;                  1    wreg      void 
  6001 ;; Registers used:
  6002 ;;		wreg, fsr0l, fsr0h, status,2, status,0, btemp+1, pclath, cstack
  6003 ;; Tracked objects:
  6004 ;;		On entry : 0/0
  6005 ;;		On exit  : 0/0
  6006 ;;		Unchanged: 0/0
  6007 ;; Data sizes:     COMMON   BANK0   BANK1   BANK3   BANK2
  6008 ;;      Params:         0       0       0       0       0
  6009 ;;      Locals:         0       1       0       0       0
  6010 ;;      Temps:          0       2       0       0       0
  6011 ;;      Totals:         0       3       0       0       0
  6012 ;;Total ram usage:        3 bytes
  6013 ;; Hardware stack levels used: 1
  6014 ;; Hardware stack levels required when called: 5
  6015 ;; This function calls:
  6016 ;;		___bmul
  6017 ;;		_ext_eeprom_24C02_str_write
  6018 ;; This function is called by:
  6019 ;;		_log_car_event
  6020 ;; This function uses a non-reentrant model
  6021 ;;
  6022                           
  6023  1397                     _log_event:	
  6024                           ;psect for function _log_event
  6025                           
  6026  1397                     l4345:	
  6027                           ;incstack = 0
  6028                           ; Regs used in _log_event: [wreg-fsr0h+status,2+status,0+btemp+1+pclath+cstack]
  6029                           
  6030                           
  6031                           ;display.c: 67:  };display.c: 69:  add = (pos * 10) + 5;
  6032  1397  3001               	movlw	1
  6033  1398  1283               	bcf	3,5	;RP0=0, select bank0
  6034  1399  1303               	bcf	3,6	;RP1=0, select bank0
  6035  139A  07E4               	addwf	_pos,f
  6036  139B  1803               	skipnc
  6037  139C  0AE5               	incf	_pos+1,f
  6038  139D  3000               	movlw	0
  6039  139E  07E5               	addwf	_pos+1,f
  6040  139F  300A               	movlw	10
  6041  13A0  0664               	xorwf	_pos,w
  6042  13A1  0465               	iorwf	_pos+1,w
  6043  13A2  1D03               	btfss	3,2
  6044  13A3  2BA5               	goto	u3661
  6045  13A4  2BA6               	goto	u3660
  6046  13A5                     u3661:
  6047  13A5  2BAA               	goto	l4351
  6048  13A6                     u3660:
  6049  13A6                     l4347:
  6050                           
  6051                           ;display.c: 70:  ext_eeprom_24C02_str_write( add , log );;display.c: 71: 
  6052  13A6  01E4               	clrf	_pos
  6053  13A7  01E5               	clrf	_pos+1
  6054  13A8                     l4349:
  6055                           
  6056                           ;display.c: 72:  if (access < 9 )
  6057  13A8  01DF               	clrf	_overflow
  6058  13A9  0ADF               	incf	_overflow,f
  6059  13AA                     l4351:
  6060                           
  6061                           ;display.c: 75: 
  6062  13AA  300A               	movlw	10
  6063  13AB  00A0               	movwf	??_log_event
  6064  13AC  0820               	movf	??_log_event,w
  6065  13AD  00F3               	movwf	___bmul@multiplicand
  6066  13AE  0864               	movf	_pos,w
  6067  13AF  160A  118A  21A2  160A  118A  	fcall	___bmul
  6068  13B4  3E05               	addlw	5
  6069  13B5  1283               	bcf	3,5	;RP0=0, select bank0
  6070  13B6  1303               	bcf	3,6	;RP1=0, select bank0
  6071  13B7  00A1               	movwf	??_log_event+1
  6072  13B8  0821               	movf	??_log_event+1,w
  6073  13B9  00A2               	movwf	log_event@add
  6074  13BA                     l4353:
  6075                           
  6076                           ;display.c: 76: void log_car_event (char *event ,unsigned char speed)
  6077  13BA  30A6               	movlw	(low (_log| 0))& (0+255)
  6078  13BB  00A0               	movwf	??_log_event
  6079  13BC  0820               	movf	??_log_event,w
  6080  13BD  00F6               	movwf	ext_eeprom_24C02_str_write@data
  6081  13BE  0822               	movf	log_event@add,w
  6082  13BF  160A  158A  2720  160A  118A  	fcall	_ext_eeprom_24C02_str_write
  6083  13C4                     l4355:
  6084                           
  6085                           ;display.c: 78: 
  6086  13C4  1283               	bcf	3,5	;RP0=0, select bank0
  6087  13C5  1303               	bcf	3,6	;RP1=0, select bank0
  6088  13C6  0863               	movf	_access+1,w
  6089  13C7  3A80               	xorlw	128
  6090  13C8  00FF               	movwf	btemp+1
  6091  13C9  3080               	movlw	128
  6092  13CA  027F               	subwf	btemp+1,w
  6093  13CB  1D03               	skipz
  6094  13CC  2BCF               	goto	u3675
  6095  13CD  3009               	movlw	9
  6096  13CE  0262               	subwf	_access,w
  6097  13CF                     u3675:
  6098  13CF  1803               	skipnc
  6099  13D0  2BD2               	goto	u3671
  6100  13D1  2BD3               	goto	u3670
  6101  13D2                     u3671:
  6102  13D2  2BDB               	goto	l141
  6103  13D3                     u3670:
  6104  13D3                     l4357:
  6105                           
  6106                           ;display.c: 79:  get_time();
  6107  13D3  3001               	movlw	1
  6108  13D4  1283               	bcf	3,5	;RP0=0, select bank0
  6109  13D5  1303               	bcf	3,6	;RP1=0, select bank0
  6110  13D6  07E2               	addwf	_access,f
  6111  13D7  1803               	skipnc
  6112  13D8  0AE3               	incf	_access+1,f
  6113  13D9  3000               	movlw	0
  6114  13DA  07E3               	addwf	_access+1,f
  6115  13DB                     l141:
  6116  13DB  0008               	return
  6117  13DC                     __end_of_log_event:
  6118                           
  6119                           	psect	text11
  6120  131F                     __ptext11:	
  6121 ;; *************** function _init_config *****************
  6122 ;; Defined at:
  6123 ;;		line 14 in file "main.c"
  6124 ;; Parameters:    Size  Location     Type
  6125 ;;		None
  6126 ;; Auto vars:     Size  Location     Type
  6127 ;;		None
  6128 ;; Return value:  Size  Location     Type
  6129 ;;                  1    wreg      void 
  6130 ;; Registers used:
  6131 ;;		wreg, status,2, status,0, pclath, cstack
  6132 ;; Tracked objects:
  6133 ;;		On entry : 0/0
  6134 ;;		On exit  : 0/0
  6135 ;;		Unchanged: 0/0
  6136 ;; Data sizes:     COMMON   BANK0   BANK1   BANK3   BANK2
  6137 ;;      Params:         0       0       0       0       0
  6138 ;;      Locals:         0       0       0       0       0
  6139 ;;      Temps:          0       0       0       0       0
  6140 ;;      Totals:         0       0       0       0       0
  6141 ;;Total ram usage:        0 bytes
  6142 ;; Hardware stack levels used: 1
  6143 ;; Hardware stack levels required when called: 5
  6144 ;; This function calls:
  6145 ;;		_init_adc
  6146 ;;		_init_clcd
  6147 ;;		_init_digital_keypad
  6148 ;;		_init_ds1307
  6149 ;;		_init_i2c
  6150 ;;		_init_timer2
  6151 ;;		_init_uart
  6152 ;; This function is called by:
  6153 ;;		_main
  6154 ;; This function uses a non-reentrant model
  6155 ;;
  6156                           
  6157  131F                     _init_config:	
  6158                           ;psect for function _init_config
  6159                           
  6160  131F                     l5179:	
  6161                           ;incstack = 0
  6162                           ; Regs used in _init_config: [wreg+status,2+status,0+pclath+cstack]
  6163                           
  6164                           
  6165                           ;main.c: 15: 
  6166  131F  160A  158A  2651  160A  118A  	fcall	_init_clcd
  6167                           
  6168                           ;main.c: 16: void main(void) {
  6169  1324  3000               	movlw	0
  6170  1325  1283               	bcf	3,5	;RP0=0, select bank0
  6171  1326  1303               	bcf	3,6	;RP1=0, select bank0
  6172  1327  00AB               	movwf	init_i2c@baud+3
  6173  1328  3001               	movlw	1
  6174  1329  00AA               	movwf	init_i2c@baud+2
  6175  132A  3086               	movlw	134
  6176  132B  00A9               	movwf	init_i2c@baud+1
  6177  132C  30A0               	movlw	160
  6178  132D  00A8               	movwf	init_i2c@baud
  6179  132E  160A  118A  2243  160A  118A  	fcall	_init_i2c
  6180                           
  6181                           ;main.c: 17:     char event[3] = "ON";
  6182  1333  160A  158A  26C9  160A  118A  	fcall	_init_ds1307
  6183  1338                     l5181:
  6184                           
  6185                           ;main.c: 18:     char key, key1;
  6186  1338  160A  158A  2609  160A  118A  	fcall	_init_adc
  6187  133D                     l5183:
  6188                           
  6189                           ;main.c: 19:     unsigned char speed = 0;
  6190  133D  160A  158A  2603  160A  118A  	fcall	_init_digital_keypad
  6191  1342                     l5185:
  6192                           
  6193                           ;main.c: 20:     char control_flag = 0x01;
  6194  1342  160A  158A  2669  160A  118A  	fcall	_init_timer2
  6195  1347                     l5187:
  6196                           
  6197                           ;main.c: 21:     char gr = 0;
  6198  1347  3000               	movlw	0
  6199  1348  1283               	bcf	3,5	;RP0=0, select bank0
  6200  1349  1303               	bcf	3,6	;RP1=0, select bank0
  6201  134A  00AB               	movwf	init_uart@baud+3
  6202  134B  3000               	movlw	0
  6203  134C  00AA               	movwf	init_uart@baud+2
  6204  134D  3025               	movlw	37
  6205  134E  00A9               	movwf	init_uart@baud+1
  6206  134F  3080               	movlw	128
  6207  1350  00A8               	movwf	init_uart@baud
  6208  1351  160A  118A  22AD  160A  118A  	fcall	_init_uart
  6209  1356                     l5189:
  6210                           
  6211                           ;main.c: 23:     char menu_pos =0;
  6212  1356  178B               	bsf	11,7	;volatile
  6213  1357                     l5191:
  6214                           
  6215                           ;main.c: 25:     init_config();
  6216  1357  170B               	bsf	11,6	;volatile
  6217  1358                     l339:
  6218  1358  0008               	return
  6219  1359                     __end_of_init_config:
  6220                           
  6221                           	psect	text12
  6222  12AD                     __ptext12:	
  6223 ;; *************** function _init_uart *****************
  6224 ;; Defined at:
  6225 ;;		line 5 in file "uart.c"
  6226 ;; Parameters:    Size  Location     Type
  6227 ;;  baud            4    8[BANK0 ] unsigned long 
  6228 ;; Auto vars:     Size  Location     Type
  6229 ;;		None
  6230 ;; Return value:  Size  Location     Type
  6231 ;;                  1    wreg      void 
  6232 ;; Registers used:
  6233 ;;		wreg, status,2, status,0, pclath, cstack
  6234 ;; Tracked objects:
  6235 ;;		On entry : 0/0
  6236 ;;		On exit  : 0/0
  6237 ;;		Unchanged: 0/0
  6238 ;; Data sizes:     COMMON   BANK0   BANK1   BANK3   BANK2
  6239 ;;      Params:         0       4       0       0       0
  6240 ;;      Locals:         0       0       0       0       0
  6241 ;;      Temps:          0       4       0       0       0
  6242 ;;      Totals:         0       8       0       0       0
  6243 ;;Total ram usage:        8 bytes
  6244 ;; Hardware stack levels used: 1
  6245 ;; Hardware stack levels required when called: 2
  6246 ;; This function calls:
  6247 ;;		___lldiv
  6248 ;; This function is called by:
  6249 ;;		_init_config
  6250 ;; This function uses a non-reentrant model
  6251 ;;
  6252                           
  6253  12AD                     _init_uart:	
  6254                           ;psect for function _init_uart
  6255                           
  6256  12AD                     l4445:	
  6257                           ;incstack = 0
  6258                           ; Regs used in _init_uart: [wreg+status,2+status,0+pclath+cstack]
  6259                           
  6260                           
  6261                           ;uart.c: 5: void init_uart(unsigned long baud);uart.c: 6: {;uart.c: 8:     SPEN = 1;
  6262  12AD  1283               	bcf	3,5	;RP0=0, select bank0
  6263  12AE  1303               	bcf	3,6	;RP1=0, select bank0
  6264  12AF  1798               	bsf	24,7	;volatile
  6265                           
  6266                           ;uart.c: 11:     BRGH = 1;
  6267  12B0  1683               	bsf	3,5	;RP0=1, select bank1
  6268  12B1  1303               	bcf	3,6	;RP1=0, select bank1
  6269  12B2  1518               	bsf	24,2	;volatile
  6270                           
  6271                           ;uart.c: 14:     TXEN = 1;
  6272  12B3  1698               	bsf	24,5	;volatile
  6273                           
  6274                           ;uart.c: 17:     CREN = 1;
  6275  12B4  1283               	bcf	3,5	;RP0=0, select bank0
  6276  12B5  1303               	bcf	3,6	;RP1=0, select bank0
  6277  12B6  1618               	bsf	24,4	;volatile
  6278  12B7                     l4447:
  6279                           
  6280                           ;uart.c: 20:     SPBRG = (20000000 / (16 * baud)) - 1;
  6281  12B7  0828               	movf	init_uart@baud,w
  6282  12B8  00AC               	movwf	??_init_uart
  6283  12B9  0829               	movf	init_uart@baud+1,w
  6284  12BA  00AD               	movwf	??_init_uart+1
  6285  12BB  082A               	movf	init_uart@baud+2,w
  6286  12BC  00AE               	movwf	??_init_uart+2
  6287  12BD  082B               	movf	init_uart@baud+3,w
  6288  12BE  00AF               	movwf	??_init_uart+3
  6289  12BF  3004               	movlw	4
  6290  12C0                     u3795:
  6291  12C0  1003               	clrc
  6292  12C1  0DAC               	rlf	??_init_uart,f
  6293  12C2  0DAD               	rlf	??_init_uart+1,f
  6294  12C3  0DAE               	rlf	??_init_uart+2,f
  6295  12C4  0DAF               	rlf	??_init_uart+3,f
  6296  12C5                     u3790:
  6297  12C5  3EFF               	addlw	-1
  6298  12C6  1D03               	skipz
  6299  12C7  2AC0               	goto	u3795
  6300  12C8  082F               	movf	??_init_uart+3,w
  6301  12C9  00A3               	movwf	___lldiv@divisor+3
  6302  12CA  082E               	movf	??_init_uart+2,w
  6303  12CB  00A2               	movwf	___lldiv@divisor+2
  6304  12CC  082D               	movf	??_init_uart+1,w
  6305  12CD  00A1               	movwf	___lldiv@divisor+1
  6306  12CE  082C               	movf	??_init_uart,w
  6307  12CF  00A0               	movwf	___lldiv@divisor
  6308  12D0  3001               	movlw	1
  6309  12D1  00A7               	movwf	___lldiv@dividend+3
  6310  12D2  3031               	movlw	49
  6311  12D3  00A6               	movwf	___lldiv@dividend+2
  6312  12D4  302D               	movlw	45
  6313  12D5  00A5               	movwf	___lldiv@dividend+1
  6314  12D6  3000               	movlw	0
  6315  12D7  00A4               	movwf	___lldiv@dividend
  6316  12D8  160A  118A  25D9  160A  118A  	fcall	___lldiv
  6317  12DD  1283               	bcf	3,5	;RP0=0, select bank0
  6318  12DE  1303               	bcf	3,6	;RP1=0, select bank0
  6319  12DF  0820               	movf	?___lldiv,w
  6320  12E0  3EFF               	addlw	255
  6321  12E1  1683               	bsf	3,5	;RP0=1, select bank1
  6322  12E2  1303               	bcf	3,6	;RP1=0, select bank1
  6323  12E3  0099               	movwf	25	;volatile
  6324  12E4                     l544:
  6325  12E4  0008               	return
  6326  12E5                     __end_of_init_uart:
  6327                           
  6328                           	psect	text13
  6329  1E69                     __ptext13:	
  6330 ;; *************** function _init_timer2 *****************
  6331 ;; Defined at:
  6332 ;;		line 6 in file "timer2.c"
  6333 ;; Parameters:    Size  Location     Type
  6334 ;;		None
  6335 ;; Auto vars:     Size  Location     Type
  6336 ;;		None
  6337 ;; Return value:  Size  Location     Type
  6338 ;;                  1    wreg      void 
  6339 ;; Registers used:
  6340 ;;		wreg
  6341 ;; Tracked objects:
  6342 ;;		On entry : 0/0
  6343 ;;		On exit  : 0/0
  6344 ;;		Unchanged: 0/0
  6345 ;; Data sizes:     COMMON   BANK0   BANK1   BANK3   BANK2
  6346 ;;      Params:         0       0       0       0       0
  6347 ;;      Locals:         0       0       0       0       0
  6348 ;;      Temps:          0       0       0       0       0
  6349 ;;      Totals:         0       0       0       0       0
  6350 ;;Total ram usage:        0 bytes
  6351 ;; Hardware stack levels used: 1
  6352 ;; Hardware stack levels required when called: 1
  6353 ;; This function calls:
  6354 ;;		Nothing
  6355 ;; This function is called by:
  6356 ;;		_init_config
  6357 ;; This function uses a non-reentrant model
  6358 ;;
  6359                           
  6360  1E69                     _init_timer2:	
  6361                           ;psect for function _init_timer2
  6362                           
  6363  1E69                     l4437:	
  6364                           ;incstack = 0
  6365                           ; Regs used in _init_timer2: [wreg]
  6366                           
  6367                           
  6368                           ;timer2.c: 9:     TMR2IE = 1;
  6369  1E69  1283               	bcf	3,5	;RP0=0, select bank0
  6370  1E6A  1303               	bcf	3,6	;RP1=0, select bank0
  6371  1E6B  1412               	bsf	18,0	;volatile
  6372                           
  6373                           ;timer2.c: 10: 
  6374  1E6C  1492               	bsf	18,1	;volatile
  6375  1E6D                     l4439:
  6376                           
  6377                           ;timer2.c: 13: }
  6378  1E6D  30FA               	movlw	250
  6379  1E6E  1683               	bsf	3,5	;RP0=1, select bank1
  6380  1E6F  1303               	bcf	3,6	;RP1=0, select bank1
  6381  1E70  0092               	movwf	18	;volatile
  6382  1E71                     l4441:
  6383  1E71  148C               	bsf	12,1	;volatile
  6384  1E72                     l4443:
  6385  1E72  1283               	bcf	3,5	;RP0=0, select bank0
  6386  1E73  1303               	bcf	3,6	;RP1=0, select bank0
  6387  1E74  1112               	bcf	18,2	;volatile
  6388  1E75                     l527:
  6389  1E75  0008               	return
  6390  1E76                     __end_of_init_timer2:
  6391                           
  6392                           	psect	text14
  6393  1243                     __ptext14:	
  6394 ;; *************** function _init_i2c *****************
  6395 ;; Defined at:
  6396 ;;		line 6 in file "i2c.c"
  6397 ;; Parameters:    Size  Location     Type
  6398 ;;  baud            4    8[BANK0 ] unsigned long 
  6399 ;; Auto vars:     Size  Location     Type
  6400 ;;		None
  6401 ;; Return value:  Size  Location     Type
  6402 ;;                  1    wreg      void 
  6403 ;; Registers used:
  6404 ;;		wreg, status,2, status,0, pclath, cstack
  6405 ;; Tracked objects:
  6406 ;;		On entry : 0/0
  6407 ;;		On exit  : 0/0
  6408 ;;		Unchanged: 0/0
  6409 ;; Data sizes:     COMMON   BANK0   BANK1   BANK3   BANK2
  6410 ;;      Params:         0       4       0       0       0
  6411 ;;      Locals:         0       0       0       0       0
  6412 ;;      Temps:          0       4       0       0       0
  6413 ;;      Totals:         0       8       0       0       0
  6414 ;;Total ram usage:        8 bytes
  6415 ;; Hardware stack levels used: 1
  6416 ;; Hardware stack levels required when called: 2
  6417 ;; This function calls:
  6418 ;;		___lldiv
  6419 ;; This function is called by:
  6420 ;;		_init_config
  6421 ;; This function uses a non-reentrant model
  6422 ;;
  6423                           
  6424  1243                     _init_i2c:	
  6425                           ;psect for function _init_i2c
  6426                           
  6427  1243                     l4425:	
  6428                           ;incstack = 0
  6429                           ; Regs used in _init_i2c: [wreg+status,2+status,0+pclath+cstack]
  6430                           
  6431                           
  6432                           ;i2c.c: 6: void init_i2c(unsigned long baud);i2c.c: 7: {;i2c.c: 9:     SSPM3 = 1;
  6433  1243  1283               	bcf	3,5	;RP0=0, select bank0
  6434  1244  1303               	bcf	3,6	;RP1=0, select bank0
  6435  1245  1594               	bsf	20,3	;volatile
  6436  1246                     l4427:
  6437                           
  6438                           ;i2c.c: 12:     SSPADD = (20000000 / (4 * baud)) - 1;
  6439  1246  0828               	movf	init_i2c@baud,w
  6440  1247  00AC               	movwf	??_init_i2c
  6441  1248  0829               	movf	init_i2c@baud+1,w
  6442  1249  00AD               	movwf	??_init_i2c+1
  6443  124A  082A               	movf	init_i2c@baud+2,w
  6444  124B  00AE               	movwf	??_init_i2c+2
  6445  124C  082B               	movf	init_i2c@baud+3,w
  6446  124D  00AF               	movwf	??_init_i2c+3
  6447  124E  3002               	movlw	2
  6448  124F                     u3785:
  6449  124F  1003               	clrc
  6450  1250  0DAC               	rlf	??_init_i2c,f
  6451  1251  0DAD               	rlf	??_init_i2c+1,f
  6452  1252  0DAE               	rlf	??_init_i2c+2,f
  6453  1253  0DAF               	rlf	??_init_i2c+3,f
  6454  1254                     u3780:
  6455  1254  3EFF               	addlw	-1
  6456  1255  1D03               	skipz
  6457  1256  2A4F               	goto	u3785
  6458  1257  082F               	movf	??_init_i2c+3,w
  6459  1258  00A3               	movwf	___lldiv@divisor+3
  6460  1259  082E               	movf	??_init_i2c+2,w
  6461  125A  00A2               	movwf	___lldiv@divisor+2
  6462  125B  082D               	movf	??_init_i2c+1,w
  6463  125C  00A1               	movwf	___lldiv@divisor+1
  6464  125D  082C               	movf	??_init_i2c,w
  6465  125E  00A0               	movwf	___lldiv@divisor
  6466  125F  3001               	movlw	1
  6467  1260  00A7               	movwf	___lldiv@dividend+3
  6468  1261  3031               	movlw	49
  6469  1262  00A6               	movwf	___lldiv@dividend+2
  6470  1263  302D               	movlw	45
  6471  1264  00A5               	movwf	___lldiv@dividend+1
  6472  1265  3000               	movlw	0
  6473  1266  00A4               	movwf	___lldiv@dividend
  6474  1267  160A  118A  25D9  160A  118A  	fcall	___lldiv
  6475  126C  1283               	bcf	3,5	;RP0=0, select bank0
  6476  126D  1303               	bcf	3,6	;RP1=0, select bank0
  6477  126E  0820               	movf	?___lldiv,w
  6478  126F  3EFF               	addlw	255
  6479  1270  1683               	bsf	3,5	;RP0=1, select bank1
  6480  1271  1303               	bcf	3,6	;RP1=0, select bank1
  6481  1272  0093               	movwf	19	;volatile
  6482  1273                     l4429:
  6483                           
  6484                           ;i2c.c: 15:     SSPEN = 1;
  6485  1273  1283               	bcf	3,5	;RP0=0, select bank0
  6486  1274  1303               	bcf	3,6	;RP1=0, select bank0
  6487  1275  1694               	bsf	20,5	;volatile
  6488  1276                     l474:
  6489  1276  0008               	return
  6490  1277                     __end_of_init_i2c:
  6491                           
  6492                           	psect	text15
  6493  15D9                     __ptext15:	
  6494 ;; *************** function ___lldiv *****************
  6495 ;; Defined at:
  6496 ;;		line 5 in file "C:\Program Files\Microchip\xc8\v2.36\pic\sources\c90\common\__lldiv.c"
  6497 ;; Parameters:    Size  Location     Type
  6498 ;;  divisor         4    0[BANK0 ] unsigned long 
  6499 ;;  dividend        4    4[BANK0 ] unsigned long 
  6500 ;; Auto vars:     Size  Location     Type
  6501 ;;  quotient        4    4[COMMON] unsigned long 
  6502 ;;  counter         1    8[COMMON] unsigned char 
  6503 ;; Return value:  Size  Location     Type
  6504 ;;                  4    0[BANK0 ] unsigned long 
  6505 ;; Registers used:
  6506 ;;		wreg, status,2, status,0
  6507 ;; Tracked objects:
  6508 ;;		On entry : 0/0
  6509 ;;		On exit  : 0/0
  6510 ;;		Unchanged: 0/0
  6511 ;; Data sizes:     COMMON   BANK0   BANK1   BANK3   BANK2
  6512 ;;      Params:         0       8       0       0       0
  6513 ;;      Locals:         5       0       0       0       0
  6514 ;;      Temps:          1       0       0       0       0
  6515 ;;      Totals:         6       8       0       0       0
  6516 ;;Total ram usage:       14 bytes
  6517 ;; Hardware stack levels used: 1
  6518 ;; Hardware stack levels required when called: 1
  6519 ;; This function calls:
  6520 ;;		Nothing
  6521 ;; This function is called by:
  6522 ;;		_init_i2c
  6523 ;;		_init_uart
  6524 ;; This function uses a non-reentrant model
  6525 ;;
  6526                           
  6527  15D9                     ___lldiv:	
  6528                           ;psect for function ___lldiv
  6529                           
  6530  15D9                     l4299:	
  6531                           ;incstack = 0
  6532                           ; Regs used in ___lldiv: [wreg+status,2+status,0]
  6533                           
  6534  15D9  3000               	movlw	0
  6535  15DA  00F7               	movwf	___lldiv@quotient+3
  6536  15DB  3000               	movlw	0
  6537  15DC  00F6               	movwf	___lldiv@quotient+2
  6538  15DD  3000               	movlw	0
  6539  15DE  00F5               	movwf	___lldiv@quotient+1
  6540  15DF  3000               	movlw	0
  6541  15E0  00F4               	movwf	___lldiv@quotient
  6542  15E1  1283               	bcf	3,5	;RP0=0, select bank0
  6543  15E2  1303               	bcf	3,6	;RP1=0, select bank0
  6544  15E3  0823               	movf	___lldiv@divisor+3,w
  6545  15E4  0422               	iorwf	___lldiv@divisor+2,w
  6546  15E5  0421               	iorwf	___lldiv@divisor+1,w
  6547  15E6  0420               	iorwf	___lldiv@divisor,w
  6548  15E7  1903               	skipnz
  6549  15E8  2DEA               	goto	u3581
  6550  15E9  2DEB               	goto	u3580
  6551  15EA                     u3581:
  6552  15EA  2E38               	goto	l4319
  6553  15EB                     u3580:
  6554  15EB                     l4301:
  6555  15EB  01F8               	clrf	___lldiv@counter
  6556  15EC  0AF8               	incf	___lldiv@counter,f
  6557  15ED  2DFB               	goto	l4305
  6558  15EE                     l4303:
  6559  15EE  3001               	movlw	1
  6560  15EF  00F3               	movwf	??___lldiv
  6561  15F0                     u3595:
  6562  15F0  1003               	clrc
  6563  15F1  0DA0               	rlf	___lldiv@divisor,f
  6564  15F2  0DA1               	rlf	___lldiv@divisor+1,f
  6565  15F3  0DA2               	rlf	___lldiv@divisor+2,f
  6566  15F4  0DA3               	rlf	___lldiv@divisor+3,f
  6567  15F5  0BF3               	decfsz	??___lldiv,f
  6568  15F6  2DF0               	goto	u3595
  6569  15F7  3001               	movlw	1
  6570  15F8  00F3               	movwf	??___lldiv
  6571  15F9  0873               	movf	??___lldiv,w
  6572  15FA  07F8               	addwf	___lldiv@counter,f
  6573  15FB                     l4305:
  6574  15FB  1FA3               	btfss	___lldiv@divisor+3,7
  6575  15FC  2DFE               	goto	u3601
  6576  15FD  2DFF               	goto	u3600
  6577  15FE                     u3601:
  6578  15FE  2DEE               	goto	l4303
  6579  15FF                     u3600:
  6580  15FF                     l4307:
  6581  15FF  3001               	movlw	1
  6582  1600  00F3               	movwf	??___lldiv
  6583  1601                     u3615:
  6584  1601  1003               	clrc
  6585  1602  0DF4               	rlf	___lldiv@quotient,f
  6586  1603  0DF5               	rlf	___lldiv@quotient+1,f
  6587  1604  0DF6               	rlf	___lldiv@quotient+2,f
  6588  1605  0DF7               	rlf	___lldiv@quotient+3,f
  6589  1606  0BF3               	decfsz	??___lldiv,f
  6590  1607  2E01               	goto	u3615
  6591  1608                     l4309:
  6592  1608  0823               	movf	___lldiv@divisor+3,w
  6593  1609  0227               	subwf	___lldiv@dividend+3,w
  6594  160A  1D03               	skipz
  6595  160B  2E16               	goto	u3625
  6596  160C  0822               	movf	___lldiv@divisor+2,w
  6597  160D  0226               	subwf	___lldiv@dividend+2,w
  6598  160E  1D03               	skipz
  6599  160F  2E16               	goto	u3625
  6600  1610  0821               	movf	___lldiv@divisor+1,w
  6601  1611  0225               	subwf	___lldiv@dividend+1,w
  6602  1612  1D03               	skipz
  6603  1613  2E16               	goto	u3625
  6604  1614  0820               	movf	___lldiv@divisor,w
  6605  1615  0224               	subwf	___lldiv@dividend,w
  6606  1616                     u3625:
  6607  1616  1C03               	skipc
  6608  1617  2E19               	goto	u3621
  6609  1618  2E1A               	goto	u3620
  6610  1619                     u3621:
  6611  1619  2E29               	goto	l4315
  6612  161A                     u3620:
  6613  161A                     l4311:
  6614  161A  0820               	movf	___lldiv@divisor,w
  6615  161B  02A4               	subwf	___lldiv@dividend,f
  6616  161C  0821               	movf	___lldiv@divisor+1,w
  6617  161D  1C03               	skipc
  6618  161E  0F21               	incfsz	___lldiv@divisor+1,w
  6619  161F  02A5               	subwf	___lldiv@dividend+1,f
  6620  1620  0822               	movf	___lldiv@divisor+2,w
  6621  1621  1C03               	skipc
  6622  1622  0F22               	incfsz	___lldiv@divisor+2,w
  6623  1623  02A6               	subwf	___lldiv@dividend+2,f
  6624  1624  0823               	movf	___lldiv@divisor+3,w
  6625  1625  1C03               	skipc
  6626  1626  0F23               	incfsz	___lldiv@divisor+3,w
  6627  1627  02A7               	subwf	___lldiv@dividend+3,f
  6628  1628                     l4313:
  6629  1628  1474               	bsf	___lldiv@quotient,0
  6630  1629                     l4315:
  6631  1629  3001               	movlw	1
  6632  162A                     u3635:
  6633  162A  1003               	clrc
  6634  162B  0CA3               	rrf	___lldiv@divisor+3,f
  6635  162C  0CA2               	rrf	___lldiv@divisor+2,f
  6636  162D  0CA1               	rrf	___lldiv@divisor+1,f
  6637  162E  0CA0               	rrf	___lldiv@divisor,f
  6638  162F  3EFF               	addlw	-1
  6639  1630  1D03               	skipz
  6640  1631  2E2A               	goto	u3635
  6641  1632                     l4317:
  6642  1632  3001               	movlw	1
  6643  1633  02F8               	subwf	___lldiv@counter,f
  6644  1634  1D03               	btfss	3,2
  6645  1635  2E37               	goto	u3641
  6646  1636  2E38               	goto	u3640
  6647  1637                     u3641:
  6648  1637  2DFF               	goto	l4307
  6649  1638                     u3640:
  6650  1638                     l4319:
  6651  1638  0877               	movf	___lldiv@quotient+3,w
  6652  1639  00A3               	movwf	?___lldiv+3
  6653  163A  0876               	movf	___lldiv@quotient+2,w
  6654  163B  00A2               	movwf	?___lldiv+2
  6655  163C  0875               	movf	___lldiv@quotient+1,w
  6656  163D  00A1               	movwf	?___lldiv+1
  6657  163E  0874               	movf	___lldiv@quotient,w
  6658  163F  00A0               	movwf	?___lldiv
  6659  1640                     l678:
  6660  1640  0008               	return
  6661  1641                     __end_of___lldiv:
  6662                           
  6663                           	psect	text16
  6664  1EC9                     __ptext16:	
  6665 ;; *************** function _init_ds1307 *****************
  6666 ;; Defined at:
  6667 ;;		line 8 in file "ds1307.c"
  6668 ;; Parameters:    Size  Location     Type
  6669 ;;		None
  6670 ;; Auto vars:     Size  Location     Type
  6671 ;;  dummy           1    1[BANK0 ] unsigned char 
  6672 ;; Return value:  Size  Location     Type
  6673 ;;                  1    wreg      void 
  6674 ;; Registers used:
  6675 ;;		wreg, status,2, status,0, pclath, cstack
  6676 ;; Tracked objects:
  6677 ;;		On entry : 0/0
  6678 ;;		On exit  : 0/0
  6679 ;;		Unchanged: 0/0
  6680 ;; Data sizes:     COMMON   BANK0   BANK1   BANK3   BANK2
  6681 ;;      Params:         0       0       0       0       0
  6682 ;;      Locals:         0       1       0       0       0
  6683 ;;      Temps:          0       1       0       0       0
  6684 ;;      Totals:         0       2       0       0       0
  6685 ;;Total ram usage:        2 bytes
  6686 ;; Hardware stack levels used: 1
  6687 ;; Hardware stack levels required when called: 4
  6688 ;; This function calls:
  6689 ;;		_read_ds1307
  6690 ;;		_write_ds1307
  6691 ;; This function is called by:
  6692 ;;		_init_config
  6693 ;; This function uses a non-reentrant model
  6694 ;;
  6695                           
  6696  1EC9                     _init_ds1307:	
  6697                           ;psect for function _init_ds1307
  6698                           
  6699  1EC9                     l4431:	
  6700                           ;incstack = 0
  6701                           ; Regs used in _init_ds1307: [wreg+status,2+status,0+pclath+cstack]
  6702                           
  6703                           
  6704                           ;ds1307.c: 10:     unsigned char dummy;;ds1307.c: 12:     dummy = read_ds1307(0x00);
  6705  1EC9  3000               	movlw	0
  6706  1ECA  160A  118A  21E3  160A  158A  	fcall	_read_ds1307
  6707  1ECF  1283               	bcf	3,5	;RP0=0, select bank0
  6708  1ED0  1303               	bcf	3,6	;RP1=0, select bank0
  6709  1ED1  00A0               	movwf	??_init_ds1307
  6710  1ED2  0820               	movf	??_init_ds1307,w
  6711  1ED3  00A1               	movwf	init_ds1307@dummy
  6712  1ED4                     l4433:
  6713                           
  6714                           ;ds1307.c: 13:     dummy = dummy & 0x7F;
  6715  1ED4  0821               	movf	init_ds1307@dummy,w
  6716  1ED5  397F               	andlw	127
  6717  1ED6  00A0               	movwf	??_init_ds1307
  6718  1ED7  0820               	movf	??_init_ds1307,w
  6719  1ED8  00A1               	movwf	init_ds1307@dummy
  6720  1ED9                     l4435:
  6721                           
  6722                           ;ds1307.c: 14:     write_ds1307(0x00, dummy);
  6723  1ED9  0821               	movf	init_ds1307@dummy,w
  6724  1EDA  00A0               	movwf	??_init_ds1307
  6725  1EDB  0820               	movf	??_init_ds1307,w
  6726  1EDC  00F4               	movwf	write_ds1307@data
  6727  1EDD  3000               	movlw	0
  6728  1EDE  160A  158A  2702  160A  158A  	fcall	_write_ds1307
  6729  1EE3                     l417:
  6730  1EE3  0008               	return
  6731  1EE4                     __end_of_init_ds1307:
  6732                           
  6733                           	psect	text17
  6734  1E03                     __ptext17:	
  6735 ;; *************** function _init_digital_keypad *****************
  6736 ;; Defined at:
  6737 ;;		line 6 in file "digital_keypad.c"
  6738 ;; Parameters:    Size  Location     Type
  6739 ;;		None
  6740 ;; Auto vars:     Size  Location     Type
  6741 ;;		None
  6742 ;; Return value:  Size  Location     Type
  6743 ;;                  1    wreg      void 
  6744 ;; Registers used:
  6745 ;;		wreg, status,2
  6746 ;; Tracked objects:
  6747 ;;		On entry : 0/0
  6748 ;;		On exit  : 0/0
  6749 ;;		Unchanged: 0/0
  6750 ;; Data sizes:     COMMON   BANK0   BANK1   BANK3   BANK2
  6751 ;;      Params:         0       0       0       0       0
  6752 ;;      Locals:         0       0       0       0       0
  6753 ;;      Temps:          0       0       0       0       0
  6754 ;;      Totals:         0       0       0       0       0
  6755 ;;Total ram usage:        0 bytes
  6756 ;; Hardware stack levels used: 1
  6757 ;; Hardware stack levels required when called: 1
  6758 ;; This function calls:
  6759 ;;		Nothing
  6760 ;; This function is called by:
  6761 ;;		_init_config
  6762 ;; This function uses a non-reentrant model
  6763 ;;
  6764                           
  6765  1E03                     _init_digital_keypad:	
  6766                           ;psect for function _init_digital_keypad
  6767                           
  6768  1E03                     l4341:	
  6769                           ;incstack = 0
  6770                           ; Regs used in _init_digital_keypad: [wreg+status,2]
  6771                           
  6772                           
  6773                           ;digital_keypad.c: 9:  static char once = 0 ;
  6774  1E03  1683               	bsf	3,5	;RP0=1, select bank1
  6775  1E04  1303               	bcf	3,6	;RP1=0, select bank1
  6776  1E05  0806               	movf	6,w	;volatile
  6777  1E06  383F               	iorlw	63
  6778  1E07  0086               	movwf	6	;volatile
  6779  1E08                     l64:
  6780  1E08  0008               	return
  6781  1E09                     __end_of_init_digital_keypad:
  6782                           
  6783                           	psect	text18
  6784  1E51                     __ptext18:	
  6785 ;; *************** function _init_clcd *****************
  6786 ;; Defined at:
  6787 ;;		line 46 in file "clcd.c"
  6788 ;; Parameters:    Size  Location     Type
  6789 ;;		None
  6790 ;; Auto vars:     Size  Location     Type
  6791 ;;		None
  6792 ;; Return value:  Size  Location     Type
  6793 ;;                  1    wreg      void 
  6794 ;; Registers used:
  6795 ;;		wreg, status,2, status,0, pclath, cstack
  6796 ;; Tracked objects:
  6797 ;;		On entry : 0/0
  6798 ;;		On exit  : 0/0
  6799 ;;		Unchanged: 0/0
  6800 ;; Data sizes:     COMMON   BANK0   BANK1   BANK3   BANK2
  6801 ;;      Params:         0       0       0       0       0
  6802 ;;      Locals:         0       0       0       0       0
  6803 ;;      Temps:          0       0       0       0       0
  6804 ;;      Totals:         0       0       0       0       0
  6805 ;;Total ram usage:        0 bytes
  6806 ;; Hardware stack levels used: 1
  6807 ;; Hardware stack levels required when called: 3
  6808 ;; This function calls:
  6809 ;;		_init_display_controller
  6810 ;; This function is called by:
  6811 ;;		_init_config
  6812 ;; This function uses a non-reentrant model
  6813 ;;
  6814                           
  6815  1E51                     _init_clcd:	
  6816                           ;psect for function _init_clcd
  6817                           
  6818  1E51                     l4325:	
  6819                           ;incstack = 0
  6820                           ; Regs used in _init_clcd: [wreg+status,2+status,0+pclath+cstack]
  6821                           
  6822                           
  6823                           ;clcd.c: 49: 
  6824  1E51  1683               	bsf	3,5	;RP0=1, select bank1
  6825  1E52  1303               	bcf	3,6	;RP1=0, select bank1
  6826  1E53  0188               	clrf	8	;volatile
  6827  1E54                     l4327:
  6828                           
  6829                           ;clcd.c: 52: 
  6830  1E54  1109               	bcf	9,2	;volatile
  6831  1E55                     l4329:
  6832                           
  6833                           ;clcd.c: 53: void clcd_putch(const char data, unsigned char addr)
  6834  1E55  1089               	bcf	9,1	;volatile
  6835  1E56                     l4331:
  6836                           
  6837                           ;clcd.c: 55:     clcd_write(addr, 0);
  6838  1E56  160A  118A  26AA  160A  158A  	fcall	_init_display_controller
  6839  1E5B                     l44:
  6840  1E5B  0008               	return
  6841  1E5C                     __end_of_init_clcd:
  6842                           
  6843                           	psect	text19
  6844  16AA                     __ptext19:	
  6845 ;; *************** function _init_display_controller *****************
  6846 ;; Defined at:
  6847 ;;		line 21 in file "clcd.c"
  6848 ;; Parameters:    Size  Location     Type
  6849 ;;		None
  6850 ;; Auto vars:     Size  Location     Type
  6851 ;;		None
  6852 ;; Return value:  Size  Location     Type
  6853 ;;                  1    wreg      void 
  6854 ;; Registers used:
  6855 ;;		wreg, status,2, status,0, pclath, cstack
  6856 ;; Tracked objects:
  6857 ;;		On entry : 0/0
  6858 ;;		On exit  : 0/0
  6859 ;;		Unchanged: 0/0
  6860 ;; Data sizes:     COMMON   BANK0   BANK1   BANK3   BANK2
  6861 ;;      Params:         0       0       0       0       0
  6862 ;;      Locals:         0       0       0       0       0
  6863 ;;      Temps:          2       0       0       0       0
  6864 ;;      Totals:         2       0       0       0       0
  6865 ;;Total ram usage:        2 bytes
  6866 ;; Hardware stack levels used: 1
  6867 ;; Hardware stack levels required when called: 2
  6868 ;; This function calls:
  6869 ;;		_clcd_write
  6870 ;; This function is called by:
  6871 ;;		_init_clcd
  6872 ;; This function uses a non-reentrant model
  6873 ;;
  6874                           
  6875  16AA                     _init_display_controller:	
  6876                           ;psect for function _init_display_controller
  6877                           
  6878  16AA                     l4221:	
  6879                           ;incstack = 0
  6880                           ; Regs used in _init_display_controller: [wreg+status,2+status,0+pclath+cstack]
  6881                           
  6882                           
  6883                           ;clcd.c: 24:     clcd_write(0x33, 0);
  6884  16AA  30C3               	movlw	195
  6885  16AB  00F8               	movwf	??_init_display_controller+1
  6886  16AC  30CD               	movlw	205
  6887  16AD  00F7               	movwf	??_init_display_controller
  6888  16AE                     u5257:
  6889  16AE  0BF7               	decfsz	??_init_display_controller,f
  6890  16AF  2EAE               	goto	u5257
  6891  16B0  0BF8               	decfsz	??_init_display_controller+1,f
  6892  16B1  2EAE               	goto	u5257
  6893  16B2                     l4223:
  6894                           
  6895                           ;clcd.c: 27:     _delay((unsigned long)((1)*(20000000/4000000.0)));
  6896  16B2  01F3               	clrf	clcd_write@mode
  6897  16B3  3033               	movlw	51
  6898  16B4  160A  118A  2277  160A  118A  	fcall	_clcd_write
  6899  16B9                     l4225:
  6900                           
  6901                           ;clcd.c: 28: 
  6902  16B9  301B               	movlw	27
  6903  16BA  00F8               	movwf	??_init_display_controller+1
  6904  16BB  309E               	movlw	158
  6905  16BC  00F7               	movwf	??_init_display_controller
  6906  16BD                     u5267:
  6907  16BD  0BF7               	decfsz	??_init_display_controller,f
  6908  16BE  2EBD               	goto	u5267
  6909  16BF  0BF8               	decfsz	??_init_display_controller+1,f
  6910  16C0  2EBD               	goto	u5267
  6911  16C1  0000               	nop
  6912                           
  6913                           ;clcd.c: 29:     clcd_write(0x02, 0);
  6914  16C2  01F3               	clrf	clcd_write@mode
  6915  16C3  3033               	movlw	51
  6916  16C4  160A  118A  2277  160A  118A  	fcall	_clcd_write
  6917  16C9                     l4227:
  6918                           
  6919                           ;clcd.c: 30:     _delay((unsigned long)((100)*(20000000/4000000.0)));
  6920  16C9  30A6               	movlw	166
  6921  16CA  00F7               	movwf	??_init_display_controller
  6922  16CB                     u5277:
  6923  16CB  0BF7               	decfsz	??_init_display_controller,f
  6924  16CC  2ECB               	goto	u5277
  6925  16CD  0000               	nop
  6926  16CE                     l4229:
  6927                           
  6928                           ;clcd.c: 31:     clcd_write(0x28, 0);
  6929  16CE  01F3               	clrf	clcd_write@mode
  6930  16CF  3033               	movlw	51
  6931  16D0  160A  118A  2277  160A  118A  	fcall	_clcd_write
  6932  16D5                     l4231:
  6933                           
  6934                           ;clcd.c: 32:     _delay((unsigned long)((100)*(20000000/4000000.0)));
  6935  16D5  2ED6               	nop2	;2 cycle nop
  6936  16D6  2ED7               	nop2	;2 cycle nop
  6937  16D7  0000               	nop
  6938  16D8                     l4233:
  6939                           
  6940                           ;clcd.c: 34:     _delay((unsigned long)((500)*(20000000/4000000.0)));
  6941  16D8  01F3               	clrf	clcd_write@mode
  6942  16D9  3002               	movlw	2
  6943  16DA  160A  118A  2277  160A  118A  	fcall	_clcd_write
  6944  16DF                     l4235:
  6945                           
  6946                           ;clcd.c: 35:     clcd_write(0x0C, 0);
  6947  16DF  30A6               	movlw	166
  6948  16E0  00F7               	movwf	??_init_display_controller
  6949  16E1                     u5287:
  6950  16E1  0BF7               	decfsz	??_init_display_controller,f
  6951  16E2  2EE1               	goto	u5287
  6952  16E3  0000               	nop
  6953                           
  6954                           ;clcd.c: 36:     _delay((unsigned long)((100)*(20000000/4000000.0)));
  6955  16E4  01F3               	clrf	clcd_write@mode
  6956  16E5  3028               	movlw	40
  6957  16E6  160A  118A  2277  160A  118A  	fcall	_clcd_write
  6958  16EB                     l4237:
  6959                           
  6960                           ;clcd.c: 37:      clcd_write(0x0F, 0);
  6961  16EB  30A6               	movlw	166
  6962  16EC  00F7               	movwf	??_init_display_controller
  6963  16ED                     u5297:
  6964  16ED  0BF7               	decfsz	??_init_display_controller,f
  6965  16EE  2EED               	goto	u5297
  6966  16EF  0000               	nop
  6967  16F0                     l4239:
  6968                           
  6969                           ;clcd.c: 38:     _delay((unsigned long)((100)*(20000000/4000000.0)));
  6970  16F0  01F3               	clrf	clcd_write@mode
  6971  16F1  3001               	movlw	1
  6972  16F2  160A  118A  2277  160A  118A  	fcall	_clcd_write
  6973                           
  6974                           ;clcd.c: 39: }
  6975  16F7  3004               	movlw	4
  6976  16F8  00F8               	movwf	??_init_display_controller+1
  6977  16F9  303D               	movlw	61
  6978  16FA  00F7               	movwf	??_init_display_controller
  6979  16FB                     u5307:
  6980  16FB  0BF7               	decfsz	??_init_display_controller,f
  6981  16FC  2EFB               	goto	u5307
  6982  16FD  0BF8               	decfsz	??_init_display_controller+1,f
  6983  16FE  2EFB               	goto	u5307
  6984  16FF  2F00               	nop2
  6985  1700                     l4241:
  6986                           
  6987                           ;clcd.c: 40: 
  6988  1700  01F3               	clrf	clcd_write@mode
  6989  1701  300C               	movlw	12
  6990  1702  160A  118A  2277  160A  118A  	fcall	_clcd_write
  6991  1707                     l4243:
  6992                           
  6993                           ;clcd.c: 41: void init_clcd(void)
  6994  1707  30A6               	movlw	166
  6995  1708  00F7               	movwf	??_init_display_controller
  6996  1709                     u5317:
  6997  1709  0BF7               	decfsz	??_init_display_controller,f
  6998  170A  2F09               	goto	u5317
  6999  170B  0000               	nop
  7000                           
  7001                           ;clcd.c: 42: {
  7002  170C  01F3               	clrf	clcd_write@mode
  7003  170D  300F               	movlw	15
  7004  170E  160A  118A  2277  160A  118A  	fcall	_clcd_write
  7005  1713                     l4245:
  7006                           
  7007                           ;clcd.c: 43: 
  7008  1713  30A6               	movlw	166
  7009  1714  00F7               	movwf	??_init_display_controller
  7010  1715                     u5327:
  7011  1715  0BF7               	decfsz	??_init_display_controller,f
  7012  1716  2F15               	goto	u5327
  7013  1717  0000               	nop
  7014  1718                     l41:
  7015  1718  0008               	return
  7016  1719                     __end_of_init_display_controller:
  7017                           
  7018                           	psect	text20
  7019  1E09                     __ptext20:	
  7020 ;; *************** function _init_adc *****************
  7021 ;; Defined at:
  7022 ;;		line 6 in file "adc.c"
  7023 ;; Parameters:    Size  Location     Type
  7024 ;;		None
  7025 ;; Auto vars:     Size  Location     Type
  7026 ;;		None
  7027 ;; Return value:  Size  Location     Type
  7028 ;;                  1    wreg      void 
  7029 ;; Registers used:
  7030 ;;		None
  7031 ;; Tracked objects:
  7032 ;;		On entry : 0/0
  7033 ;;		On exit  : 0/0
  7034 ;;		Unchanged: 0/0
  7035 ;; Data sizes:     COMMON   BANK0   BANK1   BANK3   BANK2
  7036 ;;      Params:         0       0       0       0       0
  7037 ;;      Locals:         0       0       0       0       0
  7038 ;;      Temps:          0       0       0       0       0
  7039 ;;      Totals:         0       0       0       0       0
  7040 ;;Total ram usage:        0 bytes
  7041 ;; Hardware stack levels used: 1
  7042 ;; Hardware stack levels required when called: 1
  7043 ;; This function calls:
  7044 ;;		Nothing
  7045 ;; This function is called by:
  7046 ;;		_init_config
  7047 ;; This function uses a non-reentrant model
  7048 ;;
  7049                           
  7050  1E09                     _init_adc:	
  7051                           ;psect for function _init_adc
  7052                           
  7053  1E09                     l4323:	
  7054                           ;incstack = 0
  7055                           ; Regs used in _init_adc: []
  7056                           
  7057                           
  7058                           ;adc.c: 9:     ADFM = 1;
  7059  1E09  1683               	bsf	3,5	;RP0=1, select bank1
  7060  1E0A  1303               	bcf	3,6	;RP1=0, select bank1
  7061  1E0B  179F               	bsf	31,7	;volatile
  7062                           
  7063                           ;adc.c: 12:     ADON = 1;
  7064  1E0C  1283               	bcf	3,5	;RP0=0, select bank0
  7065  1E0D  1303               	bcf	3,6	;RP1=0, select bank0
  7066  1E0E  141F               	bsf	31,0	;volatile
  7067  1E0F                     l15:
  7068  1E0F  0008               	return
  7069  1E10                     __end_of_init_adc:
  7070                           
  7071                           	psect	text21
  7072  0692                     __ptext21:	
  7073 ;; *************** function _download_log *****************
  7074 ;; Defined at:
  7075 ;;		line 313 in file "display.c"
  7076 ;; Parameters:    Size  Location     Type
  7077 ;;		None
  7078 ;; Auto vars:     Size  Location     Type
  7079 ;;  i               2   20[BANK0 ] int 
  7080 ;;  rlog           11    4[BANK0 ] unsigned char [11]
  7081 ;;  next            2   18[BANK0 ] int 
  7082 ;;  rpos            2   16[BANK0 ] int 
  7083 ;;  add             1   15[BANK0 ] unsigned char 
  7084 ;; Return value:  Size  Location     Type
  7085 ;;                  1    wreg      void 
  7086 ;; Registers used:
  7087 ;;		wreg, fsr0l, fsr0h, status,2, status,0, btemp+1, pclath, cstack
  7088 ;; Tracked objects:
  7089 ;;		On entry : 0/0
  7090 ;;		On exit  : 0/0
  7091 ;;		Unchanged: 0/0
  7092 ;; Data sizes:     COMMON   BANK0   BANK1   BANK3   BANK2
  7093 ;;      Params:         0       0       0       0       0
  7094 ;;      Locals:         0      18       0       0       0
  7095 ;;      Temps:          0       2       0       0       0
  7096 ;;      Totals:         0      20       0       0       0
  7097 ;;Total ram usage:       20 bytes
  7098 ;; Hardware stack levels used: 1
  7099 ;; Hardware stack levels required when called: 4
  7100 ;; This function calls:
  7101 ;;		___awmod
  7102 ;;		___bmul
  7103 ;;		_ext_eeprom_24C02_read
  7104 ;;		_putchars
  7105 ;;		_putsx
  7106 ;; This function is called by:
  7107 ;;		_main
  7108 ;; This function uses a non-reentrant model
  7109 ;;
  7110                           
  7111  0692                     _download_log:	
  7112                           ;psect for function _download_log
  7113                           
  7114  0692                     l4907:	
  7115                           ;incstack = 0
  7116                           ; Regs used in _download_log: [wreg-fsr0h+status,2+status,0+btemp+1+pclath+cstack]
  7117                           
  7118                           
  7119                           ;display.c: 315:  if ( access == -1 )
  7120  0692  30FF               	movlw	255
  7121  0693  1283               	bcf	3,5	;RP0=0, select bank0
  7122  0694  1303               	bcf	3,6	;RP1=0, select bank0
  7123  0695  00B2               	movwf	download_log@next
  7124  0696  30FF               	movlw	255
  7125  0697  00B3               	movwf	download_log@next+1
  7126  0698                     l4909:
  7127                           
  7128                           ;display.c: 316:  {;display.c: 317:   putsx("No logs avaiable");
  7129  0698  01AE               	clrf	download_log@rlog+10
  7130  0699                     l4911:
  7131  0699                     l4913:
  7132                           
  7133                           ;display.c: 319:  else;display.c: 321: 
  7134  0699  0A62               	incf	_access,w
  7135  069A  1D03               	skipz
  7136  069B  2EA0               	goto	u4591
  7137  069C  0A63               	incf	_access+1,w
  7138  069D  1D03               	btfss	3,2
  7139  069E  2EA0               	goto	u4591
  7140  069F  2EA1               	goto	u4590
  7141  06A0                     u4591:
  7142  06A0  2EAB               	goto	l4917
  7143  06A1                     u4590:
  7144  06A1                     l4915:
  7145                           
  7146                           ;display.c: 322:   putsx("Logs :");;display.c: 323:   putchars('\n');
  7147  06A1  30B1               	movlw	low (STR_17| (0+32768))
  7148  06A2  00F4               	movwf	putsx@s
  7149  06A3  3090               	movlw	high (STR_17| (0+32768))
  7150  06A4  00F5               	movwf	putsx@s+1
  7151  06A5  160A  158A  2787  120A  118A  	fcall	_putsx
  7152                           
  7153                           ;display.c: 324:   putchars('\n');
  7154  06AA  2FCF               	goto	l226
  7155  06AB                     l4917:
  7156                           
  7157                           ;display.c: 326: ;display.c: 328:   {
  7158  06AB  306E               	movlw	low (STR_18| (0+32768))
  7159  06AC  00F4               	movwf	putsx@s
  7160  06AD  3091               	movlw	high (STR_18| (0+32768))
  7161  06AE  00F5               	movwf	putsx@s+1
  7162  06AF  160A  158A  2787  120A  118A  	fcall	_putsx
  7163  06B4                     l4919:
  7164                           
  7165                           ;display.c: 329:    next++;
  7166  06B4  300A               	movlw	10
  7167  06B5  160A  158A  2646  120A  118A  	fcall	_putchars
  7168  06BA                     l4921:
  7169                           
  7170                           ;display.c: 330:    rpos = (overflow)? (pos + 1) % 10 : 0;
  7171  06BA  300A               	movlw	10
  7172  06BB  160A  158A  2646  120A  118A  	fcall	_putchars
  7173  06C0                     l4923:
  7174                           
  7175                           ;display.c: 331:    rpos = (rpos + next) % 10;
  7176  06C0  300D               	movlw	13
  7177  06C1  160A  158A  2646  120A  118A  	fcall	_putchars
  7178                           
  7179                           ;display.c: 333:    for ( int i = 0 ; i < 10 ; i++ )
  7180  06C6  2FBF               	goto	l4949
  7181  06C7                     l4925:
  7182                           
  7183                           ;display.c: 334:    {;display.c: 335:     add = rpos * 10 + 5 + i ;
  7184  06C7  3001               	movlw	1
  7185  06C8  1283               	bcf	3,5	;RP0=0, select bank0
  7186  06C9  1303               	bcf	3,6	;RP1=0, select bank0
  7187  06CA  07B2               	addwf	download_log@next,f
  7188  06CB  1803               	skipnc
  7189  06CC  0AB3               	incf	download_log@next+1,f
  7190  06CD  3000               	movlw	0
  7191  06CE  07B3               	addwf	download_log@next+1,f
  7192  06CF                     l4927:
  7193                           
  7194                           ;display.c: 336:     rlog[i] = ext_eeprom_24C02_read(add );
  7195  06CF  085F               	movf	_overflow,w
  7196  06D0  1D03               	btfss	3,2
  7197  06D1  2ED3               	goto	u4601
  7198  06D2  2ED4               	goto	u4600
  7199  06D3                     u4601:
  7200  06D3  2ED7               	goto	l4931
  7201  06D4                     u4600:
  7202  06D4                     l4929:
  7203  06D4  01B0               	clrf	download_log@rpos
  7204  06D5  01B1               	clrf	download_log@rpos+1
  7205  06D6  2EEE               	goto	l222
  7206  06D7                     l4931:
  7207  06D7  300A               	movlw	10
  7208  06D8  00F3               	movwf	___awmod@divisor
  7209  06D9  3000               	movlw	0
  7210  06DA  00F4               	movwf	___awmod@divisor+1
  7211  06DB  0864               	movf	_pos,w
  7212  06DC  3E01               	addlw	1
  7213  06DD  00F5               	movwf	___awmod@dividend
  7214  06DE  0865               	movf	_pos+1,w
  7215  06DF  1803               	skipnc
  7216  06E0  3E01               	addlw	1
  7217  06E1  3E00               	addlw	0
  7218  06E2  00F6               	movwf	___awmod@dividend+1
  7219  06E3  160A  118A  24BF  120A  118A  	fcall	___awmod
  7220  06E8  0874               	movf	?___awmod+1,w
  7221  06E9  1283               	bcf	3,5	;RP0=0, select bank0
  7222  06EA  1303               	bcf	3,6	;RP1=0, select bank0
  7223  06EB  00B1               	movwf	download_log@rpos+1
  7224  06EC  0873               	movf	?___awmod,w
  7225  06ED  00B0               	movwf	download_log@rpos
  7226  06EE                     l222:
  7227                           
  7228                           ;display.c: 337:    }
  7229  06EE  300A               	movlw	10
  7230  06EF  00F3               	movwf	___awmod@divisor
  7231  06F0  3000               	movlw	0
  7232  06F1  00F4               	movwf	___awmod@divisor+1
  7233  06F2  0832               	movf	download_log@next,w
  7234  06F3  0730               	addwf	download_log@rpos,w
  7235  06F4  00F5               	movwf	___awmod@dividend
  7236  06F5  0833               	movf	download_log@next+1,w
  7237  06F6  1803               	skipnc
  7238  06F7  0A33               	incf	download_log@next+1,w
  7239  06F8  0731               	addwf	download_log@rpos+1,w
  7240  06F9  00F6               	movwf	___awmod@dividend+1
  7241  06FA  160A  118A  24BF  120A  118A  	fcall	___awmod
  7242  06FF  0874               	movf	?___awmod+1,w
  7243  0700  1283               	bcf	3,5	;RP0=0, select bank0
  7244  0701  1303               	bcf	3,6	;RP1=0, select bank0
  7245  0702  00B1               	movwf	download_log@rpos+1
  7246  0703  0873               	movf	?___awmod,w
  7247  0704  00B0               	movwf	download_log@rpos
  7248  0705                     l4933:
  7249                           
  7250                           ;display.c: 339:    putchars ( next + '0');
  7251  0705  01B4               	clrf	download_log@i
  7252  0706  01B5               	clrf	download_log@i+1
  7253  0707                     l4939:
  7254                           
  7255                           ;display.c: 340:    putchars(' ');;display.c: 341:    putchars ( rlog[0] );
  7256  0707  300A               	movlw	10
  7257  0708  1283               	bcf	3,5	;RP0=0, select bank0
  7258  0709  1303               	bcf	3,6	;RP1=0, select bank0
  7259  070A  00A2               	movwf	??_download_log
  7260  070B  0822               	movf	??_download_log,w
  7261  070C  00F3               	movwf	___bmul@multiplicand
  7262  070D  0830               	movf	download_log@rpos,w
  7263  070E  160A  118A  21A2  120A  118A  	fcall	___bmul
  7264  0713  1283               	bcf	3,5	;RP0=0, select bank0
  7265  0714  1303               	bcf	3,6	;RP1=0, select bank0
  7266  0715  0734               	addwf	download_log@i,w
  7267  0716  3E05               	addlw	5
  7268  0717  00A3               	movwf	??_download_log+1
  7269  0718  0823               	movf	??_download_log+1,w
  7270  0719  00AF               	movwf	download_log@add
  7271  071A                     l4941:
  7272                           
  7273                           ;display.c: 342:    putchars ( rlog[1] );
  7274  071A  082F               	movf	download_log@add,w
  7275  071B  120A  118A  27D0  120A  118A  	fcall	_ext_eeprom_24C02_read
  7276  0720  1283               	bcf	3,5	;RP0=0, select bank0
  7277  0721  1303               	bcf	3,6	;RP1=0, select bank0
  7278  0722  00A2               	movwf	??_download_log
  7279  0723  0834               	movf	download_log@i,w
  7280  0724  3E24               	addlw	(low (download_log@rlog| 0))& (0+255)
  7281  0725  0084               	movwf	4
  7282  0726  0822               	movf	??_download_log,w
  7283  0727  1383               	bcf	3,7	;select IRP bank0
  7284  0728  0080               	movwf	0
  7285  0729                     l4943:
  7286                           
  7287                           ;display.c: 343:    putchars (':');
  7288  0729  3001               	movlw	1
  7289  072A  07B4               	addwf	download_log@i,f
  7290  072B  1803               	skipnc
  7291  072C  0AB5               	incf	download_log@i+1,f
  7292  072D  3000               	movlw	0
  7293  072E  07B5               	addwf	download_log@i+1,f
  7294  072F                     l4945:
  7295  072F  0835               	movf	download_log@i+1,w
  7296  0730  3A80               	xorlw	128
  7297  0731  00FF               	movwf	btemp+1
  7298  0732  3080               	movlw	128
  7299  0733  027F               	subwf	btemp+1,w
  7300  0734  1D03               	skipz
  7301  0735  2F38               	goto	u4615
  7302  0736  300A               	movlw	10
  7303  0737  0234               	subwf	download_log@i,w
  7304  0738                     u4615:
  7305  0738  1C03               	skipc
  7306  0739  2F3B               	goto	u4611
  7307  073A  2F3C               	goto	u4610
  7308  073B                     u4611:
  7309  073B  2F07               	goto	l4939
  7310  073C                     u4610:
  7311  073C                     l4947:
  7312                           
  7313                           ;display.c: 345:    putchars ( rlog[3] );
  7314  073C  1283               	bcf	3,5	;RP0=0, select bank0
  7315  073D  1303               	bcf	3,6	;RP1=0, select bank0
  7316  073E  0832               	movf	download_log@next,w
  7317  073F  3E30               	addlw	48
  7318  0740  160A  158A  2646  120A  118A  	fcall	_putchars
  7319                           
  7320                           ;display.c: 346:    putchars (':');
  7321  0745  3020               	movlw	32
  7322  0746  160A  158A  2646  120A  118A  	fcall	_putchars
  7323                           
  7324                           ;display.c: 347:    putchars ( rlog[4] );
  7325  074B  1283               	bcf	3,5	;RP0=0, select bank0
  7326  074C  1303               	bcf	3,6	;RP1=0, select bank0
  7327  074D  0824               	movf	download_log@rlog,w
  7328  074E  160A  158A  2646  120A  118A  	fcall	_putchars
  7329                           
  7330                           ;display.c: 348:    putchars ( rlog[5] );
  7331  0753  1283               	bcf	3,5	;RP0=0, select bank0
  7332  0754  1303               	bcf	3,6	;RP1=0, select bank0
  7333  0755  0825               	movf	download_log@rlog+1,w
  7334  0756  160A  158A  2646  120A  118A  	fcall	_putchars
  7335                           
  7336                           ;display.c: 349:    putchars (' ');
  7337  075B  303A               	movlw	58
  7338  075C  160A  158A  2646  120A  118A  	fcall	_putchars
  7339                           
  7340                           ;display.c: 350:    putchars ( rlog[6] );
  7341  0761  1283               	bcf	3,5	;RP0=0, select bank0
  7342  0762  1303               	bcf	3,6	;RP1=0, select bank0
  7343  0763  0826               	movf	download_log@rlog+2,w
  7344  0764  160A  158A  2646  120A  118A  	fcall	_putchars
  7345                           
  7346                           ;display.c: 351:    putchars ( rlog[7] );
  7347  0769  1283               	bcf	3,5	;RP0=0, select bank0
  7348  076A  1303               	bcf	3,6	;RP1=0, select bank0
  7349  076B  0827               	movf	download_log@rlog+3,w
  7350  076C  160A  158A  2646  120A  118A  	fcall	_putchars
  7351                           
  7352                           ;display.c: 352:    putchars (' ');
  7353  0771  303A               	movlw	58
  7354  0772  160A  158A  2646  120A  118A  	fcall	_putchars
  7355                           
  7356                           ;display.c: 353:    putchars ( rlog[8] );
  7357  0777  1283               	bcf	3,5	;RP0=0, select bank0
  7358  0778  1303               	bcf	3,6	;RP1=0, select bank0
  7359  0779  0828               	movf	download_log@rlog+4,w
  7360  077A  160A  158A  2646  120A  118A  	fcall	_putchars
  7361                           
  7362                           ;display.c: 354:    putchars ( rlog[9] );
  7363  077F  1283               	bcf	3,5	;RP0=0, select bank0
  7364  0780  1303               	bcf	3,6	;RP1=0, select bank0
  7365  0781  0829               	movf	download_log@rlog+5,w
  7366  0782  160A  158A  2646  120A  118A  	fcall	_putchars
  7367                           
  7368                           ;display.c: 355:    putchars ( '\n' );
  7369  0787  3020               	movlw	32
  7370  0788  160A  158A  2646  120A  118A  	fcall	_putchars
  7371                           
  7372                           ;display.c: 356:    putchars ('\r');
  7373  078D  1283               	bcf	3,5	;RP0=0, select bank0
  7374  078E  1303               	bcf	3,6	;RP1=0, select bank0
  7375  078F  082A               	movf	download_log@rlog+6,w
  7376  0790  160A  158A  2646  120A  118A  	fcall	_putchars
  7377                           
  7378                           ;display.c: 357:   }
  7379  0795  1283               	bcf	3,5	;RP0=0, select bank0
  7380  0796  1303               	bcf	3,6	;RP1=0, select bank0
  7381  0797  082B               	movf	download_log@rlog+7,w
  7382  0798  160A  158A  2646  120A  118A  	fcall	_putchars
  7383                           
  7384                           ;display.c: 358:  }
  7385  079D  3020               	movlw	32
  7386  079E  160A  158A  2646  120A  118A  	fcall	_putchars
  7387                           
  7388                           ;display.c: 359: }
  7389  07A3  1283               	bcf	3,5	;RP0=0, select bank0
  7390  07A4  1303               	bcf	3,6	;RP1=0, select bank0
  7391  07A5  082C               	movf	download_log@rlog+8,w
  7392  07A6  160A  158A  2646  120A  118A  	fcall	_putchars
  7393                           
  7394                           ;display.c: 360: 
  7395  07AB  1283               	bcf	3,5	;RP0=0, select bank0
  7396  07AC  1303               	bcf	3,6	;RP1=0, select bank0
  7397  07AD  082D               	movf	download_log@rlog+9,w
  7398  07AE  160A  158A  2646  120A  118A  	fcall	_putchars
  7399                           
  7400                           ;display.c: 361: char change_time( unsigned char key ,unsigned char reset_time )
  7401  07B3  300A               	movlw	10
  7402  07B4  160A  158A  2646  120A  118A  	fcall	_putchars
  7403                           
  7404                           ;display.c: 362: {
  7405  07B9  300D               	movlw	13
  7406  07BA  160A  158A  2646  120A  118A  	fcall	_putchars
  7407  07BF                     l4949:
  7408                           
  7409                           ;display.c: 333:    for ( int i = 0 ; i < 10 ; i++ )
  7410  07BF  1283               	bcf	3,5	;RP0=0, select bank0
  7411  07C0  1303               	bcf	3,6	;RP1=0, select bank0
  7412  07C1  0833               	movf	download_log@next+1,w
  7413  07C2  3A80               	xorlw	128
  7414  07C3  00A2               	movwf	??_download_log
  7415  07C4  0863               	movf	_access+1,w
  7416  07C5  3A80               	xorlw	128
  7417  07C6  0222               	subwf	??_download_log,w
  7418  07C7  1D03               	skipz
  7419  07C8  2FCB               	goto	u4625
  7420  07C9  0862               	movf	_access,w
  7421  07CA  0232               	subwf	download_log@next,w
  7422  07CB                     u4625:
  7423  07CB  1C03               	skipc
  7424  07CC  2FCE               	goto	u4621
  7425  07CD  2FCF               	goto	u4620
  7426  07CE                     u4621:
  7427  07CE  2EC7               	goto	l4925
  7428  07CF                     u4620:
  7429  07CF                     l226:
  7430  07CF  0008               	return
  7431  07D0                     __end_of_download_log:
  7432                           
  7433                           	psect	text22
  7434  1F87                     __ptext22:	
  7435 ;; *************** function _putsx *****************
  7436 ;; Defined at:
  7437 ;;		line 40 in file "uart.c"
  7438 ;; Parameters:    Size  Location     Type
  7439 ;;  s               2    4[COMMON] PTR const unsigned char 
  7440 ;;		 -> STR_18(7), STR_17(17), 
  7441 ;; Auto vars:     Size  Location     Type
  7442 ;;		None
  7443 ;; Return value:  Size  Location     Type
  7444 ;;                  1    wreg      void 
  7445 ;; Registers used:
  7446 ;;		wreg, fsr0l, fsr0h, status,2, status,0, btemp+1, pclath, cstack
  7447 ;; Tracked objects:
  7448 ;;		On entry : 0/0
  7449 ;;		On exit  : 0/0
  7450 ;;		Unchanged: 0/0
  7451 ;; Data sizes:     COMMON   BANK0   BANK1   BANK3   BANK2
  7452 ;;      Params:         2       0       0       0       0
  7453 ;;      Locals:         0       0       0       0       0
  7454 ;;      Temps:          0       0       0       0       0
  7455 ;;      Totals:         2       0       0       0       0
  7456 ;;Total ram usage:        2 bytes
  7457 ;; Hardware stack levels used: 1
  7458 ;; Hardware stack levels required when called: 2
  7459 ;; This function calls:
  7460 ;;		_putchars
  7461 ;; This function is called by:
  7462 ;;		_download_log
  7463 ;; This function uses a non-reentrant model
  7464 ;;
  7465                           
  7466  1F87                     _putsx:	
  7467                           ;psect for function _putsx
  7468                           
  7469  1F87                     l4401:	
  7470                           ;incstack = 0
  7471                           ; Regs used in _putsx: [wreg-fsr0h+status,2+status,0+btemp+1+pclath+cstack]
  7472                           
  7473                           
  7474                           ;uart.c: 40: void putsx(const char *s);uart.c: 41: {;uart.c: 42:     while (*s)
  7475  1F87  2F9C               	goto	l4407
  7476  1F88                     l4403:
  7477                           
  7478                           ;uart.c: 43:     {;uart.c: 44:         putchars(*s++);
  7479  1F88  0875               	movf	putsx@s+1,w
  7480  1F89  00FF               	movwf	btemp+1
  7481  1F8A  0874               	movf	putsx@s,w
  7482  1F8B  0084               	movwf	4
  7483  1F8C  160A  158A  2000  160A  158A  	fcall	stringtab
  7484  1F91  160A  158A  2646  160A  158A  	fcall	_putchars
  7485  1F96                     l4405:
  7486  1F96  3001               	movlw	1
  7487  1F97  07F4               	addwf	putsx@s,f
  7488  1F98  1803               	skipnc
  7489  1F99  0AF5               	incf	putsx@s+1,f
  7490  1F9A  3000               	movlw	0
  7491  1F9B  07F5               	addwf	putsx@s+1,f
  7492  1F9C                     l4407:
  7493                           
  7494                           ;uart.c: 42:     while (*s)
  7495  1F9C  0875               	movf	putsx@s+1,w
  7496  1F9D  1283               	bcf	3,5	;RP0=0, select bank0
  7497  1F9E  1303               	bcf	3,6	;RP1=0, select bank0
  7498  1F9F  00FF               	movwf	btemp+1
  7499  1FA0  0874               	movf	putsx@s,w
  7500  1FA1  0084               	movwf	4
  7501  1FA2  160A  158A  2000  160A  158A  	fcall	stringtab
  7502  1FA7  3A00               	xorlw	0
  7503  1FA8  1D03               	skipz
  7504  1FA9  2FAB               	goto	u3741
  7505  1FAA  2FAC               	goto	u3740
  7506  1FAB                     u3741:
  7507  1FAB  2F88               	goto	l4403
  7508  1FAC                     u3740:
  7509  1FAC                     l556:
  7510  1FAC  0008               	return
  7511  1FAD                     __end_of_putsx:
  7512                           
  7513                           	psect	text23
  7514  1E46                     __ptext23:	
  7515 ;; *************** function _putchars *****************
  7516 ;; Defined at:
  7517 ;;		line 25 in file "uart.c"
  7518 ;; Parameters:    Size  Location     Type
  7519 ;;  data            1    wreg     unsigned char 
  7520 ;; Auto vars:     Size  Location     Type
  7521 ;;  data            1    3[COMMON] unsigned char 
  7522 ;; Return value:  Size  Location     Type
  7523 ;;                  1    wreg      void 
  7524 ;; Registers used:
  7525 ;;		wreg
  7526 ;; Tracked objects:
  7527 ;;		On entry : 0/0
  7528 ;;		On exit  : 0/0
  7529 ;;		Unchanged: 0/0
  7530 ;; Data sizes:     COMMON   BANK0   BANK1   BANK3   BANK2
  7531 ;;      Params:         0       0       0       0       0
  7532 ;;      Locals:         1       0       0       0       0
  7533 ;;      Temps:          0       0       0       0       0
  7534 ;;      Totals:         1       0       0       0       0
  7535 ;;Total ram usage:        1 bytes
  7536 ;; Hardware stack levels used: 1
  7537 ;; Hardware stack levels required when called: 1
  7538 ;; This function calls:
  7539 ;;		Nothing
  7540 ;; This function is called by:
  7541 ;;		_download_log
  7542 ;;		_putsx
  7543 ;; This function uses a non-reentrant model
  7544 ;;
  7545                           
  7546  1E46                     _putchars:	
  7547                           ;psect for function _putchars
  7548                           
  7549                           
  7550                           ;incstack = 0
  7551                           ; Regs used in _putchars: [wreg]
  7552                           ;putchars@data stored from wreg
  7553  1E46  00F3               	movwf	putchars@data
  7554  1E47                     l4281:
  7555                           
  7556                           ;uart.c: 25: void putchars(unsigned char data);uart.c: 26: {;uart.c: 28:     TXREG = dat
      +                          a;
  7557  1E47  0873               	movf	putchars@data,w
  7558  1E48  1283               	bcf	3,5	;RP0=0, select bank0
  7559  1E49  1303               	bcf	3,6	;RP1=0, select bank0
  7560  1E4A  0099               	movwf	25	;volatile
  7561  1E4B                     l548:	
  7562                           ;uart.c: 34:     } while (TXIF != 1);
  7563                           
  7564  1E4B  1E0C               	btfss	12,4	;volatile
  7565  1E4C  2E4E               	goto	u3551
  7566  1E4D  2E4F               	goto	u3550
  7567  1E4E                     u3551:
  7568  1E4E  2E4B               	goto	l548
  7569  1E4F                     u3550:
  7570  1E4F                     l549:
  7571                           
  7572                           ;uart.c: 37:     TXIF = 0;
  7573  1E4F  120C               	bcf	12,4	;volatile
  7574  1E50                     l550:
  7575  1E50  0008               	return
  7576  1E51                     __end_of_putchars:
  7577                           
  7578                           	psect	text24
  7579  07D0                     __ptext24:	
  7580 ;; *************** function _ext_eeprom_24C02_read *****************
  7581 ;; Defined at:
  7582 ;;		line 8 in file "eeprom.c"
  7583 ;; Parameters:    Size  Location     Type
  7584 ;;  addr            1    wreg     unsigned char 
  7585 ;; Auto vars:     Size  Location     Type
  7586 ;;  addr            1    7[COMMON] unsigned char 
  7587 ;;  data            1    8[COMMON] unsigned char 
  7588 ;; Return value:  Size  Location     Type
  7589 ;;                  1    wreg      unsigned char 
  7590 ;; Registers used:
  7591 ;;		wreg, status,2, status,0, pclath, cstack
  7592 ;; Tracked objects:
  7593 ;;		On entry : 0/0
  7594 ;;		On exit  : 0/0
  7595 ;;		Unchanged: 0/0
  7596 ;; Data sizes:     COMMON   BANK0   BANK1   BANK3   BANK2
  7597 ;;      Params:         0       0       0       0       0
  7598 ;;      Locals:         2       0       0       0       0
  7599 ;;      Temps:          1       0       0       0       0
  7600 ;;      Totals:         3       0       0       0       0
  7601 ;;Total ram usage:        3 bytes
  7602 ;; Hardware stack levels used: 1
  7603 ;; Hardware stack levels required when called: 3
  7604 ;; This function calls:
  7605 ;;		_i2c_read
  7606 ;;		_i2c_rep_start
  7607 ;;		_i2c_start
  7608 ;;		_i2c_stop
  7609 ;;		_i2c_write
  7610 ;; This function is called by:
  7611 ;;		_get_password
  7612 ;;		_view_log
  7613 ;;		_download_log
  7614 ;; This function uses a non-reentrant model
  7615 ;;
  7616                           
  7617  07D0                     _ext_eeprom_24C02_read:	
  7618                           ;psect for function _ext_eeprom_24C02_read
  7619                           
  7620                           
  7621                           ;incstack = 0
  7622                           ; Regs used in _ext_eeprom_24C02_read: [wreg+status,2+status,0+pclath+cstack]
  7623                           ;ext_eeprom_24C02_read@addr stored from wreg
  7624  07D0  00F7               	movwf	ext_eeprom_24C02_read@addr
  7625  07D1                     l4275:
  7626                           
  7627                           ;eeprom.c: 8: ;eeprom.c: 9:     i2c_write(0xA0);;eeprom.c: 11:     i2c_write(addr);;eepr
      +                          om.c: 14: 
  7628  07D1  160A  158A  2620  120A  118A  	fcall	_i2c_start
  7629                           
  7630                           ;eeprom.c: 17: 
  7631  07D6  30A0               	movlw	160
  7632  07D7  160A  158A  263B  120A  118A  	fcall	_i2c_write
  7633                           
  7634                           ;eeprom.c: 19: 
  7635  07DC  0877               	movf	ext_eeprom_24C02_read@addr,w
  7636  07DD  160A  158A  263B  120A  118A  	fcall	_i2c_write
  7637                           
  7638                           ;eeprom.c: 21:     i2c_stop();
  7639  07E2  160A  158A  2632  120A  118A  	fcall	_i2c_rep_start
  7640                           
  7641                           ;eeprom.c: 23:     return data;
  7642  07E7  30A1               	movlw	161
  7643  07E8  160A  158A  263B  120A  118A  	fcall	_i2c_write
  7644                           
  7645                           ;eeprom.c: 26: 
  7646  07ED  3000               	movlw	0
  7647  07EE  160A  158A  273F  120A  118A  	fcall	_i2c_read
  7648  07F3  00F6               	movwf	??_ext_eeprom_24C02_read
  7649  07F4  0876               	movf	??_ext_eeprom_24C02_read,w
  7650  07F5  00F8               	movwf	ext_eeprom_24C02_read@data
  7651                           
  7652                           ;eeprom.c: 29: 
  7653  07F6  160A  158A  2629  120A  118A  	fcall	_i2c_stop
  7654  07FB                     l4277:
  7655                           
  7656                           ;eeprom.c: 31: 
  7657  07FB  0878               	movf	ext_eeprom_24C02_read@data,w
  7658  07FC                     l436:
  7659  07FC  0008               	return
  7660  07FD                     __end_of_ext_eeprom_24C02_read:
  7661                           
  7662                           	psect	text25
  7663  11A2                     __ptext25:	
  7664 ;; *************** function ___bmul *****************
  7665 ;; Defined at:
  7666 ;;		line 4 in file "C:\Program Files\Microchip\xc8\v2.36\pic\sources\c90\common\Umul8.c"
  7667 ;; Parameters:    Size  Location     Type
  7668 ;;  multiplier      1    wreg     unsigned char 
  7669 ;;  multiplicand    1    3[COMMON] unsigned char 
  7670 ;; Auto vars:     Size  Location     Type
  7671 ;;  multiplier      1    6[COMMON] unsigned char 
  7672 ;;  product         1    5[COMMON] unsigned char 
  7673 ;; Return value:  Size  Location     Type
  7674 ;;                  1    wreg      unsigned char 
  7675 ;; Registers used:
  7676 ;;		wreg, status,2, status,0
  7677 ;; Tracked objects:
  7678 ;;		On entry : 0/0
  7679 ;;		On exit  : 0/0
  7680 ;;		Unchanged: 0/0
  7681 ;; Data sizes:     COMMON   BANK0   BANK1   BANK3   BANK2
  7682 ;;      Params:         1       0       0       0       0
  7683 ;;      Locals:         2       0       0       0       0
  7684 ;;      Temps:          1       0       0       0       0
  7685 ;;      Totals:         4       0       0       0       0
  7686 ;;Total ram usage:        4 bytes
  7687 ;; Hardware stack levels used: 1
  7688 ;; Hardware stack levels required when called: 1
  7689 ;; This function calls:
  7690 ;;		Nothing
  7691 ;; This function is called by:
  7692 ;;		_log_event
  7693 ;;		_view_log
  7694 ;;		_download_log
  7695 ;; This function uses a non-reentrant model
  7696 ;;
  7697                           
  7698  11A2                     ___bmul:	
  7699                           ;psect for function ___bmul
  7700                           
  7701                           
  7702                           ;incstack = 0
  7703                           ; Regs used in ___bmul: [wreg+status,2+status,0]
  7704                           ;___bmul@multiplier stored from wreg
  7705  11A2  00F6               	movwf	___bmul@multiplier
  7706  11A3                     l4285:
  7707  11A3  01F5               	clrf	___bmul@product
  7708  11A4                     l4287:
  7709  11A4  1C76               	btfss	___bmul@multiplier,0
  7710  11A5  29A7               	goto	u3561
  7711  11A6  29A8               	goto	u3560
  7712  11A7                     u3561:
  7713  11A7  29AC               	goto	l4291
  7714  11A8                     u3560:
  7715  11A8                     l4289:
  7716  11A8  0873               	movf	___bmul@multiplicand,w
  7717  11A9  00F4               	movwf	??___bmul
  7718  11AA  0874               	movf	??___bmul,w
  7719  11AB  07F5               	addwf	___bmul@product,f
  7720  11AC                     l4291:
  7721  11AC  1003               	clrc
  7722  11AD  0DF3               	rlf	___bmul@multiplicand,f
  7723  11AE                     l4293:
  7724  11AE  1003               	clrc
  7725  11AF  0CF6               	rrf	___bmul@multiplier,f
  7726  11B0  0876               	movf	___bmul@multiplier,w
  7727  11B1  1D03               	btfss	3,2
  7728  11B2  29B4               	goto	u3571
  7729  11B3  29B5               	goto	u3570
  7730  11B4                     u3571:
  7731  11B4  29A4               	goto	l4287
  7732  11B5                     u3570:
  7733  11B5                     l4295:
  7734  11B5  0875               	movf	___bmul@product,w
  7735  11B6                     l668:
  7736  11B6  0008               	return
  7737  11B7                     __end_of___bmul:
  7738                           
  7739                           	psect	text26
  7740  151A                     __ptext26:	
  7741 ;; *************** function _display_dash_board *****************
  7742 ;; Defined at:
  7743 ;;		line 51 in file "display.c"
  7744 ;; Parameters:    Size  Location     Type
  7745 ;;  event           1    wreg     PTR unsigned char 
  7746 ;;		 -> main@event(3), 
  7747 ;;  speed           1   10[BANK0 ] unsigned char 
  7748 ;; Auto vars:     Size  Location     Type
  7749 ;;  event           1   14[BANK0 ] PTR unsigned char 
  7750 ;;		 -> main@event(3), 
  7751 ;; Return value:  Size  Location     Type
  7752 ;;                  1    wreg      void 
  7753 ;; Registers used:
  7754 ;;		wreg, fsr0l, fsr0h, status,2, status,0, btemp+1, pclath, cstack
  7755 ;; Tracked objects:
  7756 ;;		On entry : 0/0
  7757 ;;		On exit  : 0/0
  7758 ;;		Unchanged: 0/0
  7759 ;; Data sizes:     COMMON   BANK0   BANK1   BANK3   BANK2
  7760 ;;      Params:         0       1       0       0       0
  7761 ;;      Locals:         0       1       0       0       0
  7762 ;;      Temps:          0       3       0       0       0
  7763 ;;      Totals:         0       5       0       0       0
  7764 ;;Total ram usage:        5 bytes
  7765 ;; Hardware stack levels used: 1
  7766 ;; Hardware stack levels required when called: 6
  7767 ;; This function calls:
  7768 ;;		___awdiv
  7769 ;;		___awmod
  7770 ;;		_clcd_print
  7771 ;;		_clcd_putch
  7772 ;;		_display_time
  7773 ;; This function is called by:
  7774 ;;		_main
  7775 ;; This function uses a non-reentrant model
  7776 ;;
  7777                           
  7778  151A                     _display_dash_board:	
  7779                           ;psect for function _display_dash_board
  7780                           
  7781                           
  7782                           ;incstack = 0
  7783                           ; Regs used in _display_dash_board: [wreg-fsr0h+status,2+status,0+btemp+1+pclath+cstack]
  7784                           ;display_dash_board@event stored from wreg
  7785  151A  1283               	bcf	3,5	;RP0=0, select bank0
  7786  151B  1303               	bcf	3,6	;RP1=0, select bank0
  7787  151C  00AE               	movwf	display_dash_board@event
  7788  151D                     l4655:
  7789                           
  7790                           ;display.c: 51:     clcd_putch(speed / 10 + '0',(0xC0 + 14));;display.c: 52:     clcd_pu
      +                          tch(speed % 10 + '0',(0xC0 + 15));;display.c: 53: 
  7791  151D  306D               	movlw	low (STR_6| (0+32768))
  7792  151E  00A0               	movwf	clcd_print@str
  7793  151F  3090               	movlw	high (STR_6| (0+32768))
  7794  1520  00A1               	movwf	clcd_print@str+1
  7795  1521  3080               	movlw	128
  7796  1522  00AB               	movwf	??_display_dash_board
  7797  1523  082B               	movf	??_display_dash_board,w
  7798  1524  00A2               	movwf	clcd_print@addr
  7799  1525  160A  118A  2210  160A  118A  	fcall	_clcd_print
  7800                           
  7801                           ;display.c: 55:     display_time();
  7802  152A  1283               	bcf	3,5	;RP0=0, select bank0
  7803  152B  1303               	bcf	3,6	;RP1=0, select bank0
  7804  152C  082E               	movf	display_dash_board@event,w
  7805  152D  00A0               	movwf	clcd_print@str
  7806  152E  3000               	movlw	0
  7807  152F  00A1               	movwf	clcd_print@str+1
  7808  1530  30CB               	movlw	203
  7809  1531  00AB               	movwf	??_display_dash_board
  7810  1532  082B               	movf	??_display_dash_board,w
  7811  1533  00A2               	movwf	clcd_print@addr
  7812  1534  160A  118A  2210  160A  118A  	fcall	_clcd_print
  7813  1539                     l4657:
  7814                           
  7815                           ;display.c: 57: 
  7816  1539  30CE               	movlw	206
  7817  153A  1283               	bcf	3,5	;RP0=0, select bank0
  7818  153B  1303               	bcf	3,6	;RP1=0, select bank0
  7819  153C  00AB               	movwf	??_display_dash_board
  7820  153D  082B               	movf	??_display_dash_board,w
  7821  153E  00A7               	movwf	clcd_putch@addr
  7822  153F  300A               	movlw	10
  7823  1540  00F3               	movwf	___awdiv@divisor
  7824  1541  3000               	movlw	0
  7825  1542  00F4               	movwf	___awdiv@divisor+1
  7826  1543  082A               	movf	display_dash_board@speed,w
  7827  1544  00AC               	movwf	??_display_dash_board+1
  7828  1545  01AD               	clrf	??_display_dash_board+2
  7829  1546  082C               	movf	??_display_dash_board+1,w
  7830  1547  00F5               	movwf	___awdiv@dividend
  7831  1548  082D               	movf	??_display_dash_board+2,w
  7832  1549  00F6               	movwf	___awdiv@dividend+1
  7833  154A  160A  118A  2641  160A  118A  	fcall	___awdiv
  7834  154F  0873               	movf	?___awdiv,w
  7835  1550  3E30               	addlw	48
  7836  1551  160A  158A  269B  160A  118A  	fcall	_clcd_putch
  7837  1556                     l4659:
  7838                           
  7839                           ;display.c: 58: void log_event( )
  7840  1556  30CF               	movlw	207
  7841  1557  1283               	bcf	3,5	;RP0=0, select bank0
  7842  1558  1303               	bcf	3,6	;RP1=0, select bank0
  7843  1559  00AB               	movwf	??_display_dash_board
  7844  155A  082B               	movf	??_display_dash_board,w
  7845  155B  00A7               	movwf	clcd_putch@addr
  7846  155C  300A               	movlw	10
  7847  155D  00F3               	movwf	___awmod@divisor
  7848  155E  3000               	movlw	0
  7849  155F  00F4               	movwf	___awmod@divisor+1
  7850  1560  082A               	movf	display_dash_board@speed,w
  7851  1561  00AC               	movwf	??_display_dash_board+1
  7852  1562  01AD               	clrf	??_display_dash_board+2
  7853  1563  082C               	movf	??_display_dash_board+1,w
  7854  1564  00F5               	movwf	___awmod@dividend
  7855  1565  082D               	movf	??_display_dash_board+2,w
  7856  1566  00F6               	movwf	___awmod@dividend+1
  7857  1567  160A  118A  24BF  160A  118A  	fcall	___awmod
  7858  156C  0873               	movf	?___awmod,w
  7859  156D  3E30               	addlw	48
  7860  156E  160A  158A  269B  160A  118A  	fcall	_clcd_putch
  7861  1573                     l4661:
  7862                           
  7863                           ;display.c: 61:  char add;
  7864  1573  160A  118A  2719  160A  118A  	fcall	_display_time
  7865  1578                     l136:
  7866  1578  0008               	return
  7867  1579                     __end_of_display_dash_board:
  7868                           
  7869                           	psect	text27
  7870  1719                     __ptext27:	
  7871 ;; *************** function _display_time *****************
  7872 ;; Defined at:
  7873 ;;		line 34 in file "display.c"
  7874 ;; Parameters:    Size  Location     Type
  7875 ;;		None
  7876 ;; Auto vars:     Size  Location     Type
  7877 ;;		None
  7878 ;; Return value:  Size  Location     Type
  7879 ;;                  1    wreg      void 
  7880 ;; Registers used:
  7881 ;;		wreg, status,2, status,0, pclath, cstack
  7882 ;; Tracked objects:
  7883 ;;		On entry : 0/0
  7884 ;;		On exit  : 0/0
  7885 ;;		Unchanged: 0/0
  7886 ;; Data sizes:     COMMON   BANK0   BANK1   BANK3   BANK2
  7887 ;;      Params:         0       0       0       0       0
  7888 ;;      Locals:         0       0       0       0       0
  7889 ;;      Temps:          0       1       0       0       0
  7890 ;;      Totals:         0       1       0       0       0
  7891 ;;Total ram usage:        1 bytes
  7892 ;; Hardware stack levels used: 1
  7893 ;; Hardware stack levels required when called: 5
  7894 ;; This function calls:
  7895 ;;		_clcd_putch
  7896 ;;		_get_time
  7897 ;; This function is called by:
  7898 ;;		_display_dash_board
  7899 ;; This function uses a non-reentrant model
  7900 ;;
  7901                           
  7902  1719                     _display_time:	
  7903                           ;psect for function _display_time
  7904                           
  7905  1719                     l4343:	
  7906                           ;incstack = 0
  7907                           ; Regs used in _display_time: [wreg+status,2+status,0+pclath+cstack]
  7908                           
  7909                           
  7910                           ;display.c: 37:     clcd_putch(time[2],(0xC0 + 5));
  7911  1719  160A  118A  278B  160A  118A  	fcall	_get_time
  7912                           
  7913                           ;display.c: 39: 
  7914  171E  30C2               	movlw	194
  7915  171F  1283               	bcf	3,5	;RP0=0, select bank0
  7916  1720  1303               	bcf	3,6	;RP1=0, select bank0
  7917  1721  00A9               	movwf	??_display_time
  7918  1722  0829               	movf	??_display_time,w
  7919  1723  00A7               	movwf	clcd_putch@addr
  7920  1724  1683               	bsf	3,5	;RP0=1, select bank1
  7921  1725  1303               	bcf	3,6	;RP1=0, select bank1
  7922  1726  083A               	movf	_time^(0+128),w
  7923  1727  160A  158A  269B  160A  118A  	fcall	_clcd_putch
  7924                           
  7925                           ;display.c: 40:     clcd_putch(':',(0xC0 + 7));
  7926  172C  30C3               	movlw	195
  7927  172D  1283               	bcf	3,5	;RP0=0, select bank0
  7928  172E  1303               	bcf	3,6	;RP1=0, select bank0
  7929  172F  00A9               	movwf	??_display_time
  7930  1730  0829               	movf	??_display_time,w
  7931  1731  00A7               	movwf	clcd_putch@addr
  7932  1732  1683               	bsf	3,5	;RP0=1, select bank1
  7933  1733  1303               	bcf	3,6	;RP1=0, select bank1
  7934  1734  083B               	movf	(_time^(0+128)+1),w
  7935  1735  160A  158A  269B  160A  118A  	fcall	_clcd_putch
  7936                           
  7937                           ;display.c: 42:     clcd_putch(time[5],(0xC0 + 9));
  7938  173A  30C4               	movlw	196
  7939  173B  1283               	bcf	3,5	;RP0=0, select bank0
  7940  173C  1303               	bcf	3,6	;RP1=0, select bank0
  7941  173D  00A9               	movwf	??_display_time
  7942  173E  0829               	movf	??_display_time,w
  7943  173F  00A7               	movwf	clcd_putch@addr
  7944  1740  303A               	movlw	58
  7945  1741  160A  158A  269B  160A  118A  	fcall	_clcd_putch
  7946                           
  7947                           ;display.c: 43: 
  7948  1746  30C5               	movlw	197
  7949  1747  1283               	bcf	3,5	;RP0=0, select bank0
  7950  1748  1303               	bcf	3,6	;RP1=0, select bank0
  7951  1749  00A9               	movwf	??_display_time
  7952  174A  0829               	movf	??_display_time,w
  7953  174B  00A7               	movwf	clcd_putch@addr
  7954  174C  1683               	bsf	3,5	;RP0=1, select bank1
  7955  174D  1303               	bcf	3,6	;RP1=0, select bank1
  7956  174E  083C               	movf	(_time^(0+128)+2),w
  7957  174F  160A  158A  269B  160A  118A  	fcall	_clcd_putch
  7958                           
  7959                           ;display.c: 44: }
  7960  1754  30C6               	movlw	198
  7961  1755  1283               	bcf	3,5	;RP0=0, select bank0
  7962  1756  1303               	bcf	3,6	;RP1=0, select bank0
  7963  1757  00A9               	movwf	??_display_time
  7964  1758  0829               	movf	??_display_time,w
  7965  1759  00A7               	movwf	clcd_putch@addr
  7966  175A  1683               	bsf	3,5	;RP0=1, select bank1
  7967  175B  1303               	bcf	3,6	;RP1=0, select bank1
  7968  175C  083D               	movf	(_time^(0+128)+3),w
  7969  175D  160A  158A  269B  160A  118A  	fcall	_clcd_putch
  7970                           
  7971                           ;display.c: 46: {
  7972  1762  30C7               	movlw	199
  7973  1763  1283               	bcf	3,5	;RP0=0, select bank0
  7974  1764  1303               	bcf	3,6	;RP1=0, select bank0
  7975  1765  00A9               	movwf	??_display_time
  7976  1766  0829               	movf	??_display_time,w
  7977  1767  00A7               	movwf	clcd_putch@addr
  7978  1768  303A               	movlw	58
  7979  1769  160A  158A  269B  160A  118A  	fcall	_clcd_putch
  7980                           
  7981                           ;display.c: 47:     clcd_print("  TIME     E  SP",(0x80 + 0));
  7982  176E  30C8               	movlw	200
  7983  176F  1283               	bcf	3,5	;RP0=0, select bank0
  7984  1770  1303               	bcf	3,6	;RP1=0, select bank0
  7985  1771  00A9               	movwf	??_display_time
  7986  1772  0829               	movf	??_display_time,w
  7987  1773  00A7               	movwf	clcd_putch@addr
  7988  1774  1683               	bsf	3,5	;RP0=1, select bank1
  7989  1775  1303               	bcf	3,6	;RP1=0, select bank1
  7990  1776  083E               	movf	(_time^(0+128)+4),w
  7991  1777  160A  158A  269B  160A  118A  	fcall	_clcd_putch
  7992                           
  7993                           ;display.c: 48: 
  7994  177C  30C9               	movlw	201
  7995  177D  1283               	bcf	3,5	;RP0=0, select bank0
  7996  177E  1303               	bcf	3,6	;RP1=0, select bank0
  7997  177F  00A9               	movwf	??_display_time
  7998  1780  0829               	movf	??_display_time,w
  7999  1781  00A7               	movwf	clcd_putch@addr
  8000  1782  1683               	bsf	3,5	;RP0=1, select bank1
  8001  1783  1303               	bcf	3,6	;RP1=0, select bank1
  8002  1784  083F               	movf	(_time^(0+128)+5),w
  8003  1785  160A  158A  269B  160A  118A  	fcall	_clcd_putch
  8004  178A                     l133:
  8005  178A  0008               	return
  8006  178B                     __end_of_display_time:
  8007                           
  8008                           	psect	text28
  8009  1641                     __ptext28:	
  8010 ;; *************** function ___awdiv *****************
  8011 ;; Defined at:
  8012 ;;		line 5 in file "C:\Program Files\Microchip\xc8\v2.36\pic\sources\c90\common\awdiv.c"
  8013 ;; Parameters:    Size  Location     Type
  8014 ;;  divisor         2    3[COMMON] int 
  8015 ;;  dividend        2    5[COMMON] int 
  8016 ;; Auto vars:     Size  Location     Type
  8017 ;;  quotient        2    2[BANK0 ] int 
  8018 ;;  sign            1    1[BANK0 ] unsigned char 
  8019 ;;  counter         1    0[BANK0 ] unsigned char 
  8020 ;; Return value:  Size  Location     Type
  8021 ;;                  2    3[COMMON] int 
  8022 ;; Registers used:
  8023 ;;		wreg, status,2, status,0
  8024 ;; Tracked objects:
  8025 ;;		On entry : 0/0
  8026 ;;		On exit  : 0/0
  8027 ;;		Unchanged: 0/0
  8028 ;; Data sizes:     COMMON   BANK0   BANK1   BANK3   BANK2
  8029 ;;      Params:         4       0       0       0       0
  8030 ;;      Locals:         0       4       0       0       0
  8031 ;;      Temps:          1       0       0       0       0
  8032 ;;      Totals:         5       4       0       0       0
  8033 ;;Total ram usage:        9 bytes
  8034 ;; Hardware stack levels used: 1
  8035 ;; Hardware stack levels required when called: 1
  8036 ;; This function calls:
  8037 ;;		Nothing
  8038 ;; This function is called by:
  8039 ;;		_display_dash_board
  8040 ;;		_log_car_event
  8041 ;;		_login
  8042 ;; This function uses a non-reentrant model
  8043 ;;
  8044                           
  8045  1641                     ___awdiv:	
  8046                           ;psect for function ___awdiv
  8047                           
  8048  1641                     l4463:	
  8049                           ;incstack = 0
  8050                           ; Regs used in ___awdiv: [wreg+status,2+status,0]
  8051                           
  8052  1641  1283               	bcf	3,5	;RP0=0, select bank0
  8053  1642  1303               	bcf	3,6	;RP1=0, select bank0
  8054  1643  01A1               	clrf	___awdiv@sign
  8055  1644                     l4465:
  8056  1644  1FF4               	btfss	___awdiv@divisor+1,7
  8057  1645  2E47               	goto	u3841
  8058  1646  2E48               	goto	u3840
  8059  1647                     u3841:
  8060  1647  2E4F               	goto	l4471
  8061  1648                     u3840:
  8062  1648                     l4467:
  8063  1648  09F3               	comf	___awdiv@divisor,f
  8064  1649  09F4               	comf	___awdiv@divisor+1,f
  8065  164A  0AF3               	incf	___awdiv@divisor,f
  8066  164B  1903               	skipnz
  8067  164C  0AF4               	incf	___awdiv@divisor+1,f
  8068  164D                     l4469:
  8069  164D  01A1               	clrf	___awdiv@sign
  8070  164E  0AA1               	incf	___awdiv@sign,f
  8071  164F                     l4471:
  8072  164F  1FF6               	btfss	___awdiv@dividend+1,7
  8073  1650  2E52               	goto	u3851
  8074  1651  2E53               	goto	u3850
  8075  1652                     u3851:
  8076  1652  2E5C               	goto	l4477
  8077  1653                     u3850:
  8078  1653                     l4473:
  8079  1653  09F5               	comf	___awdiv@dividend,f
  8080  1654  09F6               	comf	___awdiv@dividend+1,f
  8081  1655  0AF5               	incf	___awdiv@dividend,f
  8082  1656  1903               	skipnz
  8083  1657  0AF6               	incf	___awdiv@dividend+1,f
  8084  1658                     l4475:
  8085  1658  3001               	movlw	1
  8086  1659  00F7               	movwf	??___awdiv
  8087  165A  0877               	movf	??___awdiv,w
  8088  165B  06A1               	xorwf	___awdiv@sign,f
  8089  165C                     l4477:
  8090  165C  01A2               	clrf	___awdiv@quotient
  8091  165D  01A3               	clrf	___awdiv@quotient+1
  8092  165E                     l4479:
  8093  165E  0873               	movf	___awdiv@divisor,w
  8094  165F  0474               	iorwf	___awdiv@divisor+1,w
  8095  1660  1903               	btfsc	3,2
  8096  1661  2E63               	goto	u3861
  8097  1662  2E64               	goto	u3860
  8098  1663                     u3861:
  8099  1663  2E9B               	goto	l4499
  8100  1664                     u3860:
  8101  1664                     l4481:
  8102  1664  01A0               	clrf	___awdiv@counter
  8103  1665  0AA0               	incf	___awdiv@counter,f
  8104  1666  2E72               	goto	l4487
  8105  1667                     l4483:
  8106  1667  3001               	movlw	1
  8107  1668                     u3875:
  8108  1668  1003               	clrc
  8109  1669  0DF3               	rlf	___awdiv@divisor,f
  8110  166A  0DF4               	rlf	___awdiv@divisor+1,f
  8111  166B  3EFF               	addlw	-1
  8112  166C  1D03               	skipz
  8113  166D  2E68               	goto	u3875
  8114  166E                     l4485:
  8115  166E  3001               	movlw	1
  8116  166F  00F7               	movwf	??___awdiv
  8117  1670  0877               	movf	??___awdiv,w
  8118  1671  07A0               	addwf	___awdiv@counter,f
  8119  1672                     l4487:
  8120  1672  1FF4               	btfss	___awdiv@divisor+1,7
  8121  1673  2E75               	goto	u3881
  8122  1674  2E76               	goto	u3880
  8123  1675                     u3881:
  8124  1675  2E67               	goto	l4483
  8125  1676                     u3880:
  8126  1676                     l4489:
  8127  1676  3001               	movlw	1
  8128  1677                     u3895:
  8129  1677  1003               	clrc
  8130  1678  0DA2               	rlf	___awdiv@quotient,f
  8131  1679  0DA3               	rlf	___awdiv@quotient+1,f
  8132  167A  3EFF               	addlw	-1
  8133  167B  1D03               	skipz
  8134  167C  2E77               	goto	u3895
  8135  167D  0874               	movf	___awdiv@divisor+1,w
  8136  167E  0276               	subwf	___awdiv@dividend+1,w
  8137  167F  1D03               	skipz
  8138  1680  2E83               	goto	u3905
  8139  1681  0873               	movf	___awdiv@divisor,w
  8140  1682  0275               	subwf	___awdiv@dividend,w
  8141  1683                     u3905:
  8142  1683  1C03               	skipc
  8143  1684  2E86               	goto	u3901
  8144  1685  2E87               	goto	u3900
  8145  1686                     u3901:
  8146  1686  2E8E               	goto	l4495
  8147  1687                     u3900:
  8148  1687                     l4491:
  8149  1687  0873               	movf	___awdiv@divisor,w
  8150  1688  02F5               	subwf	___awdiv@dividend,f
  8151  1689  0874               	movf	___awdiv@divisor+1,w
  8152  168A  1C03               	skipc
  8153  168B  03F6               	decf	___awdiv@dividend+1,f
  8154  168C  02F6               	subwf	___awdiv@dividend+1,f
  8155  168D                     l4493:
  8156  168D  1422               	bsf	___awdiv@quotient,0
  8157  168E                     l4495:
  8158  168E  3001               	movlw	1
  8159  168F                     u3915:
  8160  168F  1003               	clrc
  8161  1690  0CF4               	rrf	___awdiv@divisor+1,f
  8162  1691  0CF3               	rrf	___awdiv@divisor,f
  8163  1692  3EFF               	addlw	-1
  8164  1693  1D03               	skipz
  8165  1694  2E8F               	goto	u3915
  8166  1695                     l4497:
  8167  1695  3001               	movlw	1
  8168  1696  02A0               	subwf	___awdiv@counter,f
  8169  1697  1D03               	btfss	3,2
  8170  1698  2E9A               	goto	u3921
  8171  1699  2E9B               	goto	u3920
  8172  169A                     u3921:
  8173  169A  2E76               	goto	l4489
  8174  169B                     u3920:
  8175  169B                     l4499:
  8176  169B  0821               	movf	___awdiv@sign,w
  8177  169C  1903               	btfsc	3,2
  8178  169D  2E9F               	goto	u3931
  8179  169E  2EA0               	goto	u3930
  8180  169F                     u3931:
  8181  169F  2EA5               	goto	l4503
  8182  16A0                     u3930:
  8183  16A0                     l4501:
  8184  16A0  09A2               	comf	___awdiv@quotient,f
  8185  16A1  09A3               	comf	___awdiv@quotient+1,f
  8186  16A2  0AA2               	incf	___awdiv@quotient,f
  8187  16A3  1903               	skipnz
  8188  16A4  0AA3               	incf	___awdiv@quotient+1,f
  8189  16A5                     l4503:
  8190  16A5  0823               	movf	___awdiv@quotient+1,w
  8191  16A6  00F4               	movwf	?___awdiv+1
  8192  16A7  0822               	movf	___awdiv@quotient,w
  8193  16A8  00F3               	movwf	?___awdiv
  8194  16A9                     l795:
  8195  16A9  0008               	return
  8196  16AA                     __end_of___awdiv:
  8197                           
  8198                           	psect	text29
  8199  0800                     __ptext29:	
  8200 ;; *************** function _clear_log *****************
  8201 ;; Defined at:
  8202 ;;		line 299 in file "display.c"
  8203 ;; Parameters:    Size  Location     Type
  8204 ;;  reset_memory    1    wreg     unsigned char 
  8205 ;; Auto vars:     Size  Location     Type
  8206 ;;  reset_memory    1    8[COMMON] unsigned char 
  8207 ;; Return value:  Size  Location     Type
  8208 ;;                  1    wreg      unsigned char 
  8209 ;; Registers used:
  8210 ;;		wreg, fsr0l, fsr0h, status,2, status,0, btemp+1, pclath, cstack
  8211 ;; Tracked objects:
  8212 ;;		On entry : 0/0
  8213 ;;		On exit  : 0/0
  8214 ;;		Unchanged: 0/0
  8215 ;; Data sizes:     COMMON   BANK0   BANK1   BANK3   BANK2
  8216 ;;      Params:         0       0       0       0       0
  8217 ;;      Locals:         1       0       0       0       0
  8218 ;;      Temps:          1       0       0       0       0
  8219 ;;      Totals:         2       0       0       0       0
  8220 ;;Total ram usage:        2 bytes
  8221 ;; Hardware stack levels used: 1
  8222 ;; Hardware stack levels required when called: 3
  8223 ;; This function calls:
  8224 ;;		_clcd_print
  8225 ;; This function is called by:
  8226 ;;		_main
  8227 ;; This function uses a non-reentrant model
  8228 ;;
  8229                           
  8230  0800                     _clear_log:	
  8231                           ;psect for function _clear_log
  8232                           
  8233                           
  8234                           ;incstack = 0
  8235                           ; Regs used in _clear_log: [wreg-fsr0h+status,2+status,0+btemp+1+pclath+cstack]
  8236                           ;clear_log@reset_memory stored from wreg
  8237  0800  00F8               	movwf	clear_log@reset_memory
  8238  0801                     l4895:
  8239                           
  8240                           ;display.c: 299:  {;display.c: 300:   pos = -1;;display.c: 301:   access = -1 ;
  8241  0801  302A               	movlw	low (STR_15| (0+32768))
  8242  0802  1283               	bcf	3,5	;RP0=0, select bank0
  8243  0803  1303               	bcf	3,6	;RP1=0, select bank0
  8244  0804  00A0               	movwf	clcd_print@str
  8245  0805  3091               	movlw	high (STR_15| (0+32768))
  8246  0806  00A1               	movwf	clcd_print@str+1
  8247  0807  3082               	movlw	130
  8248  0808  00F7               	movwf	??_clear_log
  8249  0809  0877               	movf	??_clear_log,w
  8250  080A  00A2               	movwf	clcd_print@addr
  8251  080B  160A  118A  2210  120A  158A  	fcall	_clcd_print
  8252                           
  8253                           ;display.c: 302:   return 0x11;
  8254  0810  3044               	movlw	low (STR_16| (0+32768))
  8255  0811  1283               	bcf	3,5	;RP0=0, select bank0
  8256  0812  1303               	bcf	3,6	;RP1=0, select bank0
  8257  0813  00A0               	movwf	clcd_print@str
  8258  0814  3091               	movlw	high (STR_16| (0+32768))
  8259  0815  00A1               	movwf	clcd_print@str+1
  8260  0816  30C2               	movlw	194
  8261  0817  00F7               	movwf	??_clear_log
  8262  0818  0877               	movf	??_clear_log,w
  8263  0819  00A2               	movwf	clcd_print@addr
  8264  081A  160A  118A  2210  120A  158A  	fcall	_clcd_print
  8265  081F                     l4897:
  8266                           
  8267                           ;display.c: 304:  return 0x22;
  8268  081F  3004               	movlw	4
  8269  0820  0678               	xorwf	clear_log@reset_memory,w
  8270  0821  1D03               	btfss	3,2
  8271  0822  2824               	goto	u4581
  8272  0823  2825               	goto	u4580
  8273  0824                     u4581:
  8274  0824  2831               	goto	l4903
  8275  0825                     u4580:
  8276  0825                     l4899:
  8277                           
  8278                           ;display.c: 305: };display.c: 306: 
  8279  0825  30FF               	movlw	255
  8280  0826  1283               	bcf	3,5	;RP0=0, select bank0
  8281  0827  1303               	bcf	3,6	;RP1=0, select bank0
  8282  0828  00E4               	movwf	_pos
  8283  0829  30FF               	movlw	255
  8284  082A  00E5               	movwf	_pos+1
  8285                           
  8286                           ;display.c: 307: void download_log(void)
  8287  082B  30FF               	movlw	255
  8288  082C  00E2               	movwf	_access
  8289  082D  30FF               	movlw	255
  8290  082E  00E3               	movwf	_access+1
  8291                           
  8292                           ;display.c: 308: {
  8293  082F  3011               	movlw	17
  8294  0830  2832               	goto	l212
  8295  0831                     l4903:
  8296                           
  8297                           ;display.c: 310:  char rlog[11];
  8298  0831  3022               	movlw	34
  8299  0832                     l212:
  8300  0832  0008               	return
  8301  0833                     __end_of_clear_log:
  8302                           
  8303                           	psect	text30
  8304  0CD8                     __ptext30:	
  8305 ;; *************** function _change_time *****************
  8306 ;; Defined at:
  8307 ;;		line 367 in file "display.c"
  8308 ;; Parameters:    Size  Location     Type
  8309 ;;  key             1    wreg     unsigned char 
  8310 ;;  reset_time      1    9[BANK0 ] unsigned char 
  8311 ;; Auto vars:     Size  Location     Type
  8312 ;;  key             1   18[BANK0 ] unsigned char 
  8313 ;;  i               4   14[BANK0 ] unsigned long 
  8314 ;;  dummy           1   19[BANK0 ] unsigned char 
  8315 ;; Return value:  Size  Location     Type
  8316 ;;                  1    wreg      unsigned char 
  8317 ;; Registers used:
  8318 ;;		wreg, fsr0l, fsr0h, status,2, status,0, btemp+1, pclath, cstack
  8319 ;; Tracked objects:
  8320 ;;		On entry : 0/0
  8321 ;;		On exit  : 0/0
  8322 ;;		Unchanged: 0/0
  8323 ;; Data sizes:     COMMON   BANK0   BANK1   BANK3   BANK2
  8324 ;;      Params:         0       1       0       0       0
  8325 ;;      Locals:         0       6       0       0       0
  8326 ;;      Temps:          0       4       0       0       0
  8327 ;;      Totals:         0      11       0       0       0
  8328 ;;Total ram usage:       11 bytes
  8329 ;; Hardware stack levels used: 1
  8330 ;; Hardware stack levels required when called: 5
  8331 ;; This function calls:
  8332 ;;		___awmod
  8333 ;;		___lwdiv
  8334 ;;		___lwmod
  8335 ;;		___wmul
  8336 ;;		_clcd_print
  8337 ;;		_clcd_putch
  8338 ;;		_clcd_write
  8339 ;;		_get_time
  8340 ;;		_write_ds1307
  8341 ;; This function is called by:
  8342 ;;		_main
  8343 ;; This function uses a non-reentrant model
  8344 ;;
  8345                           
  8346  0CD8                     _change_time:	
  8347                           ;psect for function _change_time
  8348                           
  8349                           
  8350                           ;incstack = 0
  8351                           ; Regs used in _change_time: [wreg-fsr0h+status,2+status,0+btemp+1+pclath+cstack]
  8352                           ;change_time@key stored from wreg
  8353  0CD8  1283               	bcf	3,5	;RP0=0, select bank0
  8354  0CD9  1303               	bcf	3,6	;RP1=0, select bank0
  8355  0CDA  00B2               	movwf	change_time@key
  8356  0CDB                     l4951:
  8357                           
  8358                           ;display.c: 367:  char dummy;;display.c: 368:  static char t_done = 0;;display.c: 370:  
      +                          {;display.c: 371:   get_time();;display.c: 372:   new_time[0] = (time[0] & 0x0F ) * 10 +
      +                           (time[1] & 0x0F) ;;display.c: 373:   new_time[1] = (time[2] & 0x0F ) * 10 + (time[3] & 
      +                          0x0F) ;;display.c: 374:   new_time[2] = (time[4] & 0x0F ) * 10 + (time[5] & 0x0F) ;;disp
      +                          lay.c: 375:   clcd_print("Time (HH:MM:SS)",(0x80 + 0));
  8359  0CDB  3010               	movlw	16
  8360  0CDC  0629               	xorwf	change_time@reset_time,w
  8361  0CDD  1D03               	btfss	3,2
  8362  0CDE  2CE0               	goto	u4631
  8363  0CDF  2CE1               	goto	u4630
  8364  0CE0                     u4631:
  8365  0CE0  2D72               	goto	l4967
  8366  0CE1                     u4630:
  8367  0CE1                     l4953:
  8368                           
  8369                           ;display.c: 376:   blink_pos = 2;;display.c: 377:   wait = 0;
  8370  0CE1  160A  118A  278B  120A  158A  	fcall	_get_time
  8371                           
  8372                           ;display.c: 378:   blink = 0;
  8373  0CE6  300F               	movlw	15
  8374  0CE7  1683               	bsf	3,5	;RP0=1, select bank1
  8375  0CE8  1303               	bcf	3,6	;RP1=0, select bank1
  8376  0CE9  053B               	andwf	(_time^(0+128)+1),w
  8377  0CEA  1283               	bcf	3,5	;RP0=0, select bank0
  8378  0CEB  1303               	bcf	3,6	;RP1=0, select bank0
  8379  0CEC  00AA               	movwf	??_change_time
  8380  0CED  1683               	bsf	3,5	;RP0=1, select bank1
  8381  0CEE  1303               	bcf	3,6	;RP1=0, select bank1
  8382  0CEF  083A               	movf	_time^(0+128),w
  8383  0CF0  390F               	andlw	15
  8384  0CF1  1283               	bcf	3,5	;RP0=0, select bank0
  8385  0CF2  1303               	bcf	3,6	;RP1=0, select bank0
  8386  0CF3  00AB               	movwf	??_change_time+1
  8387  0CF4  01AC               	clrf	??_change_time+2
  8388  0CF5  082B               	movf	??_change_time+1,w
  8389  0CF6  00F3               	movwf	___wmul@multiplier
  8390  0CF7  082C               	movf	??_change_time+2,w
  8391  0CF8  00F4               	movwf	___wmul@multiplier+1
  8392  0CF9  300A               	movlw	10
  8393  0CFA  00F5               	movwf	___wmul@multiplicand
  8394  0CFB  3000               	movlw	0
  8395  0CFC  00F6               	movwf	___wmul@multiplicand+1
  8396  0CFD  160A  158A  2762  120A  158A  	fcall	___wmul
  8397  0D02  1283               	bcf	3,5	;RP0=0, select bank0
  8398  0D03  1303               	bcf	3,6	;RP1=0, select bank0
  8399  0D04  082A               	movf	??_change_time,w
  8400  0D05  0773               	addwf	?___wmul,w
  8401  0D06  00C4               	movwf	change_time@new_time
  8402  0D07  3000               	movlw	0
  8403  0D08  1803               	skipnc
  8404  0D09  3001               	movlw	1
  8405  0D0A  0774               	addwf	?___wmul+1,w
  8406  0D0B  00C5               	movwf	change_time@new_time+1
  8407                           
  8408                           ;display.c: 379:   key = 0x3F;
  8409  0D0C  300F               	movlw	15
  8410  0D0D  1683               	bsf	3,5	;RP0=1, select bank1
  8411  0D0E  1303               	bcf	3,6	;RP1=0, select bank1
  8412  0D0F  053D               	andwf	(_time^(0+128)+3),w
  8413  0D10  1283               	bcf	3,5	;RP0=0, select bank0
  8414  0D11  1303               	bcf	3,6	;RP1=0, select bank0
  8415  0D12  00AA               	movwf	??_change_time
  8416  0D13  1683               	bsf	3,5	;RP0=1, select bank1
  8417  0D14  1303               	bcf	3,6	;RP1=0, select bank1
  8418  0D15  083C               	movf	(_time^(0+128)+2),w
  8419  0D16  390F               	andlw	15
  8420  0D17  1283               	bcf	3,5	;RP0=0, select bank0
  8421  0D18  1303               	bcf	3,6	;RP1=0, select bank0
  8422  0D19  00AB               	movwf	??_change_time+1
  8423  0D1A  01AC               	clrf	??_change_time+2
  8424  0D1B  082B               	movf	??_change_time+1,w
  8425  0D1C  00F3               	movwf	___wmul@multiplier
  8426  0D1D  082C               	movf	??_change_time+2,w
  8427  0D1E  00F4               	movwf	___wmul@multiplier+1
  8428  0D1F  300A               	movlw	10
  8429  0D20  00F5               	movwf	___wmul@multiplicand
  8430  0D21  3000               	movlw	0
  8431  0D22  00F6               	movwf	___wmul@multiplicand+1
  8432  0D23  160A  158A  2762  120A  158A  	fcall	___wmul
  8433  0D28  1283               	bcf	3,5	;RP0=0, select bank0
  8434  0D29  1303               	bcf	3,6	;RP1=0, select bank0
  8435  0D2A  082A               	movf	??_change_time,w
  8436  0D2B  0773               	addwf	?___wmul,w
  8437  0D2C  00C6               	movwf	change_time@new_time+2
  8438  0D2D  3000               	movlw	0
  8439  0D2E  1803               	skipnc
  8440  0D2F  3001               	movlw	1
  8441  0D30  0774               	addwf	?___wmul+1,w
  8442  0D31  00C7               	movwf	change_time@new_time+3
  8443                           
  8444                           ;display.c: 380:   t_done = 0;
  8445  0D32  300F               	movlw	15
  8446  0D33  1683               	bsf	3,5	;RP0=1, select bank1
  8447  0D34  1303               	bcf	3,6	;RP1=0, select bank1
  8448  0D35  053F               	andwf	(_time^(0+128)+5),w
  8449  0D36  1283               	bcf	3,5	;RP0=0, select bank0
  8450  0D37  1303               	bcf	3,6	;RP1=0, select bank0
  8451  0D38  00AA               	movwf	??_change_time
  8452  0D39  1683               	bsf	3,5	;RP0=1, select bank1
  8453  0D3A  1303               	bcf	3,6	;RP1=0, select bank1
  8454  0D3B  083E               	movf	(_time^(0+128)+4),w
  8455  0D3C  390F               	andlw	15
  8456  0D3D  1283               	bcf	3,5	;RP0=0, select bank0
  8457  0D3E  1303               	bcf	3,6	;RP1=0, select bank0
  8458  0D3F  00AB               	movwf	??_change_time+1
  8459  0D40  01AC               	clrf	??_change_time+2
  8460  0D41  082B               	movf	??_change_time+1,w
  8461  0D42  00F3               	movwf	___wmul@multiplier
  8462  0D43  082C               	movf	??_change_time+2,w
  8463  0D44  00F4               	movwf	___wmul@multiplier+1
  8464  0D45  300A               	movlw	10
  8465  0D46  00F5               	movwf	___wmul@multiplicand
  8466  0D47  3000               	movlw	0
  8467  0D48  00F6               	movwf	___wmul@multiplicand+1
  8468  0D49  160A  158A  2762  120A  158A  	fcall	___wmul
  8469  0D4E  1283               	bcf	3,5	;RP0=0, select bank0
  8470  0D4F  1303               	bcf	3,6	;RP1=0, select bank0
  8471  0D50  082A               	movf	??_change_time,w
  8472  0D51  0773               	addwf	?___wmul,w
  8473  0D52  00C8               	movwf	change_time@new_time+4
  8474  0D53  3000               	movlw	0
  8475  0D54  1803               	skipnc
  8476  0D55  3001               	movlw	1
  8477  0D56  0774               	addwf	?___wmul+1,w
  8478  0D57  00C9               	movwf	change_time@new_time+5
  8479  0D58                     l4955:
  8480                           
  8481                           ;display.c: 381:  }
  8482  0D58  30C2               	movlw	low (STR_19| (0+32768))
  8483  0D59  00A0               	movwf	clcd_print@str
  8484  0D5A  3090               	movlw	high (STR_19| (0+32768))
  8485  0D5B  00A1               	movwf	clcd_print@str+1
  8486  0D5C  3080               	movlw	128
  8487  0D5D  00AA               	movwf	??_change_time
  8488  0D5E  082A               	movf	??_change_time,w
  8489  0D5F  00A2               	movwf	clcd_print@addr
  8490  0D60  160A  118A  2210  120A  158A  	fcall	_clcd_print
  8491  0D65                     l4957:
  8492                           
  8493                           ;display.c: 382: 
  8494  0D65  3002               	movlw	2
  8495  0D66  1283               	bcf	3,5	;RP0=0, select bank0
  8496  0D67  1303               	bcf	3,6	;RP1=0, select bank0
  8497  0D68  00CF               	movwf	change_time@blink_pos
  8498  0D69  3000               	movlw	0
  8499  0D6A  00D0               	movwf	change_time@blink_pos+1
  8500  0D6B                     l4959:
  8501                           
  8502                           ;display.c: 383:  if( t_done)
  8503  0D6B  01DC               	clrf	change_time@wait
  8504  0D6C                     l4961:
  8505                           
  8506                           ;display.c: 384:   return 0x22;
  8507  0D6C  01DB               	clrf	change_time@blink
  8508  0D6D                     l4963:
  8509                           
  8510                           ;display.c: 385: 
  8511  0D6D  303F               	movlw	63
  8512  0D6E  00AA               	movwf	??_change_time
  8513  0D6F  082A               	movf	??_change_time,w
  8514  0D70  00B2               	movwf	change_time@key
  8515  0D71                     l4965:
  8516                           
  8517                           ;display.c: 386: 
  8518  0D71  01DA               	clrf	change_time@t_done
  8519  0D72                     l4967:
  8520                           
  8521                           ;display.c: 389:         {
  8522  0D72  085A               	movf	change_time@t_done,w
  8523  0D73  1903               	btfsc	3,2
  8524  0D74  2D76               	goto	u4641
  8525  0D75  2D77               	goto	u4640
  8526  0D76                     u4641:
  8527  0D76  2D79               	goto	l4973
  8528  0D77                     u4640:
  8529  0D77                     l4969:
  8530                           
  8531                           ;display.c: 390:    new_time[blink_pos]++;
  8532  0D77  3022               	movlw	34
  8533  0D78  2FFF               	goto	l241
  8534  0D79                     l4973:
  8535                           
  8536                           ;display.c: 394:    blink_pos = (blink_pos + 1) % 3;
  8537  0D79  3037               	movlw	55
  8538  0D7A  0632               	xorwf	change_time@key,w
  8539  0D7B  1D03               	btfss	3,2
  8540  0D7C  2D7E               	goto	u4651
  8541  0D7D  2D7F               	goto	u4650
  8542  0D7E                     u4651:
  8543  0D7E  2D8A               	goto	l4977
  8544  0D7F                     u4650:
  8545  0D7F                     l4975:
  8546                           
  8547                           ;display.c: 395:         };display.c: 396:   if(key ==0x11)
  8548  0D7F  084F               	movf	change_time@blink_pos,w
  8549  0D80  00AA               	movwf	??_change_time
  8550  0D81  072A               	addwf	??_change_time,w
  8551  0D82  3E44               	addlw	(low (change_time@new_time| 0))& (0+255)
  8552  0D83  0084               	movwf	4
  8553  0D84  3001               	movlw	1
  8554  0D85  1383               	bcf	3,7	;select IRP bank0
  8555  0D86  0780               	addwf	0,f
  8556  0D87  0A84               	incf	4,f
  8557  0D88  1803               	skipnc
  8558  0D89  0A80               	incf	0,f
  8559  0D8A                     l4977:
  8560                           
  8561                           ;display.c: 398: 
  8562  0D8A  302F               	movlw	47
  8563  0D8B  0632               	xorwf	change_time@key,w
  8564  0D8C  1D03               	btfss	3,2
  8565  0D8D  2D8F               	goto	u4661
  8566  0D8E  2D90               	goto	u4660
  8567  0D8F                     u4661:
  8568  0D8F  2DA7               	goto	l4981
  8569  0D90                     u4660:
  8570  0D90                     l4979:
  8571                           
  8572                           ;display.c: 399:    get_time();;display.c: 400:    dummy = ((new_time[0] / 10 ) << 4 ) |
      +                           new_time[0] % 10 ;
  8573  0D90  3003               	movlw	3
  8574  0D91  00F3               	movwf	___awmod@divisor
  8575  0D92  3000               	movlw	0
  8576  0D93  00F4               	movwf	___awmod@divisor+1
  8577  0D94  084F               	movf	change_time@blink_pos,w
  8578  0D95  3E01               	addlw	1
  8579  0D96  00F5               	movwf	___awmod@dividend
  8580  0D97  0850               	movf	change_time@blink_pos+1,w
  8581  0D98  1803               	skipnc
  8582  0D99  3E01               	addlw	1
  8583  0D9A  3E00               	addlw	0
  8584  0D9B  00F6               	movwf	___awmod@dividend+1
  8585  0D9C  160A  118A  24BF  120A  158A  	fcall	___awmod
  8586  0DA1  0874               	movf	?___awmod+1,w
  8587  0DA2  1283               	bcf	3,5	;RP0=0, select bank0
  8588  0DA3  1303               	bcf	3,6	;RP1=0, select bank0
  8589  0DA4  00D0               	movwf	change_time@blink_pos+1
  8590  0DA5  0873               	movf	?___awmod,w
  8591  0DA6  00CF               	movwf	change_time@blink_pos
  8592  0DA7                     l4981:
  8593                           
  8594                           ;display.c: 402:    write_ds1307(0x02, clock_reg[0] );
  8595  0DA7  3011               	movlw	17
  8596  0DA8  0632               	xorwf	change_time@key,w
  8597  0DA9  1D03               	btfss	3,2
  8598  0DAA  2DAC               	goto	u4671
  8599  0DAB  2DAD               	goto	u4670
  8600  0DAC                     u4671:
  8601  0DAC  2ECF               	goto	l5017
  8602  0DAD                     u4670:
  8603  0DAD                     l4983:
  8604                           
  8605                           ;display.c: 403:    dummy = ((new_time[1] / 10 ) << 4 ) | new_time[1] % 10 ;;display.c: 
      +                          405:    write_ds1307(0x01, clock_reg[1] );
  8606  0DAD  160A  118A  278B  120A  158A  	fcall	_get_time
  8607                           
  8608                           ;display.c: 406:    dummy = ((new_time[2] / 10 ) << 4 ) | new_time[2] % 10 ;
  8609  0DB2  300A               	movlw	10
  8610  0DB3  00F3               	movwf	___lwmod@divisor
  8611  0DB4  3000               	movlw	0
  8612  0DB5  00F4               	movwf	___lwmod@divisor+1
  8613  0DB6  1283               	bcf	3,5	;RP0=0, select bank0
  8614  0DB7  1303               	bcf	3,6	;RP1=0, select bank0
  8615  0DB8  0845               	movf	change_time@new_time+1,w
  8616  0DB9  00F6               	movwf	___lwmod@dividend+1
  8617  0DBA  0844               	movf	change_time@new_time,w
  8618  0DBB  00F5               	movwf	___lwmod@dividend
  8619  0DBC  160A  118A  22E5  120A  158A  	fcall	___lwmod
  8620  0DC1  0873               	movf	?___lwmod,w
  8621  0DC2  1283               	bcf	3,5	;RP0=0, select bank0
  8622  0DC3  1303               	bcf	3,6	;RP1=0, select bank0
  8623  0DC4  00AA               	movwf	??_change_time
  8624  0DC5  0874               	movf	?___lwmod+1,w
  8625  0DC6  00AB               	movwf	??_change_time+1
  8626  0DC7  300A               	movlw	10
  8627  0DC8  00A0               	movwf	___lwdiv@divisor
  8628  0DC9  3000               	movlw	0
  8629  0DCA  00A1               	movwf	___lwdiv@divisor+1
  8630  0DCB  0845               	movf	change_time@new_time+1,w
  8631  0DCC  00A3               	movwf	___lwdiv@dividend+1
  8632  0DCD  0844               	movf	change_time@new_time,w
  8633  0DCE  00A2               	movwf	___lwdiv@dividend
  8634  0DCF  160A  118A  23DC  120A  158A  	fcall	___lwdiv
  8635  0DD4  1283               	bcf	3,5	;RP0=0, select bank0
  8636  0DD5  1303               	bcf	3,6	;RP1=0, select bank0
  8637  0DD6  0820               	movf	?___lwdiv,w
  8638  0DD7  00AC               	movwf	??_change_time+2
  8639  0DD8  3003               	movlw	3
  8640  0DD9                     u4685:
  8641  0DD9  1003               	clrc
  8642  0DDA  0DAC               	rlf	??_change_time+2,f
  8643  0DDB  3EFF               	addlw	-1
  8644  0DDC  1D03               	skipz
  8645  0DDD  2DD9               	goto	u4685
  8646  0DDE  1003               	clrc
  8647  0DDF  0D2C               	rlf	??_change_time+2,w
  8648  0DE0  042A               	iorwf	??_change_time,w
  8649  0DE1  00AD               	movwf	??_change_time+3
  8650  0DE2  082D               	movf	??_change_time+3,w
  8651  0DE3  00B3               	movwf	change_time@dummy
  8652  0DE4                     l4985:
  8653                           
  8654                           ;display.c: 407:    clock_reg[2] = (clock_reg[2] & 0x80) | dummy;
  8655  0DE4  084A               	movf	_clock_reg,w
  8656  0DE5  39C0               	andlw	192
  8657  0DE6  0433               	iorwf	change_time@dummy,w
  8658  0DE7  00AA               	movwf	??_change_time
  8659  0DE8  082A               	movf	??_change_time,w
  8660  0DE9  00CA               	movwf	_clock_reg
  8661  0DEA                     l4987:
  8662                           
  8663                           ;display.c: 408:    write_ds1307(0x00, clock_reg[2] );
  8664  0DEA  084A               	movf	_clock_reg,w
  8665  0DEB  00AA               	movwf	??_change_time
  8666  0DEC  082A               	movf	??_change_time,w
  8667  0DED  00F4               	movwf	write_ds1307@data
  8668  0DEE  3002               	movlw	2
  8669  0DEF  160A  158A  2702  120A  158A  	fcall	_write_ds1307
  8670  0DF4                     l4989:
  8671                           
  8672                           ;display.c: 409:    clcd_write(0x01,0);
  8673  0DF4  300A               	movlw	10
  8674  0DF5  00F3               	movwf	___lwmod@divisor
  8675  0DF6  3000               	movlw	0
  8676  0DF7  00F4               	movwf	___lwmod@divisor+1
  8677  0DF8  1283               	bcf	3,5	;RP0=0, select bank0
  8678  0DF9  1303               	bcf	3,6	;RP1=0, select bank0
  8679  0DFA  0847               	movf	change_time@new_time+3,w
  8680  0DFB  00F6               	movwf	___lwmod@dividend+1
  8681  0DFC  0846               	movf	change_time@new_time+2,w
  8682  0DFD  00F5               	movwf	___lwmod@dividend
  8683  0DFE  160A  118A  22E5  120A  158A  	fcall	___lwmod
  8684  0E03  0873               	movf	?___lwmod,w
  8685  0E04  1283               	bcf	3,5	;RP0=0, select bank0
  8686  0E05  1303               	bcf	3,6	;RP1=0, select bank0
  8687  0E06  00AA               	movwf	??_change_time
  8688  0E07  0874               	movf	?___lwmod+1,w
  8689  0E08  00AB               	movwf	??_change_time+1
  8690  0E09  300A               	movlw	10
  8691  0E0A  00A0               	movwf	___lwdiv@divisor
  8692  0E0B  3000               	movlw	0
  8693  0E0C  00A1               	movwf	___lwdiv@divisor+1
  8694  0E0D  0847               	movf	change_time@new_time+3,w
  8695  0E0E  00A3               	movwf	___lwdiv@dividend+1
  8696  0E0F  0846               	movf	change_time@new_time+2,w
  8697  0E10  00A2               	movwf	___lwdiv@dividend
  8698  0E11  160A  118A  23DC  120A  158A  	fcall	___lwdiv
  8699  0E16  1283               	bcf	3,5	;RP0=0, select bank0
  8700  0E17  1303               	bcf	3,6	;RP1=0, select bank0
  8701  0E18  0820               	movf	?___lwdiv,w
  8702  0E19  00AC               	movwf	??_change_time+2
  8703  0E1A  3003               	movlw	3
  8704  0E1B                     u4695:
  8705  0E1B  1003               	clrc
  8706  0E1C  0DAC               	rlf	??_change_time+2,f
  8707  0E1D  3EFF               	addlw	-1
  8708  0E1E  1D03               	skipz
  8709  0E1F  2E1B               	goto	u4695
  8710  0E20  1003               	clrc
  8711  0E21  0D2C               	rlf	??_change_time+2,w
  8712  0E22  042A               	iorwf	??_change_time,w
  8713  0E23  00AD               	movwf	??_change_time+3
  8714  0E24  082D               	movf	??_change_time+3,w
  8715  0E25  00B3               	movwf	change_time@dummy
  8716  0E26                     l4991:
  8717                           
  8718                           ;display.c: 410:    clcd_print("Time changed",(0x80 + 2));
  8719  0E26  084B               	movf	_clock_reg+1,w
  8720  0E27  3980               	andlw	128
  8721  0E28  0433               	iorwf	change_time@dummy,w
  8722  0E29  00AA               	movwf	??_change_time
  8723  0E2A  082A               	movf	??_change_time,w
  8724  0E2B  00CB               	movwf	_clock_reg+1
  8725                           
  8726                           ;display.c: 411:    clcd_print("Successfully",(0xC0 + 2));
  8727  0E2C  084B               	movf	_clock_reg+1,w
  8728  0E2D  00AA               	movwf	??_change_time
  8729  0E2E  082A               	movf	??_change_time,w
  8730  0E2F  00F4               	movwf	write_ds1307@data
  8731  0E30  3001               	movlw	1
  8732  0E31  160A  158A  2702  120A  158A  	fcall	_write_ds1307
  8733                           
  8734                           ;display.c: 412:             for(unsigned long int i = 0;i < 20000;i++);
  8735  0E36  300A               	movlw	10
  8736  0E37  00F3               	movwf	___lwmod@divisor
  8737  0E38  3000               	movlw	0
  8738  0E39  00F4               	movwf	___lwmod@divisor+1
  8739  0E3A  1283               	bcf	3,5	;RP0=0, select bank0
  8740  0E3B  1303               	bcf	3,6	;RP1=0, select bank0
  8741  0E3C  0849               	movf	change_time@new_time+5,w
  8742  0E3D  00F6               	movwf	___lwmod@dividend+1
  8743  0E3E  0848               	movf	change_time@new_time+4,w
  8744  0E3F  00F5               	movwf	___lwmod@dividend
  8745  0E40  160A  118A  22E5  120A  158A  	fcall	___lwmod
  8746  0E45  0873               	movf	?___lwmod,w
  8747  0E46  1283               	bcf	3,5	;RP0=0, select bank0
  8748  0E47  1303               	bcf	3,6	;RP1=0, select bank0
  8749  0E48  00AA               	movwf	??_change_time
  8750  0E49  0874               	movf	?___lwmod+1,w
  8751  0E4A  00AB               	movwf	??_change_time+1
  8752  0E4B  300A               	movlw	10
  8753  0E4C  00A0               	movwf	___lwdiv@divisor
  8754  0E4D  3000               	movlw	0
  8755  0E4E  00A1               	movwf	___lwdiv@divisor+1
  8756  0E4F  0849               	movf	change_time@new_time+5,w
  8757  0E50  00A3               	movwf	___lwdiv@dividend+1
  8758  0E51  0848               	movf	change_time@new_time+4,w
  8759  0E52  00A2               	movwf	___lwdiv@dividend
  8760  0E53  160A  118A  23DC  120A  158A  	fcall	___lwdiv
  8761  0E58  1283               	bcf	3,5	;RP0=0, select bank0
  8762  0E59  1303               	bcf	3,6	;RP1=0, select bank0
  8763  0E5A  0820               	movf	?___lwdiv,w
  8764  0E5B  00AC               	movwf	??_change_time+2
  8765  0E5C  3003               	movlw	3
  8766  0E5D                     u4705:
  8767  0E5D  1003               	clrc
  8768  0E5E  0DAC               	rlf	??_change_time+2,f
  8769  0E5F  3EFF               	addlw	-1
  8770  0E60  1D03               	skipz
  8771  0E61  2E5D               	goto	u4705
  8772  0E62  1003               	clrc
  8773  0E63  0D2C               	rlf	??_change_time+2,w
  8774  0E64  042A               	iorwf	??_change_time,w
  8775  0E65  00AD               	movwf	??_change_time+3
  8776  0E66  082D               	movf	??_change_time+3,w
  8777  0E67  00B3               	movwf	change_time@dummy
  8778  0E68                     l4993:
  8779                           
  8780                           ;display.c: 413:    t_done = 1;
  8781  0E68  084C               	movf	_clock_reg+2,w
  8782  0E69  3980               	andlw	128
  8783  0E6A  0433               	iorwf	change_time@dummy,w
  8784  0E6B  00AA               	movwf	??_change_time
  8785  0E6C  082A               	movf	??_change_time,w
  8786  0E6D  00CC               	movwf	_clock_reg+2
  8787  0E6E                     l4995:
  8788                           
  8789                           ;display.c: 414:    return 0x11;
  8790  0E6E  084C               	movf	_clock_reg+2,w
  8791  0E6F  00AA               	movwf	??_change_time
  8792  0E70  082A               	movf	??_change_time,w
  8793  0E71  00F4               	movwf	write_ds1307@data
  8794  0E72  3000               	movlw	0
  8795  0E73  160A  158A  2702  120A  158A  	fcall	_write_ds1307
  8796  0E78                     l4997:
  8797                           
  8798                           ;display.c: 415:         }
  8799  0E78  01F3               	clrf	clcd_write@mode
  8800  0E79  3001               	movlw	1
  8801  0E7A  160A  118A  2277  120A  158A  	fcall	_clcd_write
  8802  0E7F                     l4999:
  8803                           
  8804                           ;display.c: 416: 
  8805  0E7F  301D               	movlw	low (STR_20| (0+32768))
  8806  0E80  1283               	bcf	3,5	;RP0=0, select bank0
  8807  0E81  1303               	bcf	3,6	;RP1=0, select bank0
  8808  0E82  00A0               	movwf	clcd_print@str
  8809  0E83  3091               	movlw	high (STR_20| (0+32768))
  8810  0E84  00A1               	movwf	clcd_print@str+1
  8811  0E85  3082               	movlw	130
  8812  0E86  00AA               	movwf	??_change_time
  8813  0E87  082A               	movf	??_change_time,w
  8814  0E88  00A2               	movwf	clcd_print@addr
  8815  0E89  160A  118A  2210  120A  158A  	fcall	_clcd_print
  8816  0E8E                     l5001:
  8817                           
  8818                           ;display.c: 417: 
  8819  0E8E  3037               	movlw	low (STR_21| (0+32768))
  8820  0E8F  1283               	bcf	3,5	;RP0=0, select bank0
  8821  0E90  1303               	bcf	3,6	;RP1=0, select bank0
  8822  0E91  00A0               	movwf	clcd_print@str
  8823  0E92  3091               	movlw	high (STR_21| (0+32768))
  8824  0E93  00A1               	movwf	clcd_print@str+1
  8825  0E94  30C2               	movlw	194
  8826  0E95  00AA               	movwf	??_change_time
  8827  0E96  082A               	movf	??_change_time,w
  8828  0E97  00A2               	movwf	clcd_print@addr
  8829  0E98  160A  118A  2210  120A  158A  	fcall	_clcd_print
  8830  0E9D                     l5003:
  8831                           
  8832                           ;display.c: 418:  if( new_time[0] > 23 )
  8833  0E9D  3000               	movlw	0
  8834  0E9E  1283               	bcf	3,5	;RP0=0, select bank0
  8835  0E9F  1303               	bcf	3,6	;RP1=0, select bank0
  8836  0EA0  00B1               	movwf	change_time@i+3
  8837  0EA1  3000               	movlw	0
  8838  0EA2  00B0               	movwf	change_time@i+2
  8839  0EA3  3000               	movlw	0
  8840  0EA4  00AF               	movwf	change_time@i+1
  8841  0EA5  3000               	movlw	0
  8842  0EA6  00AE               	movwf	change_time@i
  8843  0EA7                     l5009:
  8844  0EA7  3001               	movlw	1
  8845  0EA8  1283               	bcf	3,5	;RP0=0, select bank0
  8846  0EA9  1303               	bcf	3,6	;RP1=0, select bank0
  8847  0EAA  07AE               	addwf	change_time@i,f
  8848  0EAB  3000               	movlw	0
  8849  0EAC  1803               	skipnc
  8850  0EAD  3001               	movlw	1
  8851  0EAE  07AF               	addwf	change_time@i+1,f
  8852  0EAF  3000               	movlw	0
  8853  0EB0  1803               	skipnc
  8854  0EB1  3001               	movlw	1
  8855  0EB2  07B0               	addwf	change_time@i+2,f
  8856  0EB3  3000               	movlw	0
  8857  0EB4  1803               	skipnc
  8858  0EB5  3001               	movlw	1
  8859  0EB6  07B1               	addwf	change_time@i+3,f
  8860  0EB7                     l5011:
  8861  0EB7  0831               	movf	change_time@i+3,w
  8862  0EB8  1D03               	btfss	3,2
  8863  0EB9  2EC9               	goto	u4710
  8864  0EBA  0830               	movf	change_time@i+2,w
  8865  0EBB  1D03               	btfss	3,2
  8866  0EBC  2EC9               	goto	u4710
  8867  0EBD  304E               	movlw	78
  8868  0EBE  022F               	subwf	change_time@i+1,w
  8869  0EBF  1D03               	skipz
  8870  0EC0  2EC5               	goto	u4713
  8871  0EC1  3020               	movlw	32
  8872  0EC2  022E               	subwf	change_time@i,w
  8873  0EC3  1D03               	skipz
  8874  0EC4  2EC5               	goto	u4713
  8875  0EC5                     u4713:
  8876  0EC5  1C03               	btfss	3,0
  8877  0EC6  2EC8               	goto	u4711
  8878  0EC7  2EC9               	goto	u4710
  8879  0EC8                     u4711:
  8880  0EC8  2EA7               	goto	l5009
  8881  0EC9                     u4710:
  8882  0EC9                     l246:
  8883                           
  8884                           ;display.c: 419:   new_time[0] = 0;
  8885  0EC9  1283               	bcf	3,5	;RP0=0, select bank0
  8886  0ECA  1303               	bcf	3,6	;RP1=0, select bank0
  8887  0ECB  01DA               	clrf	change_time@t_done
  8888  0ECC  0ADA               	incf	change_time@t_done,f
  8889  0ECD                     l5013:
  8890                           
  8891                           ;display.c: 420:  if ( new_time[1] > 59 )
  8892  0ECD  3011               	movlw	17
  8893  0ECE  2FFF               	goto	l241
  8894  0ECF                     l5017:
  8895                           
  8896                           ;display.c: 424: 
  8897  0ECF  3000               	movlw	0
  8898  0ED0  0245               	subwf	change_time@new_time+1,w
  8899  0ED1  3018               	movlw	24
  8900  0ED2  1903               	skipnz
  8901  0ED3  0244               	subwf	change_time@new_time,w
  8902  0ED4  1C03               	skipc
  8903  0ED5  2ED7               	goto	u4721
  8904  0ED6  2ED8               	goto	u4720
  8905  0ED7                     u4721:
  8906  0ED7  2EDA               	goto	l5021
  8907  0ED8                     u4720:
  8908  0ED8                     l5019:
  8909                           
  8910                           ;display.c: 425:  if ( wait ++ == 50 )
  8911  0ED8  01C4               	clrf	change_time@new_time
  8912  0ED9  01C5               	clrf	change_time@new_time+1
  8913  0EDA                     l5021:
  8914                           
  8915                           ;display.c: 426:  {
  8916  0EDA  3000               	movlw	0
  8917  0EDB  0247               	subwf	change_time@new_time+3,w
  8918  0EDC  303C               	movlw	60
  8919  0EDD  1903               	skipnz
  8920  0EDE  0246               	subwf	change_time@new_time+2,w
  8921  0EDF  1C03               	skipc
  8922  0EE0  2EE2               	goto	u4731
  8923  0EE1  2EE3               	goto	u4730
  8924  0EE2                     u4731:
  8925  0EE2  2EE5               	goto	l5025
  8926  0EE3                     u4730:
  8927  0EE3                     l5023:
  8928                           
  8929                           ;display.c: 427:   wait = 0;
  8930  0EE3  01C6               	clrf	change_time@new_time+2
  8931  0EE4  01C7               	clrf	change_time@new_time+3
  8932  0EE5                     l5025:
  8933                           
  8934                           ;display.c: 428:   blink = !blink;
  8935  0EE5  3000               	movlw	0
  8936  0EE6  0249               	subwf	change_time@new_time+5,w
  8937  0EE7  303C               	movlw	60
  8938  0EE8  1903               	skipnz
  8939  0EE9  0248               	subwf	change_time@new_time+4,w
  8940  0EEA  1C03               	skipc
  8941  0EEB  2EED               	goto	u4741
  8942  0EEC  2EEE               	goto	u4740
  8943  0EED                     u4741:
  8944  0EED  2EF0               	goto	l5029
  8945  0EEE                     u4740:
  8946  0EEE                     l5027:
  8947                           
  8948                           ;display.c: 429:   clcd_putch( new_time[0] / 10 + 48, (0xC0 + 0));
  8949  0EEE  01C8               	clrf	change_time@new_time+4
  8950  0EEF  01C9               	clrf	change_time@new_time+5
  8951  0EF0                     l5029:
  8952                           
  8953                           ;display.c: 431:   clcd_putch( ':', (0xC0 + 2));
  8954  0EF0  3001               	movlw	1
  8955  0EF1  00AA               	movwf	??_change_time
  8956  0EF2  082A               	movf	??_change_time,w
  8957  0EF3  07DC               	addwf	change_time@wait,f
  8958  0EF4  3033               	movlw	51
  8959  0EF5  065C               	xorwf	change_time@wait,w
  8960  0EF6  1D03               	btfss	3,2
  8961  0EF7  2EF9               	goto	u4751
  8962  0EF8  2EFA               	goto	u4750
  8963  0EF9                     u4751:
  8964  0EF9  2D77               	goto	l4969
  8965  0EFA                     u4750:
  8966  0EFA                     l5031:
  8967                           
  8968                           ;display.c: 432:   clcd_putch( new_time[1] / 10 + 48, (0xC0 + 3));;display.c: 433:   clc
      +                          d_putch( new_time[1] % 10 + 48, (0xC0 + 4));
  8969  0EFA  01DC               	clrf	change_time@wait
  8970  0EFB                     l5033:
  8971                           
  8972                           ;display.c: 434:   clcd_putch( ':', (0xC0 + 5));
  8973  0EFB  085B               	movf	change_time@blink,w
  8974  0EFC  1903               	btfsc	3,2
  8975  0EFD  2EFF               	goto	u4761
  8976  0EFE  2F01               	goto	u4760
  8977  0EFF                     u4761:
  8978  0EFF  3001               	movlw	1
  8979  0F00  2F02               	goto	u4770
  8980  0F01                     u4760:
  8981  0F01  3000               	movlw	0
  8982  0F02                     u4770:
  8983  0F02  00AA               	movwf	??_change_time
  8984  0F03  082A               	movf	??_change_time,w
  8985  0F04  00DB               	movwf	change_time@blink
  8986  0F05                     l5035:
  8987                           
  8988                           ;display.c: 435:   clcd_putch( new_time[2] / 10 + 48 , (0xC0 + 6));
  8989  0F05  30C0               	movlw	192
  8990  0F06  00AA               	movwf	??_change_time
  8991  0F07  082A               	movf	??_change_time,w
  8992  0F08  00A7               	movwf	clcd_putch@addr
  8993  0F09  300A               	movlw	10
  8994  0F0A  00A0               	movwf	___lwdiv@divisor
  8995  0F0B  3000               	movlw	0
  8996  0F0C  00A1               	movwf	___lwdiv@divisor+1
  8997  0F0D  0845               	movf	change_time@new_time+1,w
  8998  0F0E  00A3               	movwf	___lwdiv@dividend+1
  8999  0F0F  0844               	movf	change_time@new_time,w
  9000  0F10  00A2               	movwf	___lwdiv@dividend
  9001  0F11  160A  118A  23DC  120A  158A  	fcall	___lwdiv
  9002  0F16  1283               	bcf	3,5	;RP0=0, select bank0
  9003  0F17  1303               	bcf	3,6	;RP1=0, select bank0
  9004  0F18  0820               	movf	?___lwdiv,w
  9005  0F19  3E30               	addlw	48
  9006  0F1A  160A  158A  269B  120A  158A  	fcall	_clcd_putch
  9007  0F1F                     l5037:
  9008                           
  9009                           ;display.c: 436:   clcd_putch( new_time[2] % 10 + 48, (0xC0 + 7));
  9010  0F1F  30C1               	movlw	193
  9011  0F20  1283               	bcf	3,5	;RP0=0, select bank0
  9012  0F21  1303               	bcf	3,6	;RP1=0, select bank0
  9013  0F22  00AA               	movwf	??_change_time
  9014  0F23  082A               	movf	??_change_time,w
  9015  0F24  00A7               	movwf	clcd_putch@addr
  9016  0F25  300A               	movlw	10
  9017  0F26  00F3               	movwf	___lwmod@divisor
  9018  0F27  3000               	movlw	0
  9019  0F28  00F4               	movwf	___lwmod@divisor+1
  9020  0F29  0845               	movf	change_time@new_time+1,w
  9021  0F2A  00F6               	movwf	___lwmod@dividend+1
  9022  0F2B  0844               	movf	change_time@new_time,w
  9023  0F2C  00F5               	movwf	___lwmod@dividend
  9024  0F2D  160A  118A  22E5  120A  158A  	fcall	___lwmod
  9025  0F32  0873               	movf	?___lwmod,w
  9026  0F33  3E30               	addlw	48
  9027  0F34  160A  158A  269B  120A  158A  	fcall	_clcd_putch
  9028  0F39                     l5039:
  9029                           
  9030                           ;display.c: 437: 
  9031  0F39  30C2               	movlw	194
  9032  0F3A  1283               	bcf	3,5	;RP0=0, select bank0
  9033  0F3B  1303               	bcf	3,6	;RP1=0, select bank0
  9034  0F3C  00AA               	movwf	??_change_time
  9035  0F3D  082A               	movf	??_change_time,w
  9036  0F3E  00A7               	movwf	clcd_putch@addr
  9037  0F3F  303A               	movlw	58
  9038  0F40  160A  158A  269B  120A  158A  	fcall	_clcd_putch
  9039  0F45                     l5041:
  9040                           
  9041                           ;display.c: 438: 
  9042  0F45  30C3               	movlw	195
  9043  0F46  1283               	bcf	3,5	;RP0=0, select bank0
  9044  0F47  1303               	bcf	3,6	;RP1=0, select bank0
  9045  0F48  00AA               	movwf	??_change_time
  9046  0F49  082A               	movf	??_change_time,w
  9047  0F4A  00A7               	movwf	clcd_putch@addr
  9048  0F4B  300A               	movlw	10
  9049  0F4C  00A0               	movwf	___lwdiv@divisor
  9050  0F4D  3000               	movlw	0
  9051  0F4E  00A1               	movwf	___lwdiv@divisor+1
  9052  0F4F  0847               	movf	change_time@new_time+3,w
  9053  0F50  00A3               	movwf	___lwdiv@dividend+1
  9054  0F51  0846               	movf	change_time@new_time+2,w
  9055  0F52  00A2               	movwf	___lwdiv@dividend
  9056  0F53  160A  118A  23DC  120A  158A  	fcall	___lwdiv
  9057  0F58  1283               	bcf	3,5	;RP0=0, select bank0
  9058  0F59  1303               	bcf	3,6	;RP1=0, select bank0
  9059  0F5A  0820               	movf	?___lwdiv,w
  9060  0F5B  3E30               	addlw	48
  9061  0F5C  160A  158A  269B  120A  158A  	fcall	_clcd_putch
  9062  0F61                     l5043:
  9063                           
  9064                           ;display.c: 439:   if ( blink)
  9065  0F61  30C4               	movlw	196
  9066  0F62  1283               	bcf	3,5	;RP0=0, select bank0
  9067  0F63  1303               	bcf	3,6	;RP1=0, select bank0
  9068  0F64  00AA               	movwf	??_change_time
  9069  0F65  082A               	movf	??_change_time,w
  9070  0F66  00A7               	movwf	clcd_putch@addr
  9071  0F67  300A               	movlw	10
  9072  0F68  00F3               	movwf	___lwmod@divisor
  9073  0F69  3000               	movlw	0
  9074  0F6A  00F4               	movwf	___lwmod@divisor+1
  9075  0F6B  0847               	movf	change_time@new_time+3,w
  9076  0F6C  00F6               	movwf	___lwmod@dividend+1
  9077  0F6D  0846               	movf	change_time@new_time+2,w
  9078  0F6E  00F5               	movwf	___lwmod@dividend
  9079  0F6F  160A  118A  22E5  120A  158A  	fcall	___lwmod
  9080  0F74  0873               	movf	?___lwmod,w
  9081  0F75  3E30               	addlw	48
  9082  0F76  160A  158A  269B  120A  158A  	fcall	_clcd_putch
  9083  0F7B                     l5045:
  9084                           
  9085                           ;display.c: 440:   {
  9086  0F7B  30C5               	movlw	197
  9087  0F7C  1283               	bcf	3,5	;RP0=0, select bank0
  9088  0F7D  1303               	bcf	3,6	;RP1=0, select bank0
  9089  0F7E  00AA               	movwf	??_change_time
  9090  0F7F  082A               	movf	??_change_time,w
  9091  0F80  00A7               	movwf	clcd_putch@addr
  9092  0F81  303A               	movlw	58
  9093  0F82  160A  158A  269B  120A  158A  	fcall	_clcd_putch
  9094  0F87                     l5047:
  9095                           
  9096                           ;display.c: 441:    switch( blink_pos )
  9097  0F87  30C6               	movlw	198
  9098  0F88  1283               	bcf	3,5	;RP0=0, select bank0
  9099  0F89  1303               	bcf	3,6	;RP1=0, select bank0
  9100  0F8A  00AA               	movwf	??_change_time
  9101  0F8B  082A               	movf	??_change_time,w
  9102  0F8C  00A7               	movwf	clcd_putch@addr
  9103  0F8D  300A               	movlw	10
  9104  0F8E  00A0               	movwf	___lwdiv@divisor
  9105  0F8F  3000               	movlw	0
  9106  0F90  00A1               	movwf	___lwdiv@divisor+1
  9107  0F91  0849               	movf	change_time@new_time+5,w
  9108  0F92  00A3               	movwf	___lwdiv@dividend+1
  9109  0F93  0848               	movf	change_time@new_time+4,w
  9110  0F94  00A2               	movwf	___lwdiv@dividend
  9111  0F95  160A  118A  23DC  120A  158A  	fcall	___lwdiv
  9112  0F9A  1283               	bcf	3,5	;RP0=0, select bank0
  9113  0F9B  1303               	bcf	3,6	;RP1=0, select bank0
  9114  0F9C  0820               	movf	?___lwdiv,w
  9115  0F9D  3E30               	addlw	48
  9116  0F9E  160A  158A  269B  120A  158A  	fcall	_clcd_putch
  9117  0FA3                     l5049:
  9118                           
  9119                           ;display.c: 442:    {
  9120  0FA3  30C7               	movlw	199
  9121  0FA4  1283               	bcf	3,5	;RP0=0, select bank0
  9122  0FA5  1303               	bcf	3,6	;RP1=0, select bank0
  9123  0FA6  00AA               	movwf	??_change_time
  9124  0FA7  082A               	movf	??_change_time,w
  9125  0FA8  00A7               	movwf	clcd_putch@addr
  9126  0FA9  300A               	movlw	10
  9127  0FAA  00F3               	movwf	___lwmod@divisor
  9128  0FAB  3000               	movlw	0
  9129  0FAC  00F4               	movwf	___lwmod@divisor+1
  9130  0FAD  0849               	movf	change_time@new_time+5,w
  9131  0FAE  00F6               	movwf	___lwmod@dividend+1
  9132  0FAF  0848               	movf	change_time@new_time+4,w
  9133  0FB0  00F5               	movwf	___lwmod@dividend
  9134  0FB1  160A  118A  22E5  120A  158A  	fcall	___lwmod
  9135  0FB6  0873               	movf	?___lwmod,w
  9136  0FB7  3E30               	addlw	48
  9137  0FB8  160A  158A  269B  120A  158A  	fcall	_clcd_putch
  9138  0FBD                     l5051:
  9139                           
  9140                           ;display.c: 445:      break;
  9141  0FBD  1283               	bcf	3,5	;RP0=0, select bank0
  9142  0FBE  1303               	bcf	3,6	;RP1=0, select bank0
  9143  0FBF  085B               	movf	change_time@blink,w
  9144  0FC0  1903               	btfsc	3,2
  9145  0FC1  2FC3               	goto	u4781
  9146  0FC2  2FC4               	goto	u4780
  9147  0FC3                     u4781:
  9148  0FC3  2D77               	goto	l4969
  9149  0FC4                     u4780:
  9150  0FC4  2FEF               	goto	l5063
  9151  0FC5                     l5055:
  9152                           
  9153                           ;display.c: 450:      clcd_print("  ",(0xC0 + 6));
  9154  0FC5  3024               	movlw	low ((STR_13+15)| (0+32768))
  9155  0FC6  00A0               	movwf	clcd_print@str
  9156  0FC7  3090               	movlw	high ((STR_13+15)| (0+32768))
  9157  0FC8  00A1               	movwf	clcd_print@str+1
  9158  0FC9  30C0               	movlw	192
  9159  0FCA  00AA               	movwf	??_change_time
  9160  0FCB  082A               	movf	??_change_time,w
  9161  0FCC  00A2               	movwf	clcd_print@addr
  9162  0FCD  160A  118A  2210  120A  158A  	fcall	_clcd_print
  9163                           
  9164                           ;display.c: 451:      break;
  9165  0FD2  2D77               	goto	l4969
  9166  0FD3                     l5057:
  9167                           
  9168                           ;display.c: 453:   }
  9169  0FD3  3024               	movlw	low ((STR_13+15)| (0+32768))
  9170  0FD4  00A0               	movwf	clcd_print@str
  9171  0FD5  3090               	movlw	high ((STR_13+15)| (0+32768))
  9172  0FD6  00A1               	movwf	clcd_print@str+1
  9173  0FD7  30C3               	movlw	195
  9174  0FD8  00AA               	movwf	??_change_time
  9175  0FD9  082A               	movf	??_change_time,w
  9176  0FDA  00A2               	movwf	clcd_print@addr
  9177  0FDB  160A  118A  2210  120A  158A  	fcall	_clcd_print
  9178                           
  9179                           ;display.c: 454:  }
  9180  0FE0  2D77               	goto	l4969
  9181  0FE1                     l5059:
  9182                           
  9183                           ;display.c: 456: }
  9184  0FE1  3024               	movlw	low ((STR_13+15)| (0+32768))
  9185  0FE2  00A0               	movwf	clcd_print@str
  9186  0FE3  3090               	movlw	high ((STR_13+15)| (0+32768))
  9187  0FE4  00A1               	movwf	clcd_print@str+1
  9188  0FE5  30C6               	movlw	198
  9189  0FE6  00AA               	movwf	??_change_time
  9190  0FE7  082A               	movf	??_change_time,w
  9191  0FE8  00A2               	movwf	clcd_print@addr
  9192  0FE9  160A  118A  2210  120A  158A  	fcall	_clcd_print
  9193                           
  9194                           ;display.c: 457: 
  9195  0FEE  2D77               	goto	l4969
  9196  0FEF                     l5063:
  9197                           
  9198                           ; Switch on 2 bytes has been partitioned into a top level switch of size 1, and 1 sub-sw
      +                          itches
  9199                           ; Switch size 1, requested type "simple"
  9200                           ; Number of cases is 1, Range of values is 0 to 0
  9201                           ; switch strategies available:
  9202                           ; Name         Instructions Cycles
  9203                           ; simple_byte            4     3 (average)
  9204                           ; direct_byte           11     8 (fixed)
  9205                           ; jumptable            260     6 (fixed)
  9206                           ;	Chosen strategy is simple_byte
  9207  0FEF  0850               	movf	change_time@blink_pos+1,w
  9208  0FF0  3A00               	xorlw	0	; case 0
  9209  0FF1  1903               	skipnz
  9210  0FF2  2FF4               	goto	l5633
  9211  0FF3  2D77               	goto	l4969
  9212  0FF4                     l5633:
  9213                           
  9214                           ; Switch size 1, requested type "simple"
  9215                           ; Number of cases is 3, Range of values is 0 to 2
  9216                           ; switch strategies available:
  9217                           ; Name         Instructions Cycles
  9218                           ; simple_byte           10     6 (average)
  9219                           ; direct_byte           17     8 (fixed)
  9220                           ; jumptable            260     6 (fixed)
  9221                           ;	Chosen strategy is simple_byte
  9222  0FF4  084F               	movf	change_time@blink_pos,w
  9223  0FF5  3A00               	xorlw	0	; case 0
  9224  0FF6  1903               	skipnz
  9225  0FF7  2FC5               	goto	l5055
  9226  0FF8  3A01               	xorlw	1	; case 1
  9227  0FF9  1903               	skipnz
  9228  0FFA  2FD3               	goto	l5057
  9229  0FFB  3A03               	xorlw	3	; case 2
  9230  0FFC  1903               	skipnz
  9231  0FFD  2FE1               	goto	l5059
  9232  0FFE  2D77               	goto	l4969
  9233  0FFF                     l241:
  9234  0FFF  0008               	return
  9235  1000                     __end_of_change_time:
  9236                           
  9237                           	psect	text31
  9238  1F02                     __ptext31:	
  9239 ;; *************** function _write_ds1307 *****************
  9240 ;; Defined at:
  9241 ;;		line 32 in file "ds1307.c"
  9242 ;; Parameters:    Size  Location     Type
  9243 ;;  addr            1    wreg     unsigned char 
  9244 ;;  data            1    4[COMMON] unsigned char 
  9245 ;; Auto vars:     Size  Location     Type
  9246 ;;  addr            1    5[COMMON] unsigned char 
  9247 ;; Return value:  Size  Location     Type
  9248 ;;                  1    wreg      void 
  9249 ;; Registers used:
  9250 ;;		wreg, status,2, status,0, pclath, cstack
  9251 ;; Tracked objects:
  9252 ;;		On entry : 0/0
  9253 ;;		On exit  : 0/0
  9254 ;;		Unchanged: 0/0
  9255 ;; Data sizes:     COMMON   BANK0   BANK1   BANK3   BANK2
  9256 ;;      Params:         1       0       0       0       0
  9257 ;;      Locals:         1       0       0       0       0
  9258 ;;      Temps:          0       0       0       0       0
  9259 ;;      Totals:         2       0       0       0       0
  9260 ;;Total ram usage:        2 bytes
  9261 ;; Hardware stack levels used: 1
  9262 ;; Hardware stack levels required when called: 3
  9263 ;; This function calls:
  9264 ;;		_i2c_start
  9265 ;;		_i2c_stop
  9266 ;;		_i2c_write
  9267 ;; This function is called by:
  9268 ;;		_change_time
  9269 ;;		_init_ds1307
  9270 ;; This function uses a non-reentrant model
  9271 ;;
  9272                           
  9273  1F02                     _write_ds1307:	
  9274                           ;psect for function _write_ds1307
  9275                           
  9276                           
  9277                           ;incstack = 0
  9278                           ; Regs used in _write_ds1307: [wreg+status,2+status,0+pclath+cstack]
  9279                           ;write_ds1307@addr stored from wreg
  9280  1F02  00F5               	movwf	write_ds1307@addr
  9281  1F03                     l4283:
  9282                           
  9283                           ;ds1307.c: 32: void write_ds1307(unsigned char addr, unsigned char data);ds1307.c: 33: {
      +                          ;ds1307.c: 34:     i2c_start();
  9284  1F03  160A  158A  2620  160A  158A  	fcall	_i2c_start
  9285                           
  9286                           ;ds1307.c: 35:     i2c_write(0b11010000);
  9287  1F08  30D0               	movlw	208
  9288  1F09  160A  158A  263B  160A  158A  	fcall	_i2c_write
  9289                           
  9290                           ;ds1307.c: 36:     i2c_write(addr);
  9291  1F0E  0875               	movf	write_ds1307@addr,w
  9292  1F0F  160A  158A  263B  160A  158A  	fcall	_i2c_write
  9293                           
  9294                           ;ds1307.c: 37:     i2c_write(data);
  9295  1F14  0874               	movf	write_ds1307@data,w
  9296  1F15  160A  158A  263B  160A  158A  	fcall	_i2c_write
  9297                           
  9298                           ;ds1307.c: 38:     i2c_stop();
  9299  1F1A  160A  158A  2629  160A  158A  	fcall	_i2c_stop
  9300  1F1F                     l423:
  9301  1F1F  0008               	return
  9302  1F20                     __end_of_write_ds1307:
  9303                           
  9304                           	psect	text32
  9305  178B                     __ptext32:	
  9306 ;; *************** function _get_time *****************
  9307 ;; Defined at:
  9308 ;;		line 17 in file "display.c"
  9309 ;; Parameters:    Size  Location     Type
  9310 ;;		None
  9311 ;; Auto vars:     Size  Location     Type
  9312 ;;		None
  9313 ;; Return value:  Size  Location     Type
  9314 ;;                  1    wreg      void 
  9315 ;; Registers used:
  9316 ;;		wreg, status,2, status,0, pclath, cstack
  9317 ;; Tracked objects:
  9318 ;;		On entry : 0/0
  9319 ;;		On exit  : 0/0
  9320 ;;		Unchanged: 0/0
  9321 ;; Data sizes:     COMMON   BANK0   BANK1   BANK3   BANK2
  9322 ;;      Params:         0       0       0       0       0
  9323 ;;      Locals:         0       0       0       0       0
  9324 ;;      Temps:          0       2       0       0       0
  9325 ;;      Totals:         0       2       0       0       0
  9326 ;;Total ram usage:        2 bytes
  9327 ;; Hardware stack levels used: 1
  9328 ;; Hardware stack levels required when called: 4
  9329 ;; This function calls:
  9330 ;;		_read_ds1307
  9331 ;; This function is called by:
  9332 ;;		_display_time
  9333 ;;		_log_car_event
  9334 ;;		_change_time
  9335 ;; This function uses a non-reentrant model
  9336 ;;
  9337                           
  9338  178B                     _get_time:	
  9339                           ;psect for function _get_time
  9340                           
  9341  178B                     l4249:	
  9342                           ;incstack = 0
  9343                           ; Regs used in _get_time: [wreg+status,2+status,0+pclath+cstack]
  9344                           
  9345                           
  9346                           ;display.c: 19:     time[2] = ((clock_reg[1] >> 4) & 0x07) + '0';
  9347  178B  3002               	movlw	2
  9348  178C  160A  118A  21E3  160A  118A  	fcall	_read_ds1307
  9349  1791  1283               	bcf	3,5	;RP0=0, select bank0
  9350  1792  1303               	bcf	3,6	;RP1=0, select bank0
  9351  1793  00A0               	movwf	??_get_time
  9352  1794  0820               	movf	??_get_time,w
  9353  1795  00CA               	movwf	_clock_reg
  9354                           
  9355                           ;display.c: 20:     time[3] = (clock_reg[1] & 0x0F) + '0';
  9356  1796  3001               	movlw	1
  9357  1797  160A  118A  21E3  160A  118A  	fcall	_read_ds1307
  9358  179C  1283               	bcf	3,5	;RP0=0, select bank0
  9359  179D  1303               	bcf	3,6	;RP1=0, select bank0
  9360  179E  00A0               	movwf	??_get_time
  9361  179F  0820               	movf	??_get_time,w
  9362  17A0  00CB               	movwf	_clock_reg+1
  9363                           
  9364                           ;display.c: 21: 
  9365  17A1  3000               	movlw	0
  9366  17A2  160A  118A  21E3  160A  118A  	fcall	_read_ds1307
  9367  17A7  1283               	bcf	3,5	;RP0=0, select bank0
  9368  17A8  1303               	bcf	3,6	;RP1=0, select bank0
  9369  17A9  00A0               	movwf	??_get_time
  9370  17AA  0820               	movf	??_get_time,w
  9371  17AB  00CC               	movwf	_clock_reg+2
  9372  17AC                     l4251:
  9373                           
  9374                           ;display.c: 22:     time[4] = ((clock_reg[2] >> 4) & 0x07) + '0';
  9375  17AC  084A               	movf	_clock_reg,w
  9376  17AD  00A0               	movwf	??_get_time
  9377  17AE  3004               	movlw	4
  9378  17AF                     u3515:
  9379  17AF  1003               	clrc
  9380  17B0  0CA0               	rrf	??_get_time,f
  9381  17B1  3EFF               	addlw	-1
  9382  17B2  1D03               	skipz
  9383  17B3  2FAF               	goto	u3515
  9384  17B4  0820               	movf	??_get_time,w
  9385  17B5  3903               	andlw	3
  9386  17B6  3E30               	addlw	48
  9387  17B7  00A1               	movwf	??_get_time+1
  9388  17B8  0821               	movf	??_get_time+1,w
  9389  17B9  1683               	bsf	3,5	;RP0=1, select bank1
  9390  17BA  1303               	bcf	3,6	;RP1=0, select bank1
  9391  17BB  00BA               	movwf	_time^(0+128)
  9392  17BC                     l4253:
  9393                           
  9394                           ;display.c: 23:     time[5] = (clock_reg[2] & 0x0F) + '0';
  9395  17BC  1283               	bcf	3,5	;RP0=0, select bank0
  9396  17BD  1303               	bcf	3,6	;RP1=0, select bank0
  9397  17BE  084A               	movf	_clock_reg,w
  9398  17BF  390F               	andlw	15
  9399  17C0  3E30               	addlw	48
  9400  17C1  00A0               	movwf	??_get_time
  9401  17C2  0820               	movf	??_get_time,w
  9402  17C3  1683               	bsf	3,5	;RP0=1, select bank1
  9403  17C4  1303               	bcf	3,6	;RP1=0, select bank1
  9404  17C5  00BB               	movwf	(_time^(0+128)+1)
  9405  17C6                     l4255:
  9406                           
  9407                           ;display.c: 25: }
  9408  17C6  1283               	bcf	3,5	;RP0=0, select bank0
  9409  17C7  1303               	bcf	3,6	;RP1=0, select bank0
  9410  17C8  084B               	movf	_clock_reg+1,w
  9411  17C9  00A0               	movwf	??_get_time
  9412  17CA  3004               	movlw	4
  9413  17CB                     u3525:
  9414  17CB  1003               	clrc
  9415  17CC  0CA0               	rrf	??_get_time,f
  9416  17CD  3EFF               	addlw	-1
  9417  17CE  1D03               	skipz
  9418  17CF  2FCB               	goto	u3525
  9419  17D0  0820               	movf	??_get_time,w
  9420  17D1  3907               	andlw	7
  9421  17D2  3E30               	addlw	48
  9422  17D3  00A1               	movwf	??_get_time+1
  9423  17D4  0821               	movf	??_get_time+1,w
  9424  17D5  1683               	bsf	3,5	;RP0=1, select bank1
  9425  17D6  1303               	bcf	3,6	;RP1=0, select bank1
  9426  17D7  00BC               	movwf	(_time^(0+128)+2)
  9427  17D8                     l4257:
  9428                           
  9429                           ;display.c: 26: 
  9430  17D8  1283               	bcf	3,5	;RP0=0, select bank0
  9431  17D9  1303               	bcf	3,6	;RP1=0, select bank0
  9432  17DA  084B               	movf	_clock_reg+1,w
  9433  17DB  390F               	andlw	15
  9434  17DC  3E30               	addlw	48
  9435  17DD  00A0               	movwf	??_get_time
  9436  17DE  0820               	movf	??_get_time,w
  9437  17DF  1683               	bsf	3,5	;RP0=1, select bank1
  9438  17E0  1303               	bcf	3,6	;RP1=0, select bank1
  9439  17E1  00BD               	movwf	(_time^(0+128)+3)
  9440  17E2                     l4259:
  9441                           
  9442                           ;display.c: 28: void display_time(void)
  9443  17E2  1283               	bcf	3,5	;RP0=0, select bank0
  9444  17E3  1303               	bcf	3,6	;RP1=0, select bank0
  9445  17E4  084C               	movf	_clock_reg+2,w
  9446  17E5  00A0               	movwf	??_get_time
  9447  17E6  3004               	movlw	4
  9448  17E7                     u3535:
  9449  17E7  1003               	clrc
  9450  17E8  0CA0               	rrf	??_get_time,f
  9451  17E9  3EFF               	addlw	-1
  9452  17EA  1D03               	skipz
  9453  17EB  2FE7               	goto	u3535
  9454  17EC  0820               	movf	??_get_time,w
  9455  17ED  3907               	andlw	7
  9456  17EE  3E30               	addlw	48
  9457  17EF  00A1               	movwf	??_get_time+1
  9458  17F0  0821               	movf	??_get_time+1,w
  9459  17F1  1683               	bsf	3,5	;RP0=1, select bank1
  9460  17F2  1303               	bcf	3,6	;RP1=0, select bank1
  9461  17F3  00BE               	movwf	(_time^(0+128)+4)
  9462  17F4                     l4261:
  9463                           
  9464                           ;display.c: 29: {
  9465  17F4  1283               	bcf	3,5	;RP0=0, select bank0
  9466  17F5  1303               	bcf	3,6	;RP1=0, select bank0
  9467  17F6  084C               	movf	_clock_reg+2,w
  9468  17F7  390F               	andlw	15
  9469  17F8  3E30               	addlw	48
  9470  17F9  00A0               	movwf	??_get_time
  9471  17FA  0820               	movf	??_get_time,w
  9472  17FB  1683               	bsf	3,5	;RP0=1, select bank1
  9473  17FC  1303               	bcf	3,6	;RP1=0, select bank1
  9474  17FD  00BF               	movwf	(_time^(0+128)+5)
  9475  17FE                     l4263:
  9476                           
  9477                           ;display.c: 30: 
  9478  17FE  01C0               	clrf	(_time^(0+128)+6)
  9479  17FF                     l130:
  9480  17FF  0008               	return
  9481  1800                     __end_of_get_time:
  9482                           
  9483                           	psect	text33
  9484  11E3                     __ptext33:	
  9485 ;; *************** function _read_ds1307 *****************
  9486 ;; Defined at:
  9487 ;;		line 17 in file "ds1307.c"
  9488 ;; Parameters:    Size  Location     Type
  9489 ;;  addr            1    wreg     unsigned char 
  9490 ;; Auto vars:     Size  Location     Type
  9491 ;;  addr            1    7[COMMON] unsigned char 
  9492 ;;  data            1    8[COMMON] unsigned char 
  9493 ;; Return value:  Size  Location     Type
  9494 ;;                  1    wreg      unsigned char 
  9495 ;; Registers used:
  9496 ;;		wreg, status,2, status,0, pclath, cstack
  9497 ;; Tracked objects:
  9498 ;;		On entry : 0/0
  9499 ;;		On exit  : 0/0
  9500 ;;		Unchanged: 0/0
  9501 ;; Data sizes:     COMMON   BANK0   BANK1   BANK3   BANK2
  9502 ;;      Params:         0       0       0       0       0
  9503 ;;      Locals:         2       0       0       0       0
  9504 ;;      Temps:          1       0       0       0       0
  9505 ;;      Totals:         3       0       0       0       0
  9506 ;;Total ram usage:        3 bytes
  9507 ;; Hardware stack levels used: 1
  9508 ;; Hardware stack levels required when called: 3
  9509 ;; This function calls:
  9510 ;;		_i2c_read
  9511 ;;		_i2c_rep_start
  9512 ;;		_i2c_start
  9513 ;;		_i2c_stop
  9514 ;;		_i2c_write
  9515 ;; This function is called by:
  9516 ;;		_get_time
  9517 ;;		_init_ds1307
  9518 ;; This function uses a non-reentrant model
  9519 ;;
  9520                           
  9521  11E3                     _read_ds1307:	
  9522                           ;psect for function _read_ds1307
  9523                           
  9524                           
  9525                           ;incstack = 0
  9526                           ; Regs used in _read_ds1307: [wreg+status,2+status,0+pclath+cstack]
  9527                           ;read_ds1307@addr stored from wreg
  9528  11E3  00F7               	movwf	read_ds1307@addr
  9529  11E4                     l4213:
  9530                           
  9531                           ;ds1307.c: 17: unsigned char read_ds1307(unsigned char addr);ds1307.c: 18: {;ds1307.c: 1
      +                          9:     unsigned char data;;ds1307.c: 21:     i2c_start();
  9532  11E4  160A  158A  2620  160A  118A  	fcall	_i2c_start
  9533                           
  9534                           ;ds1307.c: 22:     i2c_write(0b11010000);
  9535  11E9  30D0               	movlw	208
  9536  11EA  160A  158A  263B  160A  118A  	fcall	_i2c_write
  9537                           
  9538                           ;ds1307.c: 23:     i2c_write(addr);
  9539  11EF  0877               	movf	read_ds1307@addr,w
  9540  11F0  160A  158A  263B  160A  118A  	fcall	_i2c_write
  9541                           
  9542                           ;ds1307.c: 24:     i2c_rep_start();
  9543  11F5  160A  158A  2632  160A  118A  	fcall	_i2c_rep_start
  9544                           
  9545                           ;ds1307.c: 25:     i2c_write(0b11010001);
  9546  11FA  30D1               	movlw	209
  9547  11FB  160A  158A  263B  160A  118A  	fcall	_i2c_write
  9548                           
  9549                           ;ds1307.c: 26:     data = i2c_read(0);
  9550  1200  3000               	movlw	0
  9551  1201  160A  158A  273F  160A  118A  	fcall	_i2c_read
  9552  1206  00F6               	movwf	??_read_ds1307
  9553  1207  0876               	movf	??_read_ds1307,w
  9554  1208  00F8               	movwf	read_ds1307@data
  9555                           
  9556                           ;ds1307.c: 27:     i2c_stop();
  9557  1209  160A  158A  2629  160A  118A  	fcall	_i2c_stop
  9558  120E                     l4215:
  9559                           
  9560                           ;ds1307.c: 29:     return data;
  9561  120E  0878               	movf	read_ds1307@data,w
  9562  120F                     l420:
  9563  120F  0008               	return
  9564  1210                     __end_of_read_ds1307:
  9565                           
  9566                           	psect	text34
  9567  1E32                     __ptext34:	
  9568 ;; *************** function _i2c_rep_start *****************
  9569 ;; Defined at:
  9570 ;;		line 30 in file "i2c.c"
  9571 ;; Parameters:    Size  Location     Type
  9572 ;;		None
  9573 ;; Auto vars:     Size  Location     Type
  9574 ;;		None
  9575 ;; Return value:  Size  Location     Type
  9576 ;;                  1    wreg      void 
  9577 ;; Registers used:
  9578 ;;		wreg, status,2, status,0, pclath, cstack
  9579 ;; Tracked objects:
  9580 ;;		On entry : 0/0
  9581 ;;		On exit  : 0/0
  9582 ;;		Unchanged: 0/0
  9583 ;; Data sizes:     COMMON   BANK0   BANK1   BANK3   BANK2
  9584 ;;      Params:         0       0       0       0       0
  9585 ;;      Locals:         0       0       0       0       0
  9586 ;;      Temps:          0       0       0       0       0
  9587 ;;      Totals:         0       0       0       0       0
  9588 ;;Total ram usage:        0 bytes
  9589 ;; Hardware stack levels used: 1
  9590 ;; Hardware stack levels required when called: 2
  9591 ;; This function calls:
  9592 ;;		_i2c_wait_for_idle
  9593 ;; This function is called by:
  9594 ;;		_read_ds1307
  9595 ;;		_ext_eeprom_24C02_read
  9596 ;; This function uses a non-reentrant model
  9597 ;;
  9598                           
  9599  1E32                     _i2c_rep_start:	
  9600                           ;psect for function _i2c_rep_start
  9601                           
  9602  1E32                     l4171:	
  9603                           ;incstack = 0
  9604                           ; Regs used in _i2c_rep_start: [wreg+status,2+status,0+pclath+cstack]
  9605                           
  9606                           
  9607                           ;i2c.c: 32:     i2c_wait_for_idle();
  9608  1E32  160A  158A  265C  160A  158A  	fcall	_i2c_wait_for_idle
  9609  1E37                     l4173:
  9610                           
  9611                           ;i2c.c: 33:     RSEN = 1;
  9612  1E37  1683               	bsf	3,5	;RP0=1, select bank1
  9613  1E38  1303               	bcf	3,6	;RP1=0, select bank1
  9614  1E39  1491               	bsf	17,1	;volatile
  9615  1E3A                     l486:
  9616  1E3A  0008               	return
  9617  1E3B                     __end_of_i2c_rep_start:
  9618                           
  9619                           	psect	text35
  9620  1F3F                     __ptext35:	
  9621 ;; *************** function _i2c_read *****************
  9622 ;; Defined at:
  9623 ;;		line 42 in file "i2c.c"
  9624 ;; Parameters:    Size  Location     Type
  9625 ;;  ack             1    wreg     unsigned char 
  9626 ;; Auto vars:     Size  Location     Type
  9627 ;;  ack             1    4[COMMON] unsigned char 
  9628 ;;  data            1    5[COMMON] unsigned char 
  9629 ;; Return value:  Size  Location     Type
  9630 ;;                  1    wreg      unsigned char 
  9631 ;; Registers used:
  9632 ;;		wreg, status,2, status,0, pclath, cstack
  9633 ;; Tracked objects:
  9634 ;;		On entry : 0/0
  9635 ;;		On exit  : 0/0
  9636 ;;		Unchanged: 0/0
  9637 ;; Data sizes:     COMMON   BANK0   BANK1   BANK3   BANK2
  9638 ;;      Params:         0       0       0       0       0
  9639 ;;      Locals:         2       0       0       0       0
  9640 ;;      Temps:          1       0       0       0       0
  9641 ;;      Totals:         3       0       0       0       0
  9642 ;;Total ram usage:        3 bytes
  9643 ;; Hardware stack levels used: 1
  9644 ;; Hardware stack levels required when called: 2
  9645 ;; This function calls:
  9646 ;;		_i2c_wait_for_idle
  9647 ;; This function is called by:
  9648 ;;		_read_ds1307
  9649 ;;		_ext_eeprom_24C02_read
  9650 ;; This function uses a non-reentrant model
  9651 ;;
  9652                           
  9653  1F3F                     _i2c_read:	
  9654                           ;psect for function _i2c_read
  9655                           
  9656                           
  9657                           ;incstack = 0
  9658                           ; Regs used in _i2c_read: [wreg+status,2+status,0+pclath+cstack]
  9659                           ;i2c_read@ack stored from wreg
  9660  1F3F  00F4               	movwf	i2c_read@ack
  9661  1F40                     l4175:
  9662                           
  9663                           ;i2c.c: 42: unsigned char i2c_read(unsigned char ack);i2c.c: 43: {;i2c.c: 44:     unsign
      +                          ed char data;;i2c.c: 46:     i2c_wait_for_idle();
  9664  1F40  160A  158A  265C  160A  158A  	fcall	_i2c_wait_for_idle
  9665  1F45                     l4177:
  9666                           
  9667                           ;i2c.c: 47:     RCEN = 1;
  9668  1F45  1683               	bsf	3,5	;RP0=1, select bank1
  9669  1F46  1303               	bcf	3,6	;RP1=0, select bank1
  9670  1F47  1591               	bsf	17,3	;volatile
  9671                           
  9672                           ;i2c.c: 49:     i2c_wait_for_idle();
  9673  1F48  160A  158A  265C  160A  158A  	fcall	_i2c_wait_for_idle
  9674  1F4D                     l4179:
  9675                           
  9676                           ;i2c.c: 50:     data = SSPBUF;
  9677  1F4D  1283               	bcf	3,5	;RP0=0, select bank0
  9678  1F4E  1303               	bcf	3,6	;RP1=0, select bank0
  9679  1F4F  0813               	movf	19,w	;volatile
  9680  1F50  00F3               	movwf	??_i2c_read
  9681  1F51  0873               	movf	??_i2c_read,w
  9682  1F52  00F5               	movwf	i2c_read@data
  9683  1F53                     l4181:
  9684                           
  9685                           ;i2c.c: 52:     if (ack == 1)
  9686  1F53  0374               	decf	i2c_read@ack,w
  9687  1F54  1D03               	btfss	3,2
  9688  1F55  2F57               	goto	u3471
  9689  1F56  2F58               	goto	u3470
  9690  1F57                     u3471:
  9691  1F57  2F5C               	goto	l492
  9692  1F58                     u3470:
  9693  1F58                     l4183:
  9694                           
  9695                           ;i2c.c: 53:     {;i2c.c: 54:         ACKDT = 1;
  9696  1F58  1683               	bsf	3,5	;RP0=1, select bank1
  9697  1F59  1303               	bcf	3,6	;RP1=0, select bank1
  9698  1F5A  1691               	bsf	17,5	;volatile
  9699                           
  9700                           ;i2c.c: 55:     }
  9701  1F5B  2F5F               	goto	l493
  9702  1F5C                     l492:	
  9703                           ;i2c.c: 56:     else
  9704                           
  9705                           
  9706                           ;i2c.c: 57:     {;i2c.c: 58:         ACKDT = 0;
  9707  1F5C  1683               	bsf	3,5	;RP0=1, select bank1
  9708  1F5D  1303               	bcf	3,6	;RP1=0, select bank1
  9709  1F5E  1291               	bcf	17,5	;volatile
  9710  1F5F                     l493:	
  9711                           ;i2c.c: 59:     }
  9712                           
  9713                           
  9714                           ;i2c.c: 61:     ACKEN = 1;
  9715  1F5F  1611               	bsf	17,4	;volatile
  9716  1F60                     l4185:
  9717                           
  9718                           ;i2c.c: 63:     return data;
  9719  1F60  0875               	movf	i2c_read@data,w
  9720  1F61                     l494:
  9721  1F61  0008               	return
  9722  1F62                     __end_of_i2c_read:
  9723                           
  9724                           	psect	text36
  9725  1F62                     __ptext36:	
  9726 ;; *************** function ___wmul *****************
  9727 ;; Defined at:
  9728 ;;		line 15 in file "C:\Program Files\Microchip\xc8\v2.36\pic\sources\c90\common\Umul16.c"
  9729 ;; Parameters:    Size  Location     Type
  9730 ;;  multiplier      2    3[COMMON] unsigned int 
  9731 ;;  multiplicand    2    5[COMMON] unsigned int 
  9732 ;; Auto vars:     Size  Location     Type
  9733 ;;  product         2    7[COMMON] unsigned int 
  9734 ;; Return value:  Size  Location     Type
  9735 ;;                  2    3[COMMON] unsigned int 
  9736 ;; Registers used:
  9737 ;;		wreg, status,2, status,0
  9738 ;; Tracked objects:
  9739 ;;		On entry : 0/0
  9740 ;;		On exit  : 0/0
  9741 ;;		Unchanged: 0/0
  9742 ;; Data sizes:     COMMON   BANK0   BANK1   BANK3   BANK2
  9743 ;;      Params:         4       0       0       0       0
  9744 ;;      Locals:         2       0       0       0       0
  9745 ;;      Temps:          0       0       0       0       0
  9746 ;;      Totals:         6       0       0       0       0
  9747 ;;Total ram usage:        6 bytes
  9748 ;; Hardware stack levels used: 1
  9749 ;; Hardware stack levels required when called: 1
  9750 ;; This function calls:
  9751 ;;		Nothing
  9752 ;; This function is called by:
  9753 ;;		_change_time
  9754 ;; This function uses a non-reentrant model
  9755 ;;
  9756                           
  9757  1F62                     ___wmul:	
  9758                           ;psect for function ___wmul
  9759                           
  9760  1F62                     l4449:	
  9761                           ;incstack = 0
  9762                           ; Regs used in ___wmul: [wreg+status,2+status,0]
  9763                           
  9764  1F62  01F7               	clrf	___wmul@product
  9765  1F63  01F8               	clrf	___wmul@product+1
  9766  1F64                     l4451:
  9767  1F64  1C73               	btfss	___wmul@multiplier,0
  9768  1F65  2F67               	goto	u3801
  9769  1F66  2F68               	goto	u3800
  9770  1F67                     u3801:
  9771  1F67  2F6E               	goto	l642
  9772  1F68                     u3800:
  9773  1F68                     l4453:
  9774  1F68  0875               	movf	___wmul@multiplicand,w
  9775  1F69  07F7               	addwf	___wmul@product,f
  9776  1F6A  1803               	skipnc
  9777  1F6B  0AF8               	incf	___wmul@product+1,f
  9778  1F6C  0876               	movf	___wmul@multiplicand+1,w
  9779  1F6D  07F8               	addwf	___wmul@product+1,f
  9780  1F6E                     l642:
  9781  1F6E  3001               	movlw	1
  9782  1F6F                     u3815:
  9783  1F6F  1003               	clrc
  9784  1F70  0DF5               	rlf	___wmul@multiplicand,f
  9785  1F71  0DF6               	rlf	___wmul@multiplicand+1,f
  9786  1F72  3EFF               	addlw	-1
  9787  1F73  1D03               	skipz
  9788  1F74  2F6F               	goto	u3815
  9789  1F75                     l4455:
  9790  1F75  3001               	movlw	1
  9791  1F76                     u3825:
  9792  1F76  1003               	clrc
  9793  1F77  0CF4               	rrf	___wmul@multiplier+1,f
  9794  1F78  0CF3               	rrf	___wmul@multiplier,f
  9795  1F79  3EFF               	addlw	-1
  9796  1F7A  1D03               	skipz
  9797  1F7B  2F76               	goto	u3825
  9798  1F7C                     l4457:
  9799  1F7C  0873               	movf	___wmul@multiplier,w
  9800  1F7D  0474               	iorwf	___wmul@multiplier+1,w
  9801  1F7E  1D03               	btfss	3,2
  9802  1F7F  2F81               	goto	u3831
  9803  1F80  2F82               	goto	u3830
  9804  1F81                     u3831:
  9805  1F81  2F64               	goto	l4451
  9806  1F82                     u3830:
  9807  1F82                     l4459:
  9808  1F82  0878               	movf	___wmul@product+1,w
  9809  1F83  00F4               	movwf	?___wmul+1
  9810  1F84  0877               	movf	___wmul@product,w
  9811  1F85  00F3               	movwf	?___wmul
  9812  1F86                     l644:
  9813  1F86  0008               	return
  9814  1F87                     __end_of___wmul:
  9815                           
  9816                           	psect	text37
  9817  12E5                     __ptext37:	
  9818 ;; *************** function ___lwmod *****************
  9819 ;; Defined at:
  9820 ;;		line 5 in file "C:\Program Files\Microchip\xc8\v2.36\pic\sources\c90\common\lwmod.c"
  9821 ;; Parameters:    Size  Location     Type
  9822 ;;  divisor         2    3[COMMON] unsigned int 
  9823 ;;  dividend        2    5[COMMON] unsigned int 
  9824 ;; Auto vars:     Size  Location     Type
  9825 ;;  counter         1    8[COMMON] unsigned char 
  9826 ;; Return value:  Size  Location     Type
  9827 ;;                  2    3[COMMON] unsigned int 
  9828 ;; Registers used:
  9829 ;;		wreg, status,2, status,0
  9830 ;; Tracked objects:
  9831 ;;		On entry : 0/0
  9832 ;;		On exit  : 0/0
  9833 ;;		Unchanged: 0/0
  9834 ;; Data sizes:     COMMON   BANK0   BANK1   BANK3   BANK2
  9835 ;;      Params:         4       0       0       0       0
  9836 ;;      Locals:         1       0       0       0       0
  9837 ;;      Temps:          1       0       0       0       0
  9838 ;;      Totals:         6       0       0       0       0
  9839 ;;Total ram usage:        6 bytes
  9840 ;; Hardware stack levels used: 1
  9841 ;; Hardware stack levels required when called: 1
  9842 ;; This function calls:
  9843 ;;		Nothing
  9844 ;; This function is called by:
  9845 ;;		_change_time
  9846 ;; This function uses a non-reentrant model
  9847 ;;
  9848                           
  9849  12E5                     ___lwmod:	
  9850                           ;psect for function ___lwmod
  9851                           
  9852  12E5                     l4571:	
  9853                           ;incstack = 0
  9854                           ; Regs used in ___lwmod: [wreg+status,2+status,0]
  9855                           
  9856  12E5  0873               	movf	___lwmod@divisor,w
  9857  12E6  0474               	iorwf	___lwmod@divisor+1,w
  9858  12E7  1903               	btfsc	3,2
  9859  12E8  2AEA               	goto	u4101
  9860  12E9  2AEB               	goto	u4100
  9861  12EA                     u4101:
  9862  12EA  2B1A               	goto	l4589
  9863  12EB                     u4100:
  9864  12EB                     l4573:
  9865  12EB  01F8               	clrf	___lwmod@counter
  9866  12EC  0AF8               	incf	___lwmod@counter,f
  9867  12ED  2AF9               	goto	l4579
  9868  12EE                     l4575:
  9869  12EE  3001               	movlw	1
  9870  12EF                     u4115:
  9871  12EF  1003               	clrc
  9872  12F0  0DF3               	rlf	___lwmod@divisor,f
  9873  12F1  0DF4               	rlf	___lwmod@divisor+1,f
  9874  12F2  3EFF               	addlw	-1
  9875  12F3  1D03               	skipz
  9876  12F4  2AEF               	goto	u4115
  9877  12F5                     l4577:
  9878  12F5  3001               	movlw	1
  9879  12F6  00F7               	movwf	??___lwmod
  9880  12F7  0877               	movf	??___lwmod,w
  9881  12F8  07F8               	addwf	___lwmod@counter,f
  9882  12F9                     l4579:
  9883  12F9  1FF4               	btfss	___lwmod@divisor+1,7
  9884  12FA  2AFC               	goto	u4121
  9885  12FB  2AFD               	goto	u4120
  9886  12FC                     u4121:
  9887  12FC  2AEE               	goto	l4575
  9888  12FD                     u4120:
  9889  12FD                     l4581:
  9890  12FD  0874               	movf	___lwmod@divisor+1,w
  9891  12FE  0276               	subwf	___lwmod@dividend+1,w
  9892  12FF  1D03               	skipz
  9893  1300  2B03               	goto	u4135
  9894  1301  0873               	movf	___lwmod@divisor,w
  9895  1302  0275               	subwf	___lwmod@dividend,w
  9896  1303                     u4135:
  9897  1303  1C03               	skipc
  9898  1304  2B06               	goto	u4131
  9899  1305  2B07               	goto	u4130
  9900  1306                     u4131:
  9901  1306  2B0D               	goto	l4585
  9902  1307                     u4130:
  9903  1307                     l4583:
  9904  1307  0873               	movf	___lwmod@divisor,w
  9905  1308  02F5               	subwf	___lwmod@dividend,f
  9906  1309  0874               	movf	___lwmod@divisor+1,w
  9907  130A  1C03               	skipc
  9908  130B  03F6               	decf	___lwmod@dividend+1,f
  9909  130C  02F6               	subwf	___lwmod@dividend+1,f
  9910  130D                     l4585:
  9911  130D  3001               	movlw	1
  9912  130E                     u4145:
  9913  130E  1003               	clrc
  9914  130F  0CF4               	rrf	___lwmod@divisor+1,f
  9915  1310  0CF3               	rrf	___lwmod@divisor,f
  9916  1311  3EFF               	addlw	-1
  9917  1312  1D03               	skipz
  9918  1313  2B0E               	goto	u4145
  9919  1314                     l4587:
  9920  1314  3001               	movlw	1
  9921  1315  02F8               	subwf	___lwmod@counter,f
  9922  1316  1D03               	btfss	3,2
  9923  1317  2B19               	goto	u4151
  9924  1318  2B1A               	goto	u4150
  9925  1319                     u4151:
  9926  1319  2AFD               	goto	l4581
  9927  131A                     u4150:
  9928  131A                     l4589:
  9929  131A  0876               	movf	___lwmod@dividend+1,w
  9930  131B  00F4               	movwf	?___lwmod+1
  9931  131C  0875               	movf	___lwmod@dividend,w
  9932  131D  00F3               	movwf	?___lwmod
  9933  131E                     l924:
  9934  131E  0008               	return
  9935  131F                     __end_of___lwmod:
  9936                           
  9937                           	psect	text38
  9938  13DC                     __ptext38:	
  9939 ;; *************** function ___lwdiv *****************
  9940 ;; Defined at:
  9941 ;;		line 5 in file "C:\Program Files\Microchip\xc8\v2.36\pic\sources\c90\common\lwdiv.c"
  9942 ;; Parameters:    Size  Location     Type
  9943 ;;  divisor         2    0[BANK0 ] unsigned int 
  9944 ;;  dividend        2    2[BANK0 ] unsigned int 
  9945 ;; Auto vars:     Size  Location     Type
  9946 ;;  quotient        2    5[BANK0 ] unsigned int 
  9947 ;;  counter         1    4[BANK0 ] unsigned char 
  9948 ;; Return value:  Size  Location     Type
  9949 ;;                  2    0[BANK0 ] unsigned int 
  9950 ;; Registers used:
  9951 ;;		wreg, status,2, status,0
  9952 ;; Tracked objects:
  9953 ;;		On entry : 0/0
  9954 ;;		On exit  : 0/0
  9955 ;;		Unchanged: 0/0
  9956 ;; Data sizes:     COMMON   BANK0   BANK1   BANK3   BANK2
  9957 ;;      Params:         0       4       0       0       0
  9958 ;;      Locals:         0       3       0       0       0
  9959 ;;      Temps:          1       0       0       0       0
  9960 ;;      Totals:         1       7       0       0       0
  9961 ;;Total ram usage:        8 bytes
  9962 ;; Hardware stack levels used: 1
  9963 ;; Hardware stack levels required when called: 1
  9964 ;; This function calls:
  9965 ;;		Nothing
  9966 ;; This function is called by:
  9967 ;;		_change_time
  9968 ;;		_main
  9969 ;; This function uses a non-reentrant model
  9970 ;;
  9971                           
  9972  13DC                     ___lwdiv:	
  9973                           ;psect for function ___lwdiv
  9974                           
  9975  13DC                     l4545:	
  9976                           ;incstack = 0
  9977                           ; Regs used in ___lwdiv: [wreg+status,2+status,0]
  9978                           
  9979  13DC  1283               	bcf	3,5	;RP0=0, select bank0
  9980  13DD  1303               	bcf	3,6	;RP1=0, select bank0
  9981  13DE  01A5               	clrf	___lwdiv@quotient
  9982  13DF  01A6               	clrf	___lwdiv@quotient+1
  9983  13E0                     l4547:
  9984  13E0  0820               	movf	___lwdiv@divisor,w
  9985  13E1  0421               	iorwf	___lwdiv@divisor+1,w
  9986  13E2  1903               	btfsc	3,2
  9987  13E3  2BE5               	goto	u4031
  9988  13E4  2BE6               	goto	u4030
  9989  13E5                     u4031:
  9990  13E5  2C1D               	goto	l4567
  9991  13E6                     u4030:
  9992  13E6                     l4549:
  9993  13E6  01A4               	clrf	___lwdiv@counter
  9994  13E7  0AA4               	incf	___lwdiv@counter,f
  9995  13E8  2BF4               	goto	l4555
  9996  13E9                     l4551:
  9997  13E9  3001               	movlw	1
  9998  13EA                     u4045:
  9999  13EA  1003               	clrc
 10000  13EB  0DA0               	rlf	___lwdiv@divisor,f
 10001  13EC  0DA1               	rlf	___lwdiv@divisor+1,f
 10002  13ED  3EFF               	addlw	-1
 10003  13EE  1D03               	skipz
 10004  13EF  2BEA               	goto	u4045
 10005  13F0                     l4553:
 10006  13F0  3001               	movlw	1
 10007  13F1  00F7               	movwf	??___lwdiv
 10008  13F2  0877               	movf	??___lwdiv,w
 10009  13F3  07A4               	addwf	___lwdiv@counter,f
 10010  13F4                     l4555:
 10011  13F4  1FA1               	btfss	___lwdiv@divisor+1,7
 10012  13F5  2BF7               	goto	u4051
 10013  13F6  2BF8               	goto	u4050
 10014  13F7                     u4051:
 10015  13F7  2BE9               	goto	l4551
 10016  13F8                     u4050:
 10017  13F8                     l4557:
 10018  13F8  3001               	movlw	1
 10019  13F9                     u4065:
 10020  13F9  1003               	clrc
 10021  13FA  0DA5               	rlf	___lwdiv@quotient,f
 10022  13FB  0DA6               	rlf	___lwdiv@quotient+1,f
 10023  13FC  3EFF               	addlw	-1
 10024  13FD  1D03               	skipz
 10025  13FE  2BF9               	goto	u4065
 10026  13FF  0821               	movf	___lwdiv@divisor+1,w
 10027  1400  0223               	subwf	___lwdiv@dividend+1,w
 10028  1401  1D03               	skipz
 10029  1402  2C05               	goto	u4075
 10030  1403  0820               	movf	___lwdiv@divisor,w
 10031  1404  0222               	subwf	___lwdiv@dividend,w
 10032  1405                     u4075:
 10033  1405  1C03               	skipc
 10034  1406  2C08               	goto	u4071
 10035  1407  2C09               	goto	u4070
 10036  1408                     u4071:
 10037  1408  2C10               	goto	l4563
 10038  1409                     u4070:
 10039  1409                     l4559:
 10040  1409  0820               	movf	___lwdiv@divisor,w
 10041  140A  02A2               	subwf	___lwdiv@dividend,f
 10042  140B  0821               	movf	___lwdiv@divisor+1,w
 10043  140C  1C03               	skipc
 10044  140D  03A3               	decf	___lwdiv@dividend+1,f
 10045  140E  02A3               	subwf	___lwdiv@dividend+1,f
 10046  140F                     l4561:
 10047  140F  1425               	bsf	___lwdiv@quotient,0
 10048  1410                     l4563:
 10049  1410  3001               	movlw	1
 10050  1411                     u4085:
 10051  1411  1003               	clrc
 10052  1412  0CA1               	rrf	___lwdiv@divisor+1,f
 10053  1413  0CA0               	rrf	___lwdiv@divisor,f
 10054  1414  3EFF               	addlw	-1
 10055  1415  1D03               	skipz
 10056  1416  2C11               	goto	u4085
 10057  1417                     l4565:
 10058  1417  3001               	movlw	1
 10059  1418  02A4               	subwf	___lwdiv@counter,f
 10060  1419  1D03               	btfss	3,2
 10061  141A  2C1C               	goto	u4091
 10062  141B  2C1D               	goto	u4090
 10063  141C                     u4091:
 10064  141C  2BF8               	goto	l4557
 10065  141D                     u4090:
 10066  141D                     l4567:
 10067  141D  0826               	movf	___lwdiv@quotient+1,w
 10068  141E  00A1               	movwf	?___lwdiv+1
 10069  141F  0825               	movf	___lwdiv@quotient,w
 10070  1420  00A0               	movwf	?___lwdiv
 10071  1421                     l914:
 10072  1421  0008               	return
 10073  1422                     __end_of___lwdiv:
 10074                           
 10075                           	psect	text39
 10076  14BF                     __ptext39:	
 10077 ;; *************** function ___awmod *****************
 10078 ;; Defined at:
 10079 ;;		line 5 in file "C:\Program Files\Microchip\xc8\v2.36\pic\sources\c90\common\awmod.c"
 10080 ;; Parameters:    Size  Location     Type
 10081 ;;  divisor         2    3[COMMON] int 
 10082 ;;  dividend        2    5[COMMON] int 
 10083 ;; Auto vars:     Size  Location     Type
 10084 ;;  sign            1    1[BANK0 ] unsigned char 
 10085 ;;  counter         1    0[BANK0 ] unsigned char 
 10086 ;; Return value:  Size  Location     Type
 10087 ;;                  2    3[COMMON] int 
 10088 ;; Registers used:
 10089 ;;		wreg, status,2, status,0
 10090 ;; Tracked objects:
 10091 ;;		On entry : 0/0
 10092 ;;		On exit  : 0/0
 10093 ;;		Unchanged: 0/0
 10094 ;; Data sizes:     COMMON   BANK0   BANK1   BANK3   BANK2
 10095 ;;      Params:         4       0       0       0       0
 10096 ;;      Locals:         0       2       0       0       0
 10097 ;;      Temps:          1       0       0       0       0
 10098 ;;      Totals:         5       2       0       0       0
 10099 ;;Total ram usage:        7 bytes
 10100 ;; Hardware stack levels used: 1
 10101 ;; Hardware stack levels required when called: 1
 10102 ;; This function calls:
 10103 ;;		Nothing
 10104 ;; This function is called by:
 10105 ;;		_display_dash_board
 10106 ;;		_log_car_event
 10107 ;;		_view_log
 10108 ;;		_download_log
 10109 ;;		_change_time
 10110 ;;		_login
 10111 ;; This function uses a non-reentrant model
 10112 ;;
 10113                           
 10114  14BF                     ___awmod:	
 10115                           ;psect for function ___awmod
 10116                           
 10117  14BF                     l4507:	
 10118                           ;incstack = 0
 10119                           ; Regs used in ___awmod: [wreg+status,2+status,0]
 10120                           
 10121  14BF  1283               	bcf	3,5	;RP0=0, select bank0
 10122  14C0  1303               	bcf	3,6	;RP1=0, select bank0
 10123  14C1  01A1               	clrf	___awmod@sign
 10124  14C2                     l4509:
 10125  14C2  1FF6               	btfss	___awmod@dividend+1,7
 10126  14C3  2CC5               	goto	u3941
 10127  14C4  2CC6               	goto	u3940
 10128  14C5                     u3941:
 10129  14C5  2CCD               	goto	l4515
 10130  14C6                     u3940:
 10131  14C6                     l4511:
 10132  14C6  09F5               	comf	___awmod@dividend,f
 10133  14C7  09F6               	comf	___awmod@dividend+1,f
 10134  14C8  0AF5               	incf	___awmod@dividend,f
 10135  14C9  1903               	skipnz
 10136  14CA  0AF6               	incf	___awmod@dividend+1,f
 10137  14CB                     l4513:
 10138  14CB  01A1               	clrf	___awmod@sign
 10139  14CC  0AA1               	incf	___awmod@sign,f
 10140  14CD                     l4515:
 10141  14CD  1FF4               	btfss	___awmod@divisor+1,7
 10142  14CE  2CD0               	goto	u3951
 10143  14CF  2CD1               	goto	u3950
 10144  14D0                     u3951:
 10145  14D0  2CD6               	goto	l4519
 10146  14D1                     u3950:
 10147  14D1                     l4517:
 10148  14D1  09F3               	comf	___awmod@divisor,f
 10149  14D2  09F4               	comf	___awmod@divisor+1,f
 10150  14D3  0AF3               	incf	___awmod@divisor,f
 10151  14D4  1903               	skipnz
 10152  14D5  0AF4               	incf	___awmod@divisor+1,f
 10153  14D6                     l4519:
 10154  14D6  0873               	movf	___awmod@divisor,w
 10155  14D7  0474               	iorwf	___awmod@divisor+1,w
 10156  14D8  1903               	btfsc	3,2
 10157  14D9  2CDB               	goto	u3961
 10158  14DA  2CDC               	goto	u3960
 10159  14DB                     u3961:
 10160  14DB  2D0B               	goto	l4537
 10161  14DC                     u3960:
 10162  14DC                     l4521:
 10163  14DC  01A0               	clrf	___awmod@counter
 10164  14DD  0AA0               	incf	___awmod@counter,f
 10165  14DE  2CEA               	goto	l4527
 10166  14DF                     l4523:
 10167  14DF  3001               	movlw	1
 10168  14E0                     u3975:
 10169  14E0  1003               	clrc
 10170  14E1  0DF3               	rlf	___awmod@divisor,f
 10171  14E2  0DF4               	rlf	___awmod@divisor+1,f
 10172  14E3  3EFF               	addlw	-1
 10173  14E4  1D03               	skipz
 10174  14E5  2CE0               	goto	u3975
 10175  14E6                     l4525:
 10176  14E6  3001               	movlw	1
 10177  14E7  00F7               	movwf	??___awmod
 10178  14E8  0877               	movf	??___awmod,w
 10179  14E9  07A0               	addwf	___awmod@counter,f
 10180  14EA                     l4527:
 10181  14EA  1FF4               	btfss	___awmod@divisor+1,7
 10182  14EB  2CED               	goto	u3981
 10183  14EC  2CEE               	goto	u3980
 10184  14ED                     u3981:
 10185  14ED  2CDF               	goto	l4523
 10186  14EE                     u3980:
 10187  14EE                     l4529:
 10188  14EE  0874               	movf	___awmod@divisor+1,w
 10189  14EF  0276               	subwf	___awmod@dividend+1,w
 10190  14F0  1D03               	skipz
 10191  14F1  2CF4               	goto	u3995
 10192  14F2  0873               	movf	___awmod@divisor,w
 10193  14F3  0275               	subwf	___awmod@dividend,w
 10194  14F4                     u3995:
 10195  14F4  1C03               	skipc
 10196  14F5  2CF7               	goto	u3991
 10197  14F6  2CF8               	goto	u3990
 10198  14F7                     u3991:
 10199  14F7  2CFE               	goto	l4533
 10200  14F8                     u3990:
 10201  14F8                     l4531:
 10202  14F8  0873               	movf	___awmod@divisor,w
 10203  14F9  02F5               	subwf	___awmod@dividend,f
 10204  14FA  0874               	movf	___awmod@divisor+1,w
 10205  14FB  1C03               	skipc
 10206  14FC  03F6               	decf	___awmod@dividend+1,f
 10207  14FD  02F6               	subwf	___awmod@dividend+1,f
 10208  14FE                     l4533:
 10209  14FE  3001               	movlw	1
 10210  14FF                     u4005:
 10211  14FF  1003               	clrc
 10212  1500  0CF4               	rrf	___awmod@divisor+1,f
 10213  1501  0CF3               	rrf	___awmod@divisor,f
 10214  1502  3EFF               	addlw	-1
 10215  1503  1D03               	skipz
 10216  1504  2CFF               	goto	u4005
 10217  1505                     l4535:
 10218  1505  3001               	movlw	1
 10219  1506  02A0               	subwf	___awmod@counter,f
 10220  1507  1D03               	btfss	3,2
 10221  1508  2D0A               	goto	u4011
 10222  1509  2D0B               	goto	u4010
 10223  150A                     u4011:
 10224  150A  2CEE               	goto	l4529
 10225  150B                     u4010:
 10226  150B                     l4537:
 10227  150B  0821               	movf	___awmod@sign,w
 10228  150C  1903               	btfsc	3,2
 10229  150D  2D0F               	goto	u4021
 10230  150E  2D10               	goto	u4020
 10231  150F                     u4021:
 10232  150F  2D15               	goto	l4541
 10233  1510                     u4020:
 10234  1510                     l4539:
 10235  1510  09F5               	comf	___awmod@dividend,f
 10236  1511  09F6               	comf	___awmod@dividend+1,f
 10237  1512  0AF5               	incf	___awmod@dividend,f
 10238  1513  1903               	skipnz
 10239  1514  0AF6               	incf	___awmod@dividend+1,f
 10240  1515                     l4541:
 10241  1515  0876               	movf	___awmod@dividend+1,w
 10242  1516  00F4               	movwf	?___awmod+1
 10243  1517  0875               	movf	___awmod@dividend,w
 10244  1518  00F3               	movwf	?___awmod
 10245  1519                     l808:
 10246  1519  0008               	return
 10247  151A                     __end_of___awmod:
 10248                           
 10249                           	psect	text40
 10250  09BB                     __ptext40:	
 10251 ;; *************** function _change_password *****************
 10252 ;; Defined at:
 10253 ;;		line 466 in file "display.c"
 10254 ;; Parameters:    Size  Location     Type
 10255 ;;  key             1    wreg     unsigned char 
 10256 ;;  reset_pwd       1    9[BANK0 ] unsigned char 
 10257 ;; Auto vars:     Size  Location     Type
 10258 ;;  key             1   12[BANK0 ] unsigned char 
 10259 ;; Return value:  Size  Location     Type
 10260 ;;                  1    wreg      unsigned char 
 10261 ;; Registers used:
 10262 ;;		wreg, fsr0l, fsr0h, status,2, status,0, btemp+1, pclath, cstack
 10263 ;; Tracked objects:
 10264 ;;		On entry : 0/0
 10265 ;;		On exit  : 0/0
 10266 ;;		Unchanged: 0/0
 10267 ;; Data sizes:     COMMON   BANK0   BANK1   BANK3   BANK2
 10268 ;;      Params:         0       1       0       0       0
 10269 ;;      Locals:         0       1       0       0       0
 10270 ;;      Temps:          0       2       0       0       0
 10271 ;;      Totals:         0       4       0       0       0
 10272 ;;Total ram usage:        4 bytes
 10273 ;; Hardware stack levels used: 1
 10274 ;; Hardware stack levels required when called: 5
 10275 ;; This function calls:
 10276 ;;		_clcd_print
 10277 ;;		_clcd_putch
 10278 ;;		_clcd_write
 10279 ;;		_ext_eeprom_24C02_str_write
 10280 ;;		_strncmp
 10281 ;;		_strncpy
 10282 ;; This function is called by:
 10283 ;;		_main
 10284 ;; This function uses a non-reentrant model
 10285 ;;
 10286                           
 10287  09BB                     _change_password:	
 10288                           ;psect for function _change_password
 10289                           
 10290                           
 10291                           ;incstack = 0
 10292                           ; Regs used in _change_password: [wreg-fsr0h+status,2+status,0+btemp+1+pclath+cstack]
 10293                           ;change_password@key stored from wreg
 10294  09BB  1283               	bcf	3,5	;RP0=0, select bank0
 10295  09BC  1303               	bcf	3,6	;RP1=0, select bank0
 10296  09BD  00AC               	movwf	change_password@key
 10297  09BE                     l5075:
 10298                           
 10299                           ;display.c: 466: ;display.c: 467: ;display.c: 468:  if ( reset_pwd == 0x01 );display.c: 
      +                          469:  {;display.c: 470:   strncpy(r_pwd, "    ",4);;display.c: 474: 
 10300  09BE  0329               	decf	change_password@reset_pwd,w
 10301  09BF  1D03               	btfss	3,2
 10302  09C0  29C2               	goto	u4791
 10303  09C1  29C3               	goto	u4790
 10304  09C2                     u4791:
 10305  09C2  29DA               	goto	l5085
 10306  09C3                     u4790:
 10307  09C3                     l5077:
 10308                           
 10309                           ;display.c: 475:  };display.c: 476: 
 10310  09C3  3022               	movlw	low ((STR_13+13)| (0+32768))
 10311  09C4  00F3               	movwf	strncpy@from
 10312  09C5  3090               	movlw	high ((STR_13+13)| (0+32768))
 10313  09C6  00F4               	movwf	strncpy@from+1
 10314  09C7  3004               	movlw	4
 10315  09C8  00F5               	movwf	strncpy@size
 10316  09C9  3000               	movlw	0
 10317  09CA  00F6               	movwf	strncpy@size+1
 10318  09CB  30B1               	movlw	(low (change_password@r_pwd| 0))& (0+255)
 10319  09CC  160A  118A  2422  120A  158A  	fcall	_strncpy
 10320  09D1                     l5079:
 10321                           
 10322                           ;display.c: 477:  if (!return_time)
 10323  09D1  1283               	bcf	3,5	;RP0=0, select bank0
 10324  09D2  1303               	bcf	3,6	;RP1=0, select bank0
 10325  09D3  01CD               	clrf	change_password@n_p_pos
 10326  09D4  01CE               	clrf	change_password@n_p_pos+1
 10327  09D5                     l5081:
 10328                           
 10329                           ;display.c: 478:   return 0x03;
 10330  09D5  01D9               	clrf	change_password@p_chg
 10331  09D6                     l5083:
 10332                           
 10333                           ;display.c: 479: 
 10334  09D6  301E               	movlw	30
 10335  09D7  00D5               	movwf	_return_time
 10336  09D8  3000               	movlw	0
 10337  09D9  00D6               	movwf	_return_time+1
 10338  09DA                     l5085:
 10339                           
 10340                           ;display.c: 483:  if ( n_p_pos < 4 )
 10341  09DA  0855               	movf	_return_time,w
 10342  09DB  0456               	iorwf	_return_time+1,w
 10343  09DC  1D03               	btfss	3,2
 10344  09DD  29DF               	goto	u4801
 10345  09DE  29E0               	goto	u4800
 10346  09DF                     u4801:
 10347  09DF  29E2               	goto	l5091
 10348  09E0                     u4800:
 10349  09E0                     l5087:
 10350                           
 10351                           ;display.c: 484:   clcd_print("Enter new pwd    ",(0x80 + 0));
 10352  09E0  3003               	movlw	3
 10353  09E1  2B35               	goto	l267
 10354  09E2                     l5091:
 10355                           
 10356                           ;display.c: 486:  else if ( n_p_pos > 3 && n_p_pos < 8 )
 10357  09E2  0859               	movf	change_password@p_chg,w
 10358  09E3  1903               	btfsc	3,2
 10359  09E4  29E6               	goto	u4811
 10360  09E5  29E7               	goto	u4810
 10361  09E6                     u4811:
 10362  09E6  29E9               	goto	l5097
 10363  09E7                     u4810:
 10364  09E7                     l5093:
 10365                           
 10366                           ;display.c: 487:   clcd_print("Re enter new pwd    ",(0x80 + 0));
 10367  09E7  3022               	movlw	34
 10368  09E8  2B35               	goto	l267
 10369  09E9                     l5097:
 10370                           
 10371                           ;display.c: 489: 
 10372  09E9  084E               	movf	change_password@n_p_pos+1,w
 10373  09EA  3A80               	xorlw	128
 10374  09EB  00FF               	movwf	btemp+1
 10375  09EC  3080               	movlw	128
 10376  09ED  027F               	subwf	btemp+1,w
 10377  09EE  1D03               	skipz
 10378  09EF  29F2               	goto	u4825
 10379  09F0  3004               	movlw	4
 10380  09F1  024D               	subwf	change_password@n_p_pos,w
 10381  09F2                     u4825:
 10382  09F2  1803               	skipnc
 10383  09F3  29F5               	goto	u4821
 10384  09F4  29F6               	goto	u4820
 10385  09F5                     u4821:
 10386  09F5  2A06               	goto	l5101
 10387  09F6                     u4820:
 10388  09F6                     l5099:
 10389                           
 10390                           ;display.c: 490: 
 10391  09F6  3027               	movlw	low (STR_26| (0+32768))
 10392  09F7  1283               	bcf	3,5	;RP0=0, select bank0
 10393  09F8  1303               	bcf	3,6	;RP1=0, select bank0
 10394  09F9  00A0               	movwf	clcd_print@str
 10395  09FA  3090               	movlw	high (STR_26| (0+32768))
 10396  09FB  00A1               	movwf	clcd_print@str+1
 10397  09FC  3080               	movlw	128
 10398  09FD  00AA               	movwf	??_change_password
 10399  09FE  082A               	movf	??_change_password,w
 10400  09FF  00A2               	movwf	clcd_print@addr
 10401  0A00  160A  118A  2210  120A  158A  	fcall	_clcd_print
 10402  0A05  2A9E               	goto	l5133
 10403  0A06                     l5101:
 10404  0A06  1283               	bcf	3,5	;RP0=0, select bank0
 10405  0A07  1303               	bcf	3,6	;RP1=0, select bank0
 10406  0A08  084E               	movf	change_password@n_p_pos+1,w
 10407  0A09  3A80               	xorlw	128
 10408  0A0A  00FF               	movwf	btemp+1
 10409  0A0B  3080               	movlw	128
 10410  0A0C  027F               	subwf	btemp+1,w
 10411  0A0D  1D03               	skipz
 10412  0A0E  2A11               	goto	u4835
 10413  0A0F  3004               	movlw	4
 10414  0A10  024D               	subwf	change_password@n_p_pos,w
 10415  0A11                     u4835:
 10416  0A11  1C03               	skipc
 10417  0A12  2A14               	goto	u4831
 10418  0A13  2A15               	goto	u4830
 10419  0A14                     u4831:
 10420  0A14  2A9E               	goto	l5133
 10421  0A15                     u4830:
 10422  0A15                     l5103:
 10423  0A15  1283               	bcf	3,5	;RP0=0, select bank0
 10424  0A16  1303               	bcf	3,6	;RP1=0, select bank0
 10425  0A17  084E               	movf	change_password@n_p_pos+1,w
 10426  0A18  3A80               	xorlw	128
 10427  0A19  00FF               	movwf	btemp+1
 10428  0A1A  3080               	movlw	128
 10429  0A1B  027F               	subwf	btemp+1,w
 10430  0A1C  1D03               	skipz
 10431  0A1D  2A20               	goto	u4845
 10432  0A1E  3008               	movlw	8
 10433  0A1F  024D               	subwf	change_password@n_p_pos,w
 10434  0A20                     u4845:
 10435  0A20  1803               	skipnc
 10436  0A21  2A23               	goto	u4841
 10437  0A22  2A24               	goto	u4840
 10438  0A23                     u4841:
 10439  0A23  2A9E               	goto	l5133
 10440  0A24                     u4840:
 10441  0A24                     l5105:
 10442                           
 10443                           ;display.c: 493:  {
 10444  0A24  3000               	movlw	low (STR_27| (0+32768))
 10445  0A25  1283               	bcf	3,5	;RP0=0, select bank0
 10446  0A26  1303               	bcf	3,6	;RP1=0, select bank0
 10447  0A27  00A0               	movwf	clcd_print@str
 10448  0A28  3090               	movlw	high (STR_27| (0+32768))
 10449  0A29  00A1               	movwf	clcd_print@str+1
 10450  0A2A  3080               	movlw	128
 10451  0A2B  00AA               	movwf	??_change_password
 10452  0A2C  082A               	movf	??_change_password,w
 10453  0A2D  00A2               	movwf	clcd_print@addr
 10454  0A2E  160A  118A  2210  120A  158A  	fcall	_clcd_print
 10455  0A33  2A9E               	goto	l5133
 10456  0A34                     l5107:
 10457                           
 10458                           ;display.c: 501:    break;
 10459  0A34  3030               	movlw	48
 10460  0A35  00AA               	movwf	??_change_password
 10461  0A36  084D               	movf	change_password@n_p_pos,w
 10462  0A37  3EB1               	addlw	(low (change_password@r_pwd| 0))& (0+255)
 10463  0A38  0084               	movwf	4
 10464  0A39  082A               	movf	??_change_password,w
 10465  0A3A  1383               	bcf	3,7	;select IRP bank1
 10466  0A3B  0080               	movwf	0
 10467  0A3C                     l5109:
 10468                           
 10469                           ;display.c: 502: 
 10470  0A3C  084D               	movf	change_password@n_p_pos,w
 10471  0A3D  3903               	andlw	3
 10472  0A3E  3EC0               	addlw	192
 10473  0A3F  00AA               	movwf	??_change_password
 10474  0A40  082A               	movf	??_change_password,w
 10475  0A41  00A7               	movwf	clcd_putch@addr
 10476  0A42  302A               	movlw	42
 10477  0A43  160A  158A  269B  120A  158A  	fcall	_clcd_putch
 10478  0A48                     l5111:
 10479                           
 10480                           ;display.c: 503:   case 0x37 :
 10481  0A48  3001               	movlw	1
 10482  0A49  1283               	bcf	3,5	;RP0=0, select bank0
 10483  0A4A  1303               	bcf	3,6	;RP1=0, select bank0
 10484  0A4B  07CD               	addwf	change_password@n_p_pos,f
 10485  0A4C  1803               	skipnc
 10486  0A4D  0ACE               	incf	change_password@n_p_pos+1,f
 10487  0A4E  3000               	movlw	0
 10488  0A4F  07CE               	addwf	change_password@n_p_pos+1,f
 10489  0A50                     l5113:
 10490                           
 10491                           ;display.c: 504:    r_pwd[n_p_pos] = '1';
 10492  0A50  301E               	movlw	30
 10493  0A51  00D5               	movwf	_return_time
 10494  0A52  3000               	movlw	0
 10495  0A53  00D6               	movwf	_return_time+1
 10496  0A54                     l5115:
 10497                           
 10498                           ;display.c: 505:    clcd_putch('*',(0xC0 + n_p_pos%4));
 10499  0A54  3004               	movlw	4
 10500  0A55  064D               	xorwf	change_password@n_p_pos,w
 10501  0A56  044E               	iorwf	change_password@n_p_pos+1,w
 10502  0A57  1D03               	btfss	3,2
 10503  0A58  2A5A               	goto	u4851
 10504  0A59  2A5B               	goto	u4850
 10505  0A5A                     u4851:
 10506  0A5A  2AB0               	goto	l5135
 10507  0A5B                     u4850:
 10508  0A5B                     l5117:
 10509                           
 10510                           ;display.c: 506:    n_p_pos++;
 10511  0A5B  3015               	movlw	low (STR_13| (0+32768))
 10512  0A5C  00A0               	movwf	clcd_print@str
 10513  0A5D  3090               	movlw	high (STR_13| (0+32768))
 10514  0A5E  00A1               	movwf	clcd_print@str+1
 10515  0A5F  30C0               	movlw	192
 10516  0A60  00AA               	movwf	??_change_password
 10517  0A61  082A               	movf	??_change_password,w
 10518  0A62  00A2               	movwf	clcd_print@addr
 10519  0A63  160A  118A  2210  120A  158A  	fcall	_clcd_print
 10520  0A68  2AB0               	goto	l5135
 10521  0A69                     l5119:
 10522                           
 10523                           ;display.c: 510:    break;
 10524  0A69  3031               	movlw	49
 10525  0A6A  00AA               	movwf	??_change_password
 10526  0A6B  084D               	movf	change_password@n_p_pos,w
 10527  0A6C  3EB1               	addlw	(low (change_password@r_pwd| 0))& (0+255)
 10528  0A6D  0084               	movwf	4
 10529  0A6E  082A               	movf	??_change_password,w
 10530  0A6F  1383               	bcf	3,7	;select IRP bank1
 10531  0A70  0080               	movwf	0
 10532  0A71                     l5121:
 10533                           
 10534                           ;display.c: 511:  }
 10535  0A71  084D               	movf	change_password@n_p_pos,w
 10536  0A72  3903               	andlw	3
 10537  0A73  3EC0               	addlw	192
 10538  0A74  00AA               	movwf	??_change_password
 10539  0A75  082A               	movf	??_change_password,w
 10540  0A76  00A7               	movwf	clcd_putch@addr
 10541  0A77  302A               	movlw	42
 10542  0A78  160A  158A  269B  120A  158A  	fcall	_clcd_putch
 10543  0A7D                     l5123:
 10544                           
 10545                           ;display.c: 512: 
 10546  0A7D  3001               	movlw	1
 10547  0A7E  1283               	bcf	3,5	;RP0=0, select bank0
 10548  0A7F  1303               	bcf	3,6	;RP1=0, select bank0
 10549  0A80  07CD               	addwf	change_password@n_p_pos,f
 10550  0A81  1803               	skipnc
 10551  0A82  0ACE               	incf	change_password@n_p_pos+1,f
 10552  0A83  3000               	movlw	0
 10553  0A84  07CE               	addwf	change_password@n_p_pos+1,f
 10554  0A85                     l5125:
 10555                           
 10556                           ;display.c: 513:  if ( n_p_pos == 8)
 10557  0A85  301E               	movlw	30
 10558  0A86  00D5               	movwf	_return_time
 10559  0A87  3000               	movlw	0
 10560  0A88  00D6               	movwf	_return_time+1
 10561  0A89                     l5127:
 10562                           
 10563                           ;display.c: 514:  {
 10564  0A89  3004               	movlw	4
 10565  0A8A  064D               	xorwf	change_password@n_p_pos,w
 10566  0A8B  044E               	iorwf	change_password@n_p_pos+1,w
 10567  0A8C  1D03               	btfss	3,2
 10568  0A8D  2A8F               	goto	u4861
 10569  0A8E  2A90               	goto	u4860
 10570  0A8F                     u4861:
 10571  0A8F  2AB0               	goto	l5135
 10572  0A90                     u4860:
 10573  0A90                     l5129:
 10574                           
 10575                           ;display.c: 515:   if ( strncmp(r_pwd, &r_pwd[4], 4) == 0 )
 10576  0A90  3015               	movlw	low (STR_13| (0+32768))
 10577  0A91  00A0               	movwf	clcd_print@str
 10578  0A92  3090               	movlw	high (STR_13| (0+32768))
 10579  0A93  00A1               	movwf	clcd_print@str+1
 10580  0A94  30C0               	movlw	192
 10581  0A95  00AA               	movwf	??_change_password
 10582  0A96  082A               	movf	??_change_password,w
 10583  0A97  00A2               	movwf	clcd_print@addr
 10584  0A98  160A  118A  2210  120A  158A  	fcall	_clcd_print
 10585  0A9D  2AB0               	goto	l5135
 10586  0A9E                     l5133:
 10587  0A9E  1283               	bcf	3,5	;RP0=0, select bank0
 10588  0A9F  1303               	bcf	3,6	;RP1=0, select bank0
 10589  0AA0  082C               	movf	change_password@key,w
 10590  0AA1  00AA               	movwf	??_change_password
 10591  0AA2  01AB               	clrf	??_change_password+1
 10592                           
 10593                           ; Switch on 2 bytes has been partitioned into a top level switch of size 1, and 1 sub-sw
      +                          itches
 10594                           ; Switch size 1, requested type "simple"
 10595                           ; Number of cases is 1, Range of values is 0 to 0
 10596                           ; switch strategies available:
 10597                           ; Name         Instructions Cycles
 10598                           ; simple_byte            4     3 (average)
 10599                           ; direct_byte           11     8 (fixed)
 10600                           ; jumptable            260     6 (fixed)
 10601                           ;	Chosen strategy is simple_byte
 10602  0AA3  082B               	movf	??_change_password+1,w
 10603  0AA4  3A00               	xorlw	0	; case 0
 10604  0AA5  1903               	skipnz
 10605  0AA6  2AA8               	goto	l5635
 10606  0AA7  2AB0               	goto	l5135
 10607  0AA8                     l5635:
 10608                           
 10609                           ; Switch size 1, requested type "simple"
 10610                           ; Number of cases is 2, Range of values is 47 to 55
 10611                           ; switch strategies available:
 10612                           ; Name         Instructions Cycles
 10613                           ; simple_byte            7     4 (average)
 10614                           ; direct_byte           38    11 (fixed)
 10615                           ; jumptable            263     9 (fixed)
 10616                           ;	Chosen strategy is simple_byte
 10617  0AA8  082A               	movf	??_change_password,w
 10618  0AA9  3A2F               	xorlw	47	; case 47
 10619  0AAA  1903               	skipnz
 10620  0AAB  2A34               	goto	l5107
 10621  0AAC  3A18               	xorlw	24	; case 55
 10622  0AAD  1903               	skipnz
 10623  0AAE  2A69               	goto	l5119
 10624  0AAF  2AB0               	goto	l5135
 10625  0AB0                     l5135:
 10626                           
 10627                           ;display.c: 519:    ext_eeprom_24C02_str_write( 0x00, &r_pwd[4]);
 10628  0AB0  3008               	movlw	8
 10629  0AB1  1283               	bcf	3,5	;RP0=0, select bank0
 10630  0AB2  1303               	bcf	3,6	;RP1=0, select bank0
 10631  0AB3  064D               	xorwf	change_password@n_p_pos,w
 10632  0AB4  044E               	iorwf	change_password@n_p_pos+1,w
 10633  0AB5  1D03               	btfss	3,2
 10634  0AB6  2AB8               	goto	u4871
 10635  0AB7  2AB9               	goto	u4870
 10636  0AB8                     u4871:
 10637  0AB8  29E7               	goto	l5093
 10638  0AB9                     u4870:
 10639  0AB9                     l5137:
 10640                           
 10641                           ;display.c: 520:    n_p_pos++;;display.c: 521:    clcd_write(0x01,0);
 10642  0AB9  30B5               	movlw	(low ((change_password@r_pwd| 0+4)))& (0+255)
 10643  0ABA  00AA               	movwf	??_change_password
 10644  0ABB  082A               	movf	??_change_password,w
 10645  0ABC  00F3               	movwf	strncmp@s2
 10646  0ABD  3004               	movlw	4
 10647  0ABE  00F4               	movwf	strncmp@len
 10648  0ABF  3000               	movlw	0
 10649  0AC0  00F5               	movwf	strncmp@len+1
 10650  0AC1  30B1               	movlw	(low (change_password@r_pwd| 0))& (0+255)
 10651  0AC2  160A  118A  2359  120A  158A  	fcall	_strncmp
 10652  0AC7  0873               	movf	?_strncmp,w
 10653  0AC8  0474               	iorwf	?_strncmp+1,w
 10654  0AC9  1D03               	btfss	3,2
 10655  0ACA  2ACC               	goto	u4881
 10656  0ACB  2ACD               	goto	u4880
 10657  0ACC                     u4881:
 10658  0ACC  2B0F               	goto	l5159
 10659  0ACD                     u4880:
 10660  0ACD                     l5139:
 10661                           
 10662                           ;display.c: 522:    clcd_print("Password changed",(0x80 + 0));;display.c: 524:    p_chg 
      +                          = 1;
 10663  0ACD  1683               	bsf	3,5	;RP0=1, select bank1
 10664  0ACE  1303               	bcf	3,6	;RP1=0, select bank1
 10665  0ACF  01B9               	clrf	(change_password@r_pwd^(0+128)+8)
 10666  0AD0                     l5141:
 10667                           
 10668                           ;display.c: 525:    return 0x11;
 10669  0AD0  30B5               	movlw	(low ((change_password@r_pwd| 0+4)))& (0+255)
 10670  0AD1  1283               	bcf	3,5	;RP0=0, select bank0
 10671  0AD2  1303               	bcf	3,6	;RP1=0, select bank0
 10672  0AD3  00AA               	movwf	??_change_password
 10673  0AD4  082A               	movf	??_change_password,w
 10674  0AD5  00F6               	movwf	ext_eeprom_24C02_str_write@data
 10675  0AD6  3000               	movlw	0
 10676  0AD7  160A  158A  2720  120A  158A  	fcall	_ext_eeprom_24C02_str_write
 10677  0ADC                     l5143:
 10678                           
 10679                           ;display.c: 526:   }
 10680  0ADC  3001               	movlw	1
 10681  0ADD  1283               	bcf	3,5	;RP0=0, select bank0
 10682  0ADE  1303               	bcf	3,6	;RP1=0, select bank0
 10683  0ADF  07CD               	addwf	change_password@n_p_pos,f
 10684  0AE0  1803               	skipnc
 10685  0AE1  0ACE               	incf	change_password@n_p_pos+1,f
 10686  0AE2  3000               	movlw	0
 10687  0AE3  07CE               	addwf	change_password@n_p_pos+1,f
 10688  0AE4                     l5145:
 10689                           
 10690                           ;display.c: 527:   else
 10691  0AE4  01F3               	clrf	clcd_write@mode
 10692  0AE5  3001               	movlw	1
 10693  0AE6  160A  118A  2277  120A  158A  	fcall	_clcd_write
 10694  0AEB                     l5147:
 10695                           
 10696                           ;display.c: 528:   {
 10697  0AEB  308F               	movlw	low (STR_30| (0+32768))
 10698  0AEC  1283               	bcf	3,5	;RP0=0, select bank0
 10699  0AED  1303               	bcf	3,6	;RP1=0, select bank0
 10700  0AEE  00A0               	movwf	clcd_print@str
 10701  0AEF  3090               	movlw	high (STR_30| (0+32768))
 10702  0AF0  00A1               	movwf	clcd_print@str+1
 10703  0AF1  3080               	movlw	128
 10704  0AF2  00AA               	movwf	??_change_password
 10705  0AF3  082A               	movf	??_change_password,w
 10706  0AF4  00A2               	movwf	clcd_print@addr
 10707  0AF5  160A  118A  2210  120A  158A  	fcall	_clcd_print
 10708  0AFA                     l5149:
 10709                           
 10710                           ;display.c: 529: 
 10711  0AFA  300F               	movlw	low (STR_31| (0+32768))
 10712  0AFB  1283               	bcf	3,5	;RP0=0, select bank0
 10713  0AFC  1303               	bcf	3,6	;RP1=0, select bank0
 10714  0AFD  00A0               	movwf	clcd_print@str
 10715  0AFE  3091               	movlw	high (STR_31| (0+32768))
 10716  0AFF  00A1               	movwf	clcd_print@str+1
 10717  0B00  30C2               	movlw	194
 10718  0B01  00AA               	movwf	??_change_password
 10719  0B02  082A               	movf	??_change_password,w
 10720  0B03  00A2               	movwf	clcd_print@addr
 10721  0B04  160A  118A  2210  120A  158A  	fcall	_clcd_print
 10722  0B09                     l5151:
 10723                           
 10724                           ;display.c: 530:    clcd_write(0x01,0);
 10725  0B09  1283               	bcf	3,5	;RP0=0, select bank0
 10726  0B0A  1303               	bcf	3,6	;RP1=0, select bank0
 10727  0B0B  01D9               	clrf	change_password@p_chg
 10728  0B0C  0AD9               	incf	change_password@p_chg,f
 10729  0B0D                     l5153:
 10730                           
 10731                           ;display.c: 531:    clcd_print ( "Password  change" , (0x80 + 0));
 10732  0B0D  3011               	movlw	17
 10733  0B0E  2B35               	goto	l267
 10734  0B0F                     l5159:
 10735                           
 10736                           ;display.c: 534:    return 0x11;;display.c: 536:  }
 10737  0B0F  01F3               	clrf	clcd_write@mode
 10738  0B10  3001               	movlw	1
 10739  0B11  160A  118A  2277  120A  158A  	fcall	_clcd_write
 10740  0B16                     l5161:
 10741                           
 10742                           ;display.c: 537: 
 10743  0B16  30A0               	movlw	low (STR_32| (0+32768))
 10744  0B17  1283               	bcf	3,5	;RP0=0, select bank0
 10745  0B18  1303               	bcf	3,6	;RP1=0, select bank0
 10746  0B19  00A0               	movwf	clcd_print@str
 10747  0B1A  3090               	movlw	high (STR_32| (0+32768))
 10748  0B1B  00A1               	movwf	clcd_print@str+1
 10749  0B1C  3080               	movlw	128
 10750  0B1D  00AA               	movwf	??_change_password
 10751  0B1E  082A               	movf	??_change_password,w
 10752  0B1F  00A2               	movwf	clcd_print@addr
 10753  0B20  160A  118A  2210  120A  158A  	fcall	_clcd_print
 10754  0B25                     l5163:
 10755                           
 10756                           ;display.c: 538:  return 0x22;
 10757  0B25  3075               	movlw	low (STR_33| (0+32768))
 10758  0B26  1283               	bcf	3,5	;RP0=0, select bank0
 10759  0B27  1303               	bcf	3,6	;RP1=0, select bank0
 10760  0B28  00A0               	movwf	clcd_print@str
 10761  0B29  3091               	movlw	high (STR_33| (0+32768))
 10762  0B2A  00A1               	movwf	clcd_print@str+1
 10763  0B2B  30C5               	movlw	197
 10764  0B2C  00AA               	movwf	??_change_password
 10765  0B2D  082A               	movf	??_change_password,w
 10766  0B2E  00A2               	movwf	clcd_print@addr
 10767  0B2F  160A  118A  2210  120A  158A  	fcall	_clcd_print
 10768  0B34  2B09               	goto	l5151
 10769  0B35                     l267:
 10770  0B35  0008               	return
 10771  0B36                     __end_of_change_password:
 10772                           
 10773                           	psect	text41
 10774  1422                     __ptext41:	
 10775 ;; *************** function _strncpy *****************
 10776 ;; Defined at:
 10777 ;;		line 8 in file "C:\Program Files\Microchip\xc8\v2.36\pic\sources\c90\common\strncpy.c"
 10778 ;; Parameters:    Size  Location     Type
 10779 ;;  to              1    wreg     PTR unsigned char 
 10780 ;;		 -> change_password@r_pwd(9), log(11), 
 10781 ;;  from            2    3[COMMON] PTR const unsigned char 
 10782 ;;		 -> STR_46(3), STR_45(3), STR_44(3), STR_43(3), 
 10783 ;;		 -> main@event(3), STR_25(5), time(7), 
 10784 ;;  size            2    5[COMMON] unsigned int 
 10785 ;; Auto vars:     Size  Location     Type
 10786 ;;  to              1    7[COMMON] PTR unsigned char 
 10787 ;;		 -> change_password@r_pwd(9), log(11), 
 10788 ;;  cp              1    8[COMMON] PTR unsigned char 
 10789 ;;		 -> change_password@r_pwd(9), log(11), 
 10790 ;; Return value:  Size  Location     Type
 10791 ;;                  1    wreg      PTR unsigned char 
 10792 ;; Registers used:
 10793 ;;		wreg, fsr0l, fsr0h, status,2, status,0, btemp+1, pclath
 10794 ;; Tracked objects:
 10795 ;;		On entry : 0/0
 10796 ;;		On exit  : 0/0
 10797 ;;		Unchanged: 0/0
 10798 ;; Data sizes:     COMMON   BANK0   BANK1   BANK3   BANK2
 10799 ;;      Params:         4       0       0       0       0
 10800 ;;      Locals:         2       0       0       0       0
 10801 ;;      Temps:          0       3       0       0       0
 10802 ;;      Totals:         6       3       0       0       0
 10803 ;;Total ram usage:        9 bytes
 10804 ;; Hardware stack levels used: 2
 10805 ;; Hardware stack levels required when called: 1
 10806 ;; This function calls:
 10807 ;;		Nothing
 10808 ;; This function is called by:
 10809 ;;		_log_car_event
 10810 ;;		_change_password
 10811 ;; This function uses a non-reentrant model
 10812 ;;
 10813                           
 10814  1422                     _strncpy:	
 10815                           ;psect for function _strncpy
 10816                           
 10817                           
 10818                           ;incstack = 0
 10819                           ; Regs used in _strncpy: [wreg-fsr0h+status,2+status,0+btemp+1+pclath]
 10820                           ;strncpy@to stored from wreg
 10821  1422  00F7               	movwf	strncpy@to
 10822  1423                     l4359:
 10823  1423  0877               	movf	strncpy@to,w
 10824  1424  1283               	bcf	3,5	;RP0=0, select bank0
 10825  1425  1303               	bcf	3,6	;RP1=0, select bank0
 10826  1426  00A0               	movwf	??_strncpy
 10827  1427  0820               	movf	??_strncpy,w
 10828  1428  00F8               	movwf	strncpy@cp
 10829  1429  2C4E               	goto	l4367
 10830  142A                     l4361:
 10831  142A  3001               	movlw	1
 10832  142B  02F5               	subwf	strncpy@size,f
 10833  142C  3000               	movlw	0
 10834  142D  1C03               	skipc
 10835  142E  03F6               	decf	strncpy@size+1,f
 10836  142F  02F6               	subwf	strncpy@size+1,f
 10837  1430                     l4363:
 10838  1430  0874               	movf	strncpy@from+1,w
 10839  1431  00A1               	movwf	??_strncpy+1
 10840  1432  0873               	movf	strncpy@from,w
 10841  1433  00A0               	movwf	??_strncpy
 10842  1434  0AF3               	incf	strncpy@from,f
 10843  1435  1903               	skipnz
 10844  1436  0AF4               	incf	strncpy@from+1,f
 10845  1437  0821               	movf	??_strncpy+1,w
 10846  1438  00FF               	movwf	btemp+1
 10847  1439  0820               	movf	??_strncpy,w
 10848  143A  0084               	movwf	4
 10849  143B  160A  158A  2000  160A  118A  	fcall	stringtab
 10850  1440  00A2               	movwf	??_strncpy+2
 10851  1441  0878               	movf	strncpy@cp,w
 10852  1442  0084               	movwf	4
 10853  1443  3001               	movlw	1
 10854  1444  07F8               	addwf	strncpy@cp,f
 10855  1445  0822               	movf	??_strncpy+2,w
 10856  1446  1383               	bcf	3,7	;select IRP bank0
 10857  1447  0080               	movwf	0
 10858  1448  0800               	movf	0,w
 10859  1449  1D03               	btfss	3,2
 10860  144A  2C4C               	goto	u3681
 10861  144B  2C4D               	goto	u3680
 10862  144C                     u3681:
 10863  144C  2C4E               	goto	l4367
 10864  144D                     u3680:
 10865  144D  2C5D               	goto	l4373
 10866  144E                     l4367:
 10867  144E  0875               	movf	strncpy@size,w
 10868  144F  0476               	iorwf	strncpy@size+1,w
 10869  1450  1D03               	btfss	3,2
 10870  1451  2C53               	goto	u3691
 10871  1452  2C54               	goto	u3690
 10872  1453                     u3691:
 10873  1453  2C2A               	goto	l4361
 10874  1454                     u3690:
 10875  1454  2C5D               	goto	l4373
 10876  1455                     l4369:
 10877  1455  0878               	movf	strncpy@cp,w
 10878  1456  0084               	movwf	4
 10879  1457  1383               	bcf	3,7	;select IRP bank0
 10880  1458  0180               	clrf	0
 10881  1459                     l4371:
 10882  1459  3001               	movlw	1
 10883  145A  00A0               	movwf	??_strncpy
 10884  145B  0820               	movf	??_strncpy,w
 10885  145C  07F8               	addwf	strncpy@cp,f
 10886  145D                     l4373:
 10887  145D  3001               	movlw	1
 10888  145E  02F5               	subwf	strncpy@size,f
 10889  145F  3000               	movlw	0
 10890  1460  1C03               	skipc
 10891  1461  03F6               	decf	strncpy@size+1,f
 10892  1462  02F6               	subwf	strncpy@size+1,f
 10893  1463  0A75               	incf	strncpy@size,w
 10894  1464  1D03               	skipz
 10895  1465  2C6A               	goto	u3701
 10896  1466  0A76               	incf	strncpy@size+1,w
 10897  1467  1D03               	btfss	3,2
 10898  1468  2C6A               	goto	u3701
 10899  1469  2C6B               	goto	u3700
 10900  146A                     u3701:
 10901  146A  2C55               	goto	l4369
 10902  146B                     u3700:
 10903  146B                     l1123:
 10904  146B  0008               	return
 10905  146C                     __end_of_strncpy:
 10906                           
 10907                           	psect	text42
 10908  1359                     __ptext42:	
 10909 ;; *************** function _strncmp *****************
 10910 ;; Defined at:
 10911 ;;		line 4 in file "C:\Program Files\Microchip\xc8\v2.36\pic\sources\c90\common\strncmp.c"
 10912 ;; Parameters:    Size  Location     Type
 10913 ;;  s1              1    wreg     PTR const unsigned char 
 10914 ;;		 -> change_password@r_pwd(9), 
 10915 ;;  s2              1    3[COMMON] PTR const unsigned char 
 10916 ;;		 -> change_password@r_pwd(9), 
 10917 ;;  len             2    4[COMMON] unsigned int 
 10918 ;; Auto vars:     Size  Location     Type
 10919 ;;  s1              1    8[COMMON] PTR const unsigned char 
 10920 ;;		 -> change_password@r_pwd(9), 
 10921 ;; Return value:  Size  Location     Type
 10922 ;;                  2    3[COMMON] int 
 10923 ;; Registers used:
 10924 ;;		wreg, fsr0l, fsr0h, status,2, status,0
 10925 ;; Tracked objects:
 10926 ;;		On entry : 0/0
 10927 ;;		On exit  : 0/0
 10928 ;;		Unchanged: 0/0
 10929 ;; Data sizes:     COMMON   BANK0   BANK1   BANK3   BANK2
 10930 ;;      Params:         3       0       0       0       0
 10931 ;;      Locals:         1       0       0       0       0
 10932 ;;      Temps:          2       0       0       0       0
 10933 ;;      Totals:         6       0       0       0       0
 10934 ;;Total ram usage:        6 bytes
 10935 ;; Hardware stack levels used: 1
 10936 ;; Hardware stack levels required when called: 1
 10937 ;; This function calls:
 10938 ;;		Nothing
 10939 ;; This function is called by:
 10940 ;;		_change_password
 10941 ;; This function uses a non-reentrant model
 10942 ;;
 10943                           
 10944  1359                     _strncmp:	
 10945                           ;psect for function _strncmp
 10946                           
 10947                           
 10948                           ;incstack = 0
 10949                           ; Regs used in _strncmp: [wreg-fsr0h+status,2+status,0]
 10950                           ;strncmp@s1 stored from wreg
 10951  1359  00F8               	movwf	strncmp@s1
 10952  135A                     l4409:
 10953  135A  2B86               	goto	l1107
 10954  135B                     l4411:
 10955  135B  0878               	movf	strncmp@s1,w
 10956  135C  0084               	movwf	4
 10957  135D  1383               	bcf	3,7	;select IRP bank0
 10958  135E  0800               	movf	0,w
 10959  135F  1903               	btfsc	3,2
 10960  1360  2B62               	goto	u3751
 10961  1361  2B63               	goto	u3750
 10962  1362                     u3751:
 10963  1362  2B6F               	goto	l4415
 10964  1363                     u3750:
 10965  1363                     l4413:
 10966  1363  0873               	movf	strncmp@s2,w
 10967  1364  0084               	movwf	4
 10968  1365  0800               	movf	0,w
 10969  1366  00F6               	movwf	??_strncmp
 10970  1367  0878               	movf	strncmp@s1,w
 10971  1368  0084               	movwf	4
 10972  1369  0800               	movf	0,w
 10973  136A  0676               	xorwf	??_strncmp,w
 10974  136B  1903               	skipnz
 10975  136C  2B6E               	goto	u3761
 10976  136D  2B6F               	goto	u3760
 10977  136E                     u3761:
 10978  136E  2B7E               	goto	l4419
 10979  136F                     u3760:
 10980  136F                     l4415:
 10981  136F  0873               	movf	strncmp@s2,w
 10982  1370  0084               	movwf	4
 10983  1371  0800               	movf	0,w
 10984  1372  00F6               	movwf	??_strncmp
 10985  1373  0878               	movf	strncmp@s1,w
 10986  1374  0084               	movwf	4
 10987  1375  0800               	movf	0,w
 10988  1376  00F7               	movwf	??_strncmp+1
 10989  1377  0876               	movf	??_strncmp,w
 10990  1378  0277               	subwf	??_strncmp+1,w
 10991  1379  00F3               	movwf	?_strncmp
 10992  137A  01F4               	clrf	?_strncmp+1
 10993  137B  1C03               	skipc
 10994  137C  03F4               	decf	?_strncmp+1,f
 10995  137D  2B96               	goto	l1112
 10996  137E                     l4419:
 10997  137E  3001               	movlw	1
 10998  137F  00F6               	movwf	??_strncmp
 10999  1380  0876               	movf	??_strncmp,w
 11000  1381  07F8               	addwf	strncmp@s1,f
 11001  1382  3001               	movlw	1
 11002  1383  00F6               	movwf	??_strncmp
 11003  1384  0876               	movf	??_strncmp,w
 11004  1385  07F3               	addwf	strncmp@s2,f
 11005  1386                     l1107:
 11006  1386  3001               	movlw	1
 11007  1387  02F4               	subwf	strncmp@len,f
 11008  1388  3000               	movlw	0
 11009  1389  1C03               	skipc
 11010  138A  03F5               	decf	strncmp@len+1,f
 11011  138B  02F5               	subwf	strncmp@len+1,f
 11012  138C  0A74               	incf	strncmp@len,w
 11013  138D  1D03               	skipz
 11014  138E  2B93               	goto	u3771
 11015  138F  0A75               	incf	strncmp@len+1,w
 11016  1390  1D03               	btfss	3,2
 11017  1391  2B93               	goto	u3771
 11018  1392  2B94               	goto	u3770
 11019  1393                     u3771:
 11020  1393  2B5B               	goto	l4411
 11021  1394                     u3770:
 11022  1394                     l4421:
 11023  1394  01F3               	clrf	?_strncmp
 11024  1395  01F4               	clrf	?_strncmp+1
 11025  1396                     l1112:
 11026  1396  0008               	return
 11027  1397                     __end_of_strncmp:
 11028                           
 11029                           	psect	text43
 11030  1F20                     __ptext43:	
 11031 ;; *************** function _ext_eeprom_24C02_str_write *****************
 11032 ;; Defined at:
 11033 ;;		line 52 in file "eeprom.c"
 11034 ;; Parameters:    Size  Location     Type
 11035 ;;  addr            1    wreg     unsigned char 
 11036 ;;  data            1    6[COMMON] PTR unsigned char 
 11037 ;;		 -> change_password@r_pwd(9), log(11), 
 11038 ;; Auto vars:     Size  Location     Type
 11039 ;;  addr            1    8[COMMON] unsigned char 
 11040 ;; Return value:  Size  Location     Type
 11041 ;;                  1    wreg      void 
 11042 ;; Registers used:
 11043 ;;		wreg, fsr0l, fsr0h, status,2, status,0, pclath, cstack
 11044 ;; Tracked objects:
 11045 ;;		On entry : 0/0
 11046 ;;		On exit  : 0/0
 11047 ;;		Unchanged: 0/0
 11048 ;; Data sizes:     COMMON   BANK0   BANK1   BANK3   BANK2
 11049 ;;      Params:         1       0       0       0       0
 11050 ;;      Locals:         1       0       0       0       0
 11051 ;;      Temps:          1       0       0       0       0
 11052 ;;      Totals:         3       0       0       0       0
 11053 ;;Total ram usage:        3 bytes
 11054 ;; Hardware stack levels used: 1
 11055 ;; Hardware stack levels required when called: 4
 11056 ;; This function calls:
 11057 ;;		_ext_eeprom_24C02_byte_write
 11058 ;; This function is called by:
 11059 ;;		_log_event
 11060 ;;		_change_password
 11061 ;; This function uses a non-reentrant model
 11062 ;;
 11063                           
 11064  1F20                     _ext_eeprom_24C02_str_write:	
 11065                           ;psect for function _ext_eeprom_24C02_str_write
 11066                           
 11067                           
 11068                           ;incstack = 0
 11069                           ; Regs used in _ext_eeprom_24C02_str_write: [wreg-fsr0h+status,2+status,0+pclath+cstack]
 11070                           ;ext_eeprom_24C02_str_write@addr stored from wreg
 11071  1F20  00F8               	movwf	ext_eeprom_24C02_str_write@addr
 11072  1F21                     l4265:
 11073                           
 11074                           ;eeprom.c: 52:  }
 11075  1F21  2F36               	goto	l4273
 11076  1F22                     l4267:
 11077  1F22  0876               	movf	ext_eeprom_24C02_str_write@data,w
 11078  1F23  0084               	movwf	4
 11079  1F24  0800               	movf	0,w
 11080  1F25  00F7               	movwf	??_ext_eeprom_24C02_str_write
 11081  1F26  0877               	movf	??_ext_eeprom_24C02_str_write,w
 11082  1F27  00F4               	movwf	ext_eeprom_24C02_byte_write@data
 11083  1F28  0878               	movf	ext_eeprom_24C02_str_write@addr,w
 11084  1F29  160A  158A  26E4  160A  158A  	fcall	_ext_eeprom_24C02_byte_write
 11085  1F2E                     l4269:
 11086  1F2E  3001               	movlw	1
 11087  1F2F  00F7               	movwf	??_ext_eeprom_24C02_str_write
 11088  1F30  0877               	movf	??_ext_eeprom_24C02_str_write,w
 11089  1F31  07F6               	addwf	ext_eeprom_24C02_str_write@data,f
 11090  1F32                     l4271:
 11091  1F32  3001               	movlw	1
 11092  1F33  00F7               	movwf	??_ext_eeprom_24C02_str_write
 11093  1F34  0877               	movf	??_ext_eeprom_24C02_str_write,w
 11094  1F35  07F8               	addwf	ext_eeprom_24C02_str_write@addr,f
 11095  1F36                     l4273:
 11096  1F36  0876               	movf	ext_eeprom_24C02_str_write@data,w
 11097  1F37  0084               	movwf	4
 11098  1F38  1383               	bcf	3,7	;select IRP bank0
 11099  1F39  0800               	movf	0,w
 11100  1F3A  1D03               	btfss	3,2
 11101  1F3B  2F3D               	goto	u3541
 11102  1F3C  2F3E               	goto	u3540
 11103  1F3D                     u3541:
 11104  1F3D  2F22               	goto	l4267
 11105  1F3E                     u3540:
 11106  1F3E                     l445:
 11107  1F3E  0008               	return
 11108  1F3F                     __end_of_ext_eeprom_24C02_str_write:
 11109                           
 11110                           	psect	text44
 11111  1EE4                     __ptext44:	
 11112 ;; *************** function _ext_eeprom_24C02_byte_write *****************
 11113 ;; Defined at:
 11114 ;;		line 35 in file "eeprom.c"
 11115 ;; Parameters:    Size  Location     Type
 11116 ;;  addr            1    wreg     unsigned char 
 11117 ;;  data            1    4[COMMON] unsigned char 
 11118 ;; Auto vars:     Size  Location     Type
 11119 ;;  addr            1    5[COMMON] unsigned char 
 11120 ;; Return value:  Size  Location     Type
 11121 ;;                  1    wreg      void 
 11122 ;; Registers used:
 11123 ;;		wreg, status,2, status,0, pclath, cstack
 11124 ;; Tracked objects:
 11125 ;;		On entry : 0/0
 11126 ;;		On exit  : 0/0
 11127 ;;		Unchanged: 0/0
 11128 ;; Data sizes:     COMMON   BANK0   BANK1   BANK3   BANK2
 11129 ;;      Params:         1       0       0       0       0
 11130 ;;      Locals:         1       0       0       0       0
 11131 ;;      Temps:          0       0       0       0       0
 11132 ;;      Totals:         2       0       0       0       0
 11133 ;;Total ram usage:        2 bytes
 11134 ;; Hardware stack levels used: 1
 11135 ;; Hardware stack levels required when called: 3
 11136 ;; This function calls:
 11137 ;;		_i2c_start
 11138 ;;		_i2c_stop
 11139 ;;		_i2c_write
 11140 ;; This function is called by:
 11141 ;;		_main
 11142 ;;		_ext_eeprom_24C02_str_write
 11143 ;; This function uses a non-reentrant model
 11144 ;;
 11145                           
 11146  1EE4                     _ext_eeprom_24C02_byte_write:	
 11147                           ;psect for function _ext_eeprom_24C02_byte_write
 11148                           
 11149                           
 11150                           ;incstack = 0
 11151                           ; Regs used in _ext_eeprom_24C02_byte_write: [wreg+status,2+status,0+pclath+cstack]
 11152                           ;ext_eeprom_24C02_byte_write@addr stored from wreg
 11153  1EE4  00F5               	movwf	ext_eeprom_24C02_byte_write@addr
 11154  1EE5                     l4219:
 11155                           
 11156                           ;eeprom.c: 35: ;eeprom.c: 36:     i2c_write(addr);;eeprom.c: 38: 
 11157  1EE5  160A  158A  2620  160A  158A  	fcall	_i2c_start
 11158                           
 11159                           ;eeprom.c: 41: 
 11160  1EEA  30A0               	movlw	160
 11161  1EEB  160A  158A  263B  160A  158A  	fcall	_i2c_write
 11162                           
 11163                           ;eeprom.c: 44: void ext_eeprom_24C02_str_write(unsigned char addr , char *data)
 11164  1EF0  0875               	movf	ext_eeprom_24C02_byte_write@addr,w
 11165  1EF1  160A  158A  263B  160A  158A  	fcall	_i2c_write
 11166                           
 11167                           ;eeprom.c: 47:     {
 11168  1EF6  0874               	movf	ext_eeprom_24C02_byte_write@data,w
 11169  1EF7  160A  158A  263B  160A  158A  	fcall	_i2c_write
 11170                           
 11171                           ;eeprom.c: 50:         addr++;
 11172  1EFC  160A  158A  2629  160A  158A  	fcall	_i2c_stop
 11173  1F01                     l439:
 11174  1F01  0008               	return
 11175  1F02                     __end_of_ext_eeprom_24C02_byte_write:
 11176                           
 11177                           	psect	text45
 11178  1E3B                     __ptext45:	
 11179 ;; *************** function _i2c_write *****************
 11180 ;; Defined at:
 11181 ;;		line 66 in file "i2c.c"
 11182 ;; Parameters:    Size  Location     Type
 11183 ;;  data            1    wreg     unsigned char 
 11184 ;; Auto vars:     Size  Location     Type
 11185 ;;  data            1    3[COMMON] unsigned char 
 11186 ;; Return value:  Size  Location     Type
 11187 ;;                  2  408[None  ] int 
 11188 ;; Registers used:
 11189 ;;		wreg, status,2, status,0, pclath, cstack
 11190 ;; Tracked objects:
 11191 ;;		On entry : 0/0
 11192 ;;		On exit  : 0/0
 11193 ;;		Unchanged: 0/0
 11194 ;; Data sizes:     COMMON   BANK0   BANK1   BANK3   BANK2
 11195 ;;      Params:         0       0       0       0       0
 11196 ;;      Locals:         1       0       0       0       0
 11197 ;;      Temps:          0       0       0       0       0
 11198 ;;      Totals:         1       0       0       0       0
 11199 ;;Total ram usage:        1 bytes
 11200 ;; Hardware stack levels used: 1
 11201 ;; Hardware stack levels required when called: 2
 11202 ;; This function calls:
 11203 ;;		_i2c_wait_for_idle
 11204 ;; This function is called by:
 11205 ;;		_read_ds1307
 11206 ;;		_write_ds1307
 11207 ;;		_ext_eeprom_24C02_read
 11208 ;;		_ext_eeprom_24C02_byte_write
 11209 ;; This function uses a non-reentrant model
 11210 ;;
 11211                           
 11212  1E3B                     _i2c_write:	
 11213                           ;psect for function _i2c_write
 11214                           
 11215                           
 11216                           ;incstack = 0
 11217                           ; Regs used in _i2c_write: [wreg+status,2+status,0+pclath+cstack]
 11218                           ;i2c_write@data stored from wreg
 11219  1E3B  00F3               	movwf	i2c_write@data
 11220  1E3C                     l4163:
 11221                           
 11222                           ;i2c.c: 66: int i2c_write(unsigned char data);i2c.c: 67: {;i2c.c: 68:     i2c_wait_for_i
      +                          dle();
 11223  1E3C  160A  158A  265C  160A  158A  	fcall	_i2c_wait_for_idle
 11224  1E41                     l4165:
 11225                           
 11226                           ;i2c.c: 69:     SSPBUF = data;
 11227  1E41  0873               	movf	i2c_write@data,w
 11228  1E42  1283               	bcf	3,5	;RP0=0, select bank0
 11229  1E43  1303               	bcf	3,6	;RP1=0, select bank0
 11230  1E44  0093               	movwf	19	;volatile
 11231  1E45                     l4167:
 11232  1E45                     l497:	
 11233                           ;i2c.c: 71:     return !ACKSTAT;;	Return value of _i2c_write is never used
 11234                           
 11235  1E45  0008               	return
 11236  1E46                     __end_of_i2c_write:
 11237                           
 11238                           	psect	text46
 11239  1E29                     __ptext46:	
 11240 ;; *************** function _i2c_stop *****************
 11241 ;; Defined at:
 11242 ;;		line 36 in file "i2c.c"
 11243 ;; Parameters:    Size  Location     Type
 11244 ;;		None
 11245 ;; Auto vars:     Size  Location     Type
 11246 ;;		None
 11247 ;; Return value:  Size  Location     Type
 11248 ;;                  1    wreg      void 
 11249 ;; Registers used:
 11250 ;;		wreg, status,2, status,0, pclath, cstack
 11251 ;; Tracked objects:
 11252 ;;		On entry : 0/0
 11253 ;;		On exit  : 0/0
 11254 ;;		Unchanged: 0/0
 11255 ;; Data sizes:     COMMON   BANK0   BANK1   BANK3   BANK2
 11256 ;;      Params:         0       0       0       0       0
 11257 ;;      Locals:         0       0       0       0       0
 11258 ;;      Temps:          0       0       0       0       0
 11259 ;;      Totals:         0       0       0       0       0
 11260 ;;Total ram usage:        0 bytes
 11261 ;; Hardware stack levels used: 1
 11262 ;; Hardware stack levels required when called: 2
 11263 ;; This function calls:
 11264 ;;		_i2c_wait_for_idle
 11265 ;; This function is called by:
 11266 ;;		_read_ds1307
 11267 ;;		_write_ds1307
 11268 ;;		_ext_eeprom_24C02_read
 11269 ;;		_ext_eeprom_24C02_byte_write
 11270 ;; This function uses a non-reentrant model
 11271 ;;
 11272                           
 11273  1E29                     _i2c_stop:	
 11274                           ;psect for function _i2c_stop
 11275                           
 11276  1E29                     l4189:	
 11277                           ;incstack = 0
 11278                           ; Regs used in _i2c_stop: [wreg+status,2+status,0+pclath+cstack]
 11279                           
 11280                           
 11281                           ;i2c.c: 38:     i2c_wait_for_idle();
 11282  1E29  160A  158A  265C  160A  158A  	fcall	_i2c_wait_for_idle
 11283  1E2E                     l4191:
 11284                           
 11285                           ;i2c.c: 39:     PEN = 1;
 11286  1E2E  1683               	bsf	3,5	;RP0=1, select bank1
 11287  1E2F  1303               	bcf	3,6	;RP1=0, select bank1
 11288  1E30  1511               	bsf	17,2	;volatile
 11289  1E31                     l489:
 11290  1E31  0008               	return
 11291  1E32                     __end_of_i2c_stop:
 11292                           
 11293                           	psect	text47
 11294  1E20                     __ptext47:	
 11295 ;; *************** function _i2c_start *****************
 11296 ;; Defined at:
 11297 ;;		line 24 in file "i2c.c"
 11298 ;; Parameters:    Size  Location     Type
 11299 ;;		None
 11300 ;; Auto vars:     Size  Location     Type
 11301 ;;		None
 11302 ;; Return value:  Size  Location     Type
 11303 ;;                  1    wreg      void 
 11304 ;; Registers used:
 11305 ;;		wreg, status,2, status,0, pclath, cstack
 11306 ;; Tracked objects:
 11307 ;;		On entry : 0/0
 11308 ;;		On exit  : 0/0
 11309 ;;		Unchanged: 0/0
 11310 ;; Data sizes:     COMMON   BANK0   BANK1   BANK3   BANK2
 11311 ;;      Params:         0       0       0       0       0
 11312 ;;      Locals:         0       0       0       0       0
 11313 ;;      Temps:          0       0       0       0       0
 11314 ;;      Totals:         0       0       0       0       0
 11315 ;;Total ram usage:        0 bytes
 11316 ;; Hardware stack levels used: 1
 11317 ;; Hardware stack levels required when called: 2
 11318 ;; This function calls:
 11319 ;;		_i2c_wait_for_idle
 11320 ;; This function is called by:
 11321 ;;		_read_ds1307
 11322 ;;		_write_ds1307
 11323 ;;		_ext_eeprom_24C02_read
 11324 ;;		_ext_eeprom_24C02_byte_write
 11325 ;; This function uses a non-reentrant model
 11326 ;;
 11327                           
 11328  1E20                     _i2c_start:	
 11329                           ;psect for function _i2c_start
 11330                           
 11331  1E20                     l4159:	
 11332                           ;incstack = 0
 11333                           ; Regs used in _i2c_start: [wreg+status,2+status,0+pclath+cstack]
 11334                           
 11335                           
 11336                           ;i2c.c: 26:     i2c_wait_for_idle();
 11337  1E20  160A  158A  265C  160A  158A  	fcall	_i2c_wait_for_idle
 11338  1E25                     l4161:
 11339                           
 11340                           ;i2c.c: 27:     SEN = 1;
 11341  1E25  1683               	bsf	3,5	;RP0=1, select bank1
 11342  1E26  1303               	bcf	3,6	;RP1=0, select bank1
 11343  1E27  1411               	bsf	17,0	;volatile
 11344  1E28                     l483:
 11345  1E28  0008               	return
 11346  1E29                     __end_of_i2c_start:
 11347                           
 11348                           	psect	text48
 11349  1E5C                     __ptext48:	
 11350 ;; *************** function _i2c_wait_for_idle *****************
 11351 ;; Defined at:
 11352 ;;		line 18 in file "i2c.c"
 11353 ;; Parameters:    Size  Location     Type
 11354 ;;		None
 11355 ;; Auto vars:     Size  Location     Type
 11356 ;;		None
 11357 ;; Return value:  Size  Location     Type
 11358 ;;                  1    wreg      void 
 11359 ;; Registers used:
 11360 ;;		wreg, status,2
 11361 ;; Tracked objects:
 11362 ;;		On entry : 0/0
 11363 ;;		On exit  : 0/0
 11364 ;;		Unchanged: 0/0
 11365 ;; Data sizes:     COMMON   BANK0   BANK1   BANK3   BANK2
 11366 ;;      Params:         0       0       0       0       0
 11367 ;;      Locals:         0       0       0       0       0
 11368 ;;      Temps:          0       0       0       0       0
 11369 ;;      Totals:         0       0       0       0       0
 11370 ;;Total ram usage:        0 bytes
 11371 ;; Hardware stack levels used: 1
 11372 ;; Hardware stack levels required when called: 1
 11373 ;; This function calls:
 11374 ;;		Nothing
 11375 ;; This function is called by:
 11376 ;;		_i2c_start
 11377 ;;		_i2c_rep_start
 11378 ;;		_i2c_stop
 11379 ;;		_i2c_read
 11380 ;;		_i2c_write
 11381 ;; This function uses a non-reentrant model
 11382 ;;
 11383                           
 11384  1E5C                     _i2c_wait_for_idle:	
 11385                           ;psect for function _i2c_wait_for_idle
 11386                           
 11387  1E5C                     l4155:	
 11388                           ;incstack = 0
 11389                           ; Regs used in _i2c_wait_for_idle: [wreg+status,2]
 11390                           
 11391  1E5C                     l477:	
 11392                           ;i2c.c: 21:     while (R_nW || (SSPCON2 & 0x1F));
 11393                           
 11394  1E5C  1683               	bsf	3,5	;RP0=1, select bank1
 11395  1E5D  1303               	bcf	3,6	;RP1=0, select bank1
 11396  1E5E  1914               	btfsc	20,2	;volatile
 11397  1E5F  2E61               	goto	u3451
 11398  1E60  2E62               	goto	u3450
 11399  1E61                     u3451:
 11400  1E61  2E5C               	goto	l477
 11401  1E62                     u3450:
 11402  1E62                     l4157:
 11403  1E62  0811               	movf	17,w	;volatile
 11404  1E63  391F               	andlw	31
 11405  1E64  1D03               	btfss	3,2
 11406  1E65  2E67               	goto	u3461
 11407  1E66  2E68               	goto	u3460
 11408  1E67                     u3461:
 11409  1E67  2E5C               	goto	l477
 11410  1E68                     u3460:
 11411  1E68                     l480:
 11412  1E68  0008               	return
 11413  1E69                     __end_of_i2c_wait_for_idle:
 11414                           
 11415                           	psect	text49
 11416  1E9B                     __ptext49:	
 11417 ;; *************** function _clcd_putch *****************
 11418 ;; Defined at:
 11419 ;;		line 58 in file "clcd.c"
 11420 ;; Parameters:    Size  Location     Type
 11421 ;;  data            1    wreg     const unsigned char 
 11422 ;;  addr            1    7[BANK0 ] unsigned char 
 11423 ;; Auto vars:     Size  Location     Type
 11424 ;;  data            1    8[BANK0 ] const unsigned char 
 11425 ;; Return value:  Size  Location     Type
 11426 ;;                  1    wreg      void 
 11427 ;; Registers used:
 11428 ;;		wreg, status,2, status,0, pclath, cstack
 11429 ;; Tracked objects:
 11430 ;;		On entry : 0/0
 11431 ;;		On exit  : 0/0
 11432 ;;		Unchanged: 0/0
 11433 ;; Data sizes:     COMMON   BANK0   BANK1   BANK3   BANK2
 11434 ;;      Params:         0       1       0       0       0
 11435 ;;      Locals:         0       1       0       0       0
 11436 ;;      Temps:          0       0       0       0       0
 11437 ;;      Totals:         0       2       0       0       0
 11438 ;;Total ram usage:        2 bytes
 11439 ;; Hardware stack levels used: 1
 11440 ;; Hardware stack levels required when called: 2
 11441 ;; This function calls:
 11442 ;;		_clcd_write
 11443 ;; This function is called by:
 11444 ;;		_display_time
 11445 ;;		_display_dash_board
 11446 ;;		_login
 11447 ;;		_login_menu
 11448 ;;		_view_log
 11449 ;;		_change_time
 11450 ;;		_change_password
 11451 ;;		_main
 11452 ;; This function uses a non-reentrant model
 11453 ;;
 11454                           
 11455  1E9B                     _clcd_putch:	
 11456                           ;psect for function _clcd_putch
 11457                           
 11458                           
 11459                           ;incstack = 0
 11460                           ; Regs used in _clcd_putch: [wreg+status,2+status,0+pclath+cstack]
 11461                           ;clcd_putch@data stored from wreg
 11462  1E9B  1283               	bcf	3,5	;RP0=0, select bank0
 11463  1E9C  1303               	bcf	3,6	;RP1=0, select bank0
 11464  1E9D  00A8               	movwf	clcd_putch@data
 11465  1E9E                     l4247:
 11466                           
 11467                           ;clcd.c: 58: ;clcd.c: 59: void clcd_print(const char *str, unsigned char addr);clcd.c: 6
      +                          0: {
 11468  1E9E  01F3               	clrf	clcd_write@mode
 11469  1E9F  0827               	movf	clcd_putch@addr,w
 11470  1EA0  160A  118A  2277  160A  158A  	fcall	_clcd_write
 11471                           
 11472                           ;clcd.c: 61:     clcd_write(addr, 0);
 11473  1EA5  01F3               	clrf	clcd_write@mode
 11474  1EA6  0AF3               	incf	clcd_write@mode,f
 11475  1EA7  1283               	bcf	3,5	;RP0=0, select bank0
 11476  1EA8  1303               	bcf	3,6	;RP1=0, select bank0
 11477  1EA9  0828               	movf	clcd_putch@data,w
 11478  1EAA  160A  118A  2277  160A  158A  	fcall	_clcd_write
 11479  1EAF                     l47:
 11480  1EAF  0008               	return
 11481  1EB0                     __end_of_clcd_putch:
 11482                           
 11483                           	psect	text50
 11484  1210                     __ptext50:	
 11485 ;; *************** function _clcd_print *****************
 11486 ;; Defined at:
 11487 ;;		line 64 in file "clcd.c"
 11488 ;; Parameters:    Size  Location     Type
 11489 ;;  str             2    0[BANK0 ] PTR const unsigned char 
 11490 ;;		 -> STR_42(5), STR_41(17), main@event(3), STR_33(7), 
 11491 ;;		 -> STR_32(17), STR_31(14), STR_30(17), STR_29(18), 
 11492 ;;		 -> STR_28(18), STR_27(21), STR_26(18), STR_24(3), 
 11493 ;;		 -> STR_23(3), STR_22(3), STR_21(13), STR_20(13), 
 11494 ;;		 -> STR_19(16), STR_16(13), STR_15(13), STR_14(18), 
 11495 ;;		 -> STR_13(18), STR_12(18), STR_11(17), STR_10(16), 
 11496 ;;		 -> STR_9(17), STR_8(17), STR_7(16), STR_6(17), 
 11497 ;;		 -> STR_5(15), STR_4(10), STR_3(14), STR_2(10), 
 11498 ;;		 -> STR_1(9), 
 11499 ;;  addr            1    2[BANK0 ] unsigned char 
 11500 ;; Auto vars:     Size  Location     Type
 11501 ;;		None
 11502 ;; Return value:  Size  Location     Type
 11503 ;;                  1    wreg      void 
 11504 ;; Registers used:
 11505 ;;		wreg, fsr0l, fsr0h, status,2, status,0, btemp+1, pclath, cstack
 11506 ;; Tracked objects:
 11507 ;;		On entry : 0/0
 11508 ;;		On exit  : 0/0
 11509 ;;		Unchanged: 0/0
 11510 ;; Data sizes:     COMMON   BANK0   BANK1   BANK3   BANK2
 11511 ;;      Params:         0       3       0       0       0
 11512 ;;      Locals:         0       0       0       0       0
 11513 ;;      Temps:          0       0       0       0       0
 11514 ;;      Totals:         0       3       0       0       0
 11515 ;;Total ram usage:        3 bytes
 11516 ;; Hardware stack levels used: 1
 11517 ;; Hardware stack levels required when called: 2
 11518 ;; This function calls:
 11519 ;;		_clcd_write
 11520 ;; This function is called by:
 11521 ;;		_display_dash_board
 11522 ;;		_login
 11523 ;;		_login_menu
 11524 ;;		_view_log
 11525 ;;		_clear_log
 11526 ;;		_change_time
 11527 ;;		_change_password
 11528 ;;		_main
 11529 ;; This function uses a non-reentrant model
 11530 ;;
 11531                           
 11532  1210                     _clcd_print:	
 11533                           ;psect for function _clcd_print
 11534                           
 11535  1210                     l4333:	
 11536                           ;incstack = 0
 11537                           ; Regs used in _clcd_print: [wreg-fsr0h+status,2+status,0+btemp+1+pclath+cstack]
 11538                           
 11539                           
 11540                           ;clcd.c: 64:     {;clcd.c: 65:         clcd_write(*str, 1);;clcd.c: 66:         str++;
 11541  1210  01F3               	clrf	clcd_write@mode
 11542  1211  1283               	bcf	3,5	;RP0=0, select bank0
 11543  1212  1303               	bcf	3,6	;RP1=0, select bank0
 11544  1213  0822               	movf	clcd_print@addr,w
 11545  1214  160A  118A  2277  160A  118A  	fcall	_clcd_write
 11546                           
 11547                           ;clcd.c: 68: }
 11548  1219  2A32               	goto	l4339
 11549  121A                     l4335:
 11550  121A  01F3               	clrf	clcd_write@mode
 11551  121B  0AF3               	incf	clcd_write@mode,f
 11552  121C  0821               	movf	clcd_print@str+1,w
 11553  121D  00FF               	movwf	btemp+1
 11554  121E  0820               	movf	clcd_print@str,w
 11555  121F  0084               	movwf	4
 11556  1220  160A  158A  2000  160A  118A  	fcall	stringtab
 11557  1225  160A  118A  2277  160A  118A  	fcall	_clcd_write
 11558  122A                     l4337:
 11559  122A  3001               	movlw	1
 11560  122B  1283               	bcf	3,5	;RP0=0, select bank0
 11561  122C  1303               	bcf	3,6	;RP1=0, select bank0
 11562  122D  07A0               	addwf	clcd_print@str,f
 11563  122E  1803               	skipnc
 11564  122F  0AA1               	incf	clcd_print@str+1,f
 11565  1230  3000               	movlw	0
 11566  1231  07A1               	addwf	clcd_print@str+1,f
 11567  1232                     l4339:
 11568                           
 11569                           ;clcd.c: 68: }
 11570  1232  1283               	bcf	3,5	;RP0=0, select bank0
 11571  1233  1303               	bcf	3,6	;RP1=0, select bank0
 11572  1234  0821               	movf	clcd_print@str+1,w
 11573  1235  00FF               	movwf	btemp+1
 11574  1236  0820               	movf	clcd_print@str,w
 11575  1237  0084               	movwf	4
 11576  1238  160A  158A  2000  160A  118A  	fcall	stringtab
 11577  123D  3A00               	xorlw	0
 11578  123E  1D03               	skipz
 11579  123F  2A41               	goto	u3651
 11580  1240  2A42               	goto	u3650
 11581  1241                     u3651:
 11582  1241  2A1A               	goto	l4335
 11583  1242                     u3650:
 11584  1242                     l53:
 11585  1242  0008               	return
 11586  1243                     __end_of_clcd_print:
 11587                           
 11588                           	psect	text51
 11589  1277                     __ptext51:	
 11590 ;; *************** function _clcd_write *****************
 11591 ;; Defined at:
 11592 ;;		line 4 in file "clcd.c"
 11593 ;; Parameters:    Size  Location     Type
 11594 ;;  byte            1    wreg     unsigned char 
 11595 ;;  mode            1    3[COMMON] unsigned char 
 11596 ;; Auto vars:     Size  Location     Type
 11597 ;;  byte            1    6[COMMON] unsigned char 
 11598 ;; Return value:  Size  Location     Type
 11599 ;;                  1    wreg      void 
 11600 ;; Registers used:
 11601 ;;		wreg, status,2, status,0
 11602 ;; Tracked objects:
 11603 ;;		On entry : 0/0
 11604 ;;		On exit  : 0/0
 11605 ;;		Unchanged: 0/0
 11606 ;; Data sizes:     COMMON   BANK0   BANK1   BANK3   BANK2
 11607 ;;      Params:         1       0       0       0       0
 11608 ;;      Locals:         1       0       0       0       0
 11609 ;;      Temps:          2       0       0       0       0
 11610 ;;      Totals:         4       0       0       0       0
 11611 ;;Total ram usage:        4 bytes
 11612 ;; Hardware stack levels used: 1
 11613 ;; Hardware stack levels required when called: 1
 11614 ;; This function calls:
 11615 ;;		Nothing
 11616 ;; This function is called by:
 11617 ;;		_init_display_controller
 11618 ;;		_clcd_putch
 11619 ;;		_clcd_print
 11620 ;;		_login
 11621 ;;		_login_menu
 11622 ;;		_view_log
 11623 ;;		_change_time
 11624 ;;		_change_password
 11625 ;;		_main
 11626 ;; This function uses a non-reentrant model
 11627 ;;
 11628                           
 11629  1277                     _clcd_write:	
 11630                           ;psect for function _clcd_write
 11631                           
 11632                           
 11633                           ;incstack = 0
 11634                           ; Regs used in _clcd_write: [wreg+status,2+status,0]
 11635                           ;clcd_write@byte stored from wreg
 11636  1277  00F6               	movwf	clcd_write@byte
 11637  1278                     l4193:
 11638                           
 11639                           ;clcd.c: 4:     RE1 = 1;;clcd.c: 5:     _delay((unsigned long)((100)*(20000000/4000000.0
      +                          )));;clcd.c: 6:     RE1 = 0;
 11640  1278  1873               	btfsc	clcd_write@mode,0
 11641  1279  2A7B               	goto	u3481
 11642  127A  2A7F               	goto	u3480
 11643  127B                     u3481:
 11644  127B  1283               	bcf	3,5	;RP0=0, select bank0
 11645  127C  1303               	bcf	3,6	;RP1=0, select bank0
 11646  127D  1509               	bsf	9,2	;volatile
 11647  127E  2A82               	goto	u3494
 11648  127F                     u3480:
 11649  127F  1283               	bcf	3,5	;RP0=0, select bank0
 11650  1280  1303               	bcf	3,6	;RP1=0, select bank0
 11651  1281  1109               	bcf	9,2	;volatile
 11652  1282                     u3494:
 11653  1282                     l4195:
 11654                           
 11655                           ;clcd.c: 8:     PORTD = (byte & 0x0F) << 4;
 11656  1282  0876               	movf	clcd_write@byte,w
 11657  1283  39F0               	andlw	240
 11658  1284  0088               	movwf	8	;volatile
 11659  1285                     l4197:
 11660                           
 11661                           ;clcd.c: 9:     RE1 = 1;
 11662  1285  1489               	bsf	9,1	;volatile
 11663  1286                     l4199:
 11664                           
 11665                           ;clcd.c: 10:     _delay((unsigned long)((100)*(20000000/4000000.0)));
 11666  1286  30A6               	movlw	166
 11667  1287  00F4               	movwf	??_clcd_write
 11668  1288                     u5337:
 11669  1288  0BF4               	decfsz	??_clcd_write,f
 11670  1289  2A88               	goto	u5337
 11671  128A  0000               	nop
 11672  128B                     l4201:
 11673                           
 11674                           ;clcd.c: 11:     RE1 = 0;
 11675  128B  1283               	bcf	3,5	;RP0=0, select bank0
 11676  128C  1303               	bcf	3,6	;RP1=0, select bank0
 11677  128D  1089               	bcf	9,1	;volatile
 11678  128E                     l4203:
 11679                           
 11680                           ;clcd.c: 13:     _delay((unsigned long)((4100)*(20000000/4000000.0)));
 11681  128E  0876               	movf	clcd_write@byte,w
 11682  128F  390F               	andlw	15
 11683  1290  00F4               	movwf	??_clcd_write
 11684  1291  3003               	movlw	3
 11685  1292                     u3505:
 11686  1292  1003               	clrc
 11687  1293  0DF4               	rlf	??_clcd_write,f
 11688  1294  3EFF               	addlw	-1
 11689  1295  1D03               	skipz
 11690  1296  2A92               	goto	u3505
 11691  1297  1003               	clrc
 11692  1298  0D74               	rlf	??_clcd_write,w
 11693  1299  0088               	movwf	8	;volatile
 11694  129A                     l4205:
 11695                           
 11696                           ;clcd.c: 14: }
 11697  129A  1489               	bsf	9,1	;volatile
 11698  129B                     l4207:
 11699                           
 11700                           ;clcd.c: 15: 
 11701  129B  30A6               	movlw	166
 11702  129C  00F4               	movwf	??_clcd_write
 11703  129D                     u5347:
 11704  129D  0BF4               	decfsz	??_clcd_write,f
 11705  129E  2A9D               	goto	u5347
 11706  129F  0000               	nop
 11707  12A0                     l4209:
 11708                           
 11709                           ;clcd.c: 16: static void init_display_controller(void)
 11710  12A0  1283               	bcf	3,5	;RP0=0, select bank0
 11711  12A1  1303               	bcf	3,6	;RP1=0, select bank0
 11712  12A2  1089               	bcf	9,1	;volatile
 11713  12A3                     l4211:
 11714                           
 11715                           ;clcd.c: 18: 
 11716  12A3  301B               	movlw	27
 11717  12A4  00F5               	movwf	??_clcd_write+1
 11718  12A5  309E               	movlw	158
 11719  12A6  00F4               	movwf	??_clcd_write
 11720  12A7                     u5357:
 11721  12A7  0BF4               	decfsz	??_clcd_write,f
 11722  12A8  2AA7               	goto	u5357
 11723  12A9  0BF5               	decfsz	??_clcd_write+1,f
 11724  12AA  2AA7               	goto	u5357
 11725  12AB  0000               	nop
 11726  12AC                     l38:
 11727  12AC  0008               	return
 11728  12AD                     __end_of_clcd_write:
 11729                           
 11730                           	psect	text52
 11731  146C                     __ptext52:	
 11732 ;; *************** function _isr *****************
 11733 ;; Defined at:
 11734 ;;		line 6 in file "isr.c"
 11735 ;; Parameters:    Size  Location     Type
 11736 ;;		None
 11737 ;; Auto vars:     Size  Location     Type
 11738 ;;		None
 11739 ;; Return value:  Size  Location     Type
 11740 ;;                  1    wreg      void 
 11741 ;; Registers used:
 11742 ;;		wreg, status,2, status,0, btemp+1
 11743 ;; Tracked objects:
 11744 ;;		On entry : 0/0
 11745 ;;		On exit  : 0/0
 11746 ;;		Unchanged: 0/0
 11747 ;; Data sizes:     COMMON   BANK0   BANK1   BANK3   BANK2
 11748 ;;      Params:         0       0       0       0       0
 11749 ;;      Locals:         0       0       0       0       0
 11750 ;;      Temps:          3       0       0       0       0
 11751 ;;      Totals:         3       0       0       0       0
 11752 ;;Total ram usage:        3 bytes
 11753 ;; Hardware stack levels used: 1
 11754 ;; This function calls:
 11755 ;;		Nothing
 11756 ;; This function is called by:
 11757 ;;		Interrupt level 1
 11758 ;; This function uses a non-reentrant model
 11759 ;;
 11760                           
 11761  146C                     _isr:	
 11762                           ;psect for function _isr
 11763                           
 11764  146C                     i1l3969:
 11765                           
 11766                           ;isr.c: 8:     static unsigned int count = 0;;isr.c: 10:     if (TMR2IF == 1)
 11767  146C  1283               	bcf	3,5	;RP0=0, select bank0
 11768  146D  1303               	bcf	3,6	;RP1=0, select bank0
 11769  146E  1C8C               	btfss	12,1	;volatile
 11770  146F  2C71               	goto	u341_21
 11771  1470  2C72               	goto	u341_20
 11772  1471                     u341_21:
 11773  1471  2CB6               	goto	i1l514
 11774  1472                     u341_20:
 11775  1472                     i1l3971:
 11776                           
 11777                           ;isr.c: 11:     {;isr.c: 12:         if (++count == 1250)
 11778  1472  3001               	movlw	1
 11779  1473  1683               	bsf	3,5	;RP0=1, select bank1
 11780  1474  1303               	bcf	3,6	;RP1=0, select bank1
 11781  1475  07A0               	addwf	isr@count^(0+128),f
 11782  1476  1803               	skipnc
 11783  1477  0AA1               	incf	(isr@count+1)^(0+128),f
 11784  1478  3000               	movlw	0
 11785  1479  07A1               	addwf	(isr@count+1)^(0+128),f
 11786  147A  30E2               	movlw	226
 11787  147B  0620               	xorwf	isr@count^(0+128),w
 11788  147C  3004               	movlw	4
 11789  147D  1903               	skipnz
 11790  147E  0621               	xorwf	(isr@count+1)^(0+128),w
 11791  147F  1D03               	btfss	3,2
 11792  1480  2C82               	goto	u342_21
 11793  1481  2C83               	goto	u342_20
 11794  1482                     u342_21:
 11795  1482  2CB3               	goto	i1l3983
 11796  1483                     u342_20:
 11797  1483                     i1l3973:
 11798                           
 11799                           ;isr.c: 13:         {;isr.c: 14:             count = 0;
 11800  1483  01A0               	clrf	isr@count^(0+128)
 11801  1484  01A1               	clrf	(isr@count+1)^(0+128)
 11802  1485                     i1l3975:
 11803                           
 11804                           ;isr.c: 16:           if(sec > 0)
 11805  1485  1283               	bcf	3,5	;RP0=0, select bank0
 11806  1486  1303               	bcf	3,6	;RP1=0, select bank0
 11807  1487  0858               	movf	_sec+1,w
 11808  1488  3A80               	xorlw	128
 11809  1489  00FF               	movwf	btemp+1
 11810  148A  3080               	movlw	128
 11811  148B  027F               	subwf	btemp+1,w
 11812  148C  1D03               	skipz
 11813  148D  2C90               	goto	u343_25
 11814  148E  3001               	movlw	1
 11815  148F  0257               	subwf	_sec,w
 11816  1490                     u343_25:
 11817  1490  1C03               	skipc
 11818  1491  2C93               	goto	u343_21
 11819  1492  2C94               	goto	u343_20
 11820  1493                     u343_21:
 11821  1493  2C9C               	goto	i1l3979
 11822  1494                     u343_20:
 11823  1494                     i1l3977:
 11824                           
 11825                           ;isr.c: 17:           {;isr.c: 18:               sec--;
 11826  1494  30FF               	movlw	255
 11827  1495  1283               	bcf	3,5	;RP0=0, select bank0
 11828  1496  1303               	bcf	3,6	;RP1=0, select bank0
 11829  1497  07D7               	addwf	_sec,f
 11830  1498  1803               	skipnc
 11831  1499  0AD8               	incf	_sec+1,f
 11832  149A  30FF               	movlw	255
 11833  149B  07D8               	addwf	_sec+1,f
 11834  149C                     i1l3979:
 11835                           
 11836                           ;isr.c: 20:          if(return_time > 0)
 11837  149C  1283               	bcf	3,5	;RP0=0, select bank0
 11838  149D  1303               	bcf	3,6	;RP1=0, select bank0
 11839  149E  0856               	movf	_return_time+1,w
 11840  149F  3A80               	xorlw	128
 11841  14A0  00FF               	movwf	btemp+1
 11842  14A1  3080               	movlw	128
 11843  14A2  027F               	subwf	btemp+1,w
 11844  14A3  1D03               	skipz
 11845  14A4  2CA7               	goto	u344_25
 11846  14A5  3001               	movlw	1
 11847  14A6  0255               	subwf	_return_time,w
 11848  14A7                     u344_25:
 11849  14A7  1C03               	skipc
 11850  14A8  2CAA               	goto	u344_21
 11851  14A9  2CAB               	goto	u344_20
 11852  14AA                     u344_21:
 11853  14AA  2CB3               	goto	i1l3983
 11854  14AB                     u344_20:
 11855  14AB                     i1l3981:
 11856                           
 11857                           ;isr.c: 21:          {;isr.c: 22:              return_time--;
 11858  14AB  30FF               	movlw	255
 11859  14AC  1283               	bcf	3,5	;RP0=0, select bank0
 11860  14AD  1303               	bcf	3,6	;RP1=0, select bank0
 11861  14AE  07D5               	addwf	_return_time,f
 11862  14AF  1803               	skipnc
 11863  14B0  0AD6               	incf	_return_time+1,f
 11864  14B1  30FF               	movlw	255
 11865  14B2  07D6               	addwf	_return_time+1,f
 11866  14B3                     i1l3983:
 11867                           
 11868                           ;isr.c: 26:         TMR2IF = 0;
 11869  14B3  1283               	bcf	3,5	;RP0=0, select bank0
 11870  14B4  1303               	bcf	3,6	;RP1=0, select bank0
 11871  14B5  108C               	bcf	12,1	;volatile
 11872  14B6                     i1l514:
 11873  14B6  0872               	movf	??_isr+2,w
 11874  14B7  00FF               	movwf	btemp+1
 11875  14B8  0871               	movf	??_isr+1,w
 11876  14B9  008A               	movwf	10
 11877  14BA  0E70               	swapf	??_isr,w
 11878  14BB  0083               	movwf	3
 11879  14BC  0EFE               	swapf	btemp,f
 11880  14BD  0E7E               	swapf	btemp,w
 11881  14BE  0009               	retfie
 11882  14BF                     __end_of_isr:
 11883  007E                     btemp	set	126	;btemp
 11884  007E                     wtemp0	set	126
 11885                           
 11886                           	psect	intentry
 11887  0004                     __pintentry:	
 11888                           ;incstack = 0
 11889                           ; Regs used in _isr: [wreg+status,2+status,0+btemp+1]
 11890                           
 11891  0004                     interrupt_function:
 11892  007E                     saved_w	set	btemp
 11893  0004  00FE               	movwf	btemp
 11894  0005  0E03               	swapf	3,w
 11895  0006  00F0               	movwf	??_isr
 11896  0007  080A               	movf	10,w
 11897  0008  00F1               	movwf	??_isr+1
 11898  0009  087F               	movf	btemp+1,w
 11899  000A  00F2               	movwf	??_isr+2
 11900  000B  160A  118A  2C6C   	ljmp	_isr
 11901                           
 11902                           	psect	config
 11903                           
 11904                           ;Config register CONFIG @ 0x2007
 11905                           ;	Oscillator Selection bits
 11906                           ;	FOSC = 0x3, unprogrammed default
 11907                           ;	Watchdog Timer Enable bit
 11908                           ;	WDTE = OFF, WDT disabled
 11909                           ;	Power-up Timer Enable bit
 11910                           ;	PWRTE = 0x1, unprogrammed default
 11911                           ;	Brown-out Reset Enable bit
 11912                           ;	BOREN = 0x1, unprogrammed default
 11913                           ;	Low-Voltage (Single-Supply) In-Circuit Serial Programming Enable bit
 11914                           ;	LVP = 0x1, unprogrammed default
 11915                           ;	Data EEPROM Memory Code Protection bit
 11916                           ;	CPD = 0x1, unprogrammed default
 11917                           ;	Flash Program Memory Write Enable bits
 11918                           ;	WRT = 0x3, unprogrammed default
 11919                           ;	In-Circuit Debugger Mode bit
 11920                           ;	DEBUG = 0x1, unprogrammed default
 11921                           ;	Flash Program Memory Code Protection bit
 11922                           ;	CP = 0x1, unprogrammed default
 11923  2007                     	org	8199
 11924  2007  3FFB               	dw	16379

Data Sizes:
    Strings     418
    Constant    0
    Data        33
    BSS         68
    Persistent  0
    Stack       0

Auto Spaces:
    Space          Size  Autos    Used
    COMMON           14      9      11
    BANK0            80     36      72
    BANK1            80     13      76
    BANK3            96      0       0
    BANK2            96      0       0

Pointer List with Targets:

    strncpy@from	PTR const unsigned char  size(2) Largest target is 7
		 -> STR_46(CODE[3]), STR_45(CODE[3]), STR_44(CODE[3]), STR_43(CODE[3]), 
		 -> main@event(BANK1[3]), STR_25(CODE[5]), time(BANK1[7]), 

    strncpy@to	PTR unsigned char  size(1) Largest target is 11
		 -> change_password@r_pwd(BANK1[9]), log(BANK1[11]), 

    strncpy@cp	PTR unsigned char  size(1) Largest target is 11
		 -> change_password@r_pwd(BANK1[9]), log(BANK1[11]), 

    strncmp@s2	PTR const unsigned char  size(1) Largest target is 9
		 -> change_password@r_pwd(BANK1[9]), 

    strncmp@s1	PTR const unsigned char  size(1) Largest target is 9
		 -> change_password@r_pwd(BANK1[9]), 

    strcpy@from	PTR const unsigned char  size(2) Largest target is 3
		 -> STR_40(CODE[3]), STR_39(CODE[3]), STR_38(CODE[3]), STR_37(CODE[3]), 
		 -> STR_36(CODE[3]), STR_35(CODE[3]), STR_34(CODE[3]), 

    strcpy@to	PTR unsigned char  size(1) Largest target is 3
		 -> main@event(BANK1[3]), 

    strcpy@cp	PTR unsigned char  size(1) Largest target is 3
		 -> main@event(BANK1[3]), 

    strcmp@s2	PTR const unsigned char  size(1) Largest target is 5
		 -> login@spassword(BANK0[5]), 

    strcmp@s1	PTR const unsigned char  size(1) Largest target is 5
		 -> login@npassword(BANK1[5]), 

    putsx@s	PTR const unsigned char  size(2) Largest target is 17
		 -> STR_18(CODE[7]), STR_17(CODE[17]), 

    ext_eeprom_24C02_str_write@data	PTR unsigned char  size(1) Largest target is 11
		 -> change_password@r_pwd(BANK1[9]), log(BANK1[11]), 

    sp__strcpy	PTR unsigned char  size(1) Largest target is 3
		 -> main@event(BANK1[3]), 

    gear	PTR unsigned char [6] size(2) Largest target is 3
		 -> STR_39(CODE[3]), STR_38(CODE[3]), STR_37(CODE[3]), STR_36(CODE[3]), 
		 -> STR_35(CODE[3]), STR_34(CODE[3]), 

    get_password@spassword	PTR unsigned char  size(1) Largest target is 5
		 -> login@spassword(BANK0[5]), 

    log_car_event@event	PTR unsigned char  size(2) Largest target is 3
		 -> STR_46(CODE[3]), STR_45(CODE[3]), STR_44(CODE[3]), STR_43(CODE[3]), 
		 -> main@event(BANK1[3]), 

    sp__strncpy	PTR unsigned char  size(1) Largest target is 11
		 -> change_password@r_pwd(BANK1[9]), log(BANK1[11]), 

    display_dash_board@event	PTR unsigned char  size(1) Largest target is 3
		 -> main@event(BANK1[3]), 

    menu	PTR unsigned char [5] size(2) Largest target is 15
		 -> STR_5(CODE[15]), STR_4(CODE[10]), STR_3(CODE[14]), STR_2(CODE[10]), 
		 -> STR_1(CODE[9]), 

    clcd_print@str	PTR const unsigned char  size(2) Largest target is 21
		 -> STR_42(CODE[5]), STR_41(CODE[17]), main@event(BANK1[3]), STR_33(CODE[7]), 
		 -> STR_32(CODE[17]), STR_31(CODE[14]), STR_30(CODE[17]), STR_29(CODE[18]), 
		 -> STR_28(CODE[18]), STR_27(CODE[21]), STR_26(CODE[18]), STR_24(CODE[3]), 
		 -> STR_23(CODE[3]), STR_22(CODE[3]), STR_21(CODE[13]), STR_20(CODE[13]), 
		 -> STR_19(CODE[16]), STR_16(CODE[13]), STR_15(CODE[13]), STR_14(CODE[18]), 
		 -> STR_13(CODE[18]), STR_12(CODE[18]), STR_11(CODE[17]), STR_10(CODE[16]), 
		 -> STR_9(CODE[17]), STR_8(CODE[17]), STR_7(CODE[16]), STR_6(CODE[17]), 
		 -> STR_5(CODE[15]), STR_4(CODE[10]), STR_3(CODE[14]), STR_2(CODE[10]), 
		 -> STR_1(CODE[9]), 


Critical Paths under _main in COMMON

    _main->_clear_log
    _view_log->_ext_eeprom_24C02_read
    _get_password->_ext_eeprom_24C02_read
    _log_car_event->_strncpy
    _log_event->_ext_eeprom_24C02_str_write
    _init_uart->___lldiv
    _init_i2c->___lldiv
    _init_ds1307->_read_ds1307
    _init_clcd->_init_display_controller
    _init_display_controller->_clcd_write
    _download_log->_ext_eeprom_24C02_read
    _putsx->_putchars
    _ext_eeprom_24C02_read->_i2c_read
    _change_time->___lwmod
    _change_time->___wmul
    _write_ds1307->_i2c_write
    _get_time->_read_ds1307
    _read_ds1307->_i2c_read
    ___lwdiv->_read_adc
    _change_password->_ext_eeprom_24C02_str_write
    _change_password->_strncmp
    _change_password->_strncpy
    _ext_eeprom_24C02_str_write->_ext_eeprom_24C02_byte_write
    _ext_eeprom_24C02_byte_write->_i2c_write
    _clcd_putch->___lwmod
    _clcd_print->_clcd_write

Critical Paths under _isr in COMMON

    None.

Critical Paths under _main in BANK0

    _main->_view_log
    _view_log->_clcd_putch
    _login_menu->_clcd_putch
    _login->_clcd_putch
    _log_car_event->___awdiv
    _init_config->_init_i2c
    _init_config->_init_uart
    _init_uart->___lldiv
    _init_i2c->___lldiv
    _download_log->___awmod
    _display_dash_board->_display_time
    _display_time->_clcd_putch
    _clear_log->_clcd_print
    _change_time->_clcd_putch
    _change_password->_clcd_putch
    _clcd_putch->___lwdiv

Critical Paths under _isr in BANK0

    None.

Critical Paths under _main in BANK1

    None.

Critical Paths under _isr in BANK1

    None.

Critical Paths under _main in BANK3

    None.

Critical Paths under _isr in BANK3

    None.

Critical Paths under _main in BANK2

    None.

Critical Paths under _isr in BANK2

    None.

Call Graph Tables:

 ---------------------------------------------------------------------------------
 (Depth) Function   	        Calls       Base Space   Used Autos Params    Refs
 ---------------------------------------------------------------------------------
 (0) _main                                                17    17      0  201295
                                             33 BANK0      3     3      0
                                              0 BANK1     13    13      0
                            ___lwdiv
                    _change_password
                        _change_time
                         _clcd_print
                         _clcd_putch
                         _clcd_write
                          _clear_log
                 _display_dash_board
                       _download_log
        _ext_eeprom_24C02_byte_write
                        _init_config
                      _log_car_event
                              _login
                         _login_menu
                           _read_adc
                _read_digital_keypad
                             _strcpy
                           _view_log
 ---------------------------------------------------------------------------------
 (1) _view_log                                            24    23      1   24392
                                              9 BANK0     24    23      1
                            ___awmod
                             ___bmul
                         _clcd_print
                         _clcd_putch
                         _clcd_write
              _ext_eeprom_24C02_read
 ---------------------------------------------------------------------------------
 (2) _strcpy                                               5     3      2     487
                                              3 COMMON     5     3      2
 ---------------------------------------------------------------------------------
 (1) _read_digital_keypad                                  2     2      0     158
                                              3 COMMON     2     2      0
 ---------------------------------------------------------------------------------
 (1) _read_adc                                             4     2      2      34
                                              3 COMMON     4     2      2
 ---------------------------------------------------------------------------------
 (1) _login_menu                                           5     4      1   21410
                                              9 BANK0      5     4      1
                         _clcd_print
                         _clcd_putch
                         _clcd_write
 ---------------------------------------------------------------------------------
 (1) _login                                                9     8      1   24615
                                              9 BANK0      9     8      1
                            ___awdiv
                            ___awmod
                         _clcd_print
                         _clcd_putch
                         _clcd_write
                       _get_password
                             _strcmp
 ---------------------------------------------------------------------------------
 (2) _strcmp                                               7     5      2     259
                                              3 COMMON     5     3      2
                                              0 BANK0      2     2      0
 ---------------------------------------------------------------------------------
 (2) _get_password                                         5     5      0     358
                                              0 BANK0      5     5      0
              _ext_eeprom_24C02_read
 ---------------------------------------------------------------------------------
 (1) _log_car_event                                        6     3      3    6410
                                              4 BANK0      6     3      3
                            ___awdiv
                            ___awmod
                           _get_time
                          _log_event
                            _strncpy
 ---------------------------------------------------------------------------------
 (2) _log_event                                            3     3      0    1352
                                              0 BANK0      3     3      0
                             ___bmul
         _ext_eeprom_24C02_str_write
 ---------------------------------------------------------------------------------
 (1) _init_config                                          0     0      0    5999
                           _init_adc
                          _init_clcd
                _init_digital_keypad
                        _init_ds1307
                           _init_i2c
                        _init_timer2
                          _init_uart
 ---------------------------------------------------------------------------------
 (2) _init_uart                                            8     4      4     722
                                              8 BANK0      8     4      4
                            ___lldiv
 ---------------------------------------------------------------------------------
 (2) _init_timer2                                          0     0      0       0
 ---------------------------------------------------------------------------------
 (2) _init_i2c                                             8     4      4     722
                                              8 BANK0      8     4      4
                            ___lldiv
 ---------------------------------------------------------------------------------
 (3) ___lldiv                                             14     6      8     601
                                              3 COMMON     6     6      0
                                              0 BANK0      8     0      8
 ---------------------------------------------------------------------------------
 (2) _init_ds1307                                          2     2      0     682
                                              0 BANK0      2     2      0
                        _read_ds1307
                       _write_ds1307
 ---------------------------------------------------------------------------------
 (2) _init_digital_keypad                                  0     0      0       0
 ---------------------------------------------------------------------------------
 (2) _init_clcd                                            0     0      0    3873
            _init_display_controller
 ---------------------------------------------------------------------------------
 (3) _init_display_controller                              2     2      0    3873
                                              7 COMMON     2     2      0
                         _clcd_write
 ---------------------------------------------------------------------------------
 (2) _init_adc                                             0     0      0       0
 ---------------------------------------------------------------------------------
 (1) _download_log                                        20    20      0    3323
                                              2 BANK0     20    20      0
                            ___awmod
                             ___bmul
              _ext_eeprom_24C02_read
                           _putchars
                              _putsx
 ---------------------------------------------------------------------------------
 (2) _putsx                                                2     0      2     276
                                              4 COMMON     2     0      2
                           _putchars
 ---------------------------------------------------------------------------------
 (3) _putchars                                             1     1      0      31
                                              3 COMMON     1     1      0
 ---------------------------------------------------------------------------------
 (2) _ext_eeprom_24C02_read                                3     3      0     161
                                              6 COMMON     3     3      0
                           _i2c_read
                      _i2c_rep_start
                          _i2c_start
                           _i2c_stop
                          _i2c_write
 ---------------------------------------------------------------------------------
 (2) ___bmul                                               4     3      1     406
                                              3 COMMON     4     3      1
 ---------------------------------------------------------------------------------
 (1) _display_dash_board                                   5     4      1   27873
                                             10 BANK0      5     4      1
                            ___awdiv
                            ___awmod
                         _clcd_print
                         _clcd_putch
                       _display_time
 ---------------------------------------------------------------------------------
 (2) _display_time                                         1     1      0    7786
                                              9 BANK0      1     1      0
                         _clcd_putch
                           _get_time
 ---------------------------------------------------------------------------------
 (2) ___awdiv                                              9     5      4     813
                                              3 COMMON     5     1      4
                                              0 BANK0      4     4      0
 ---------------------------------------------------------------------------------
 (1) _clear_log                                            2     2      0    9760
                                              7 COMMON     2     2      0
                         _clcd_print
 ---------------------------------------------------------------------------------
 (1) _change_time                                         11    10      1   28078
                                              9 BANK0     11    10      1
                            ___awmod
                            ___lwdiv
                            ___lwmod
                             ___wmul
                         _clcd_print
                         _clcd_putch
                         _clcd_write
                           _get_time
                       _write_ds1307
 ---------------------------------------------------------------------------------
 (3) _write_ds1307                                         2     1      1     453
                                              4 COMMON     2     1      1
                          _i2c_start
                           _i2c_stop
                          _i2c_write
 ---------------------------------------------------------------------------------
 (2) _get_time                                             2     2      0     161
                                              0 BANK0      2     2      0
                        _read_ds1307
 ---------------------------------------------------------------------------------
 (3) _read_ds1307                                          3     3      0     161
                                              6 COMMON     3     3      0
                           _i2c_read
                      _i2c_rep_start
                          _i2c_start
                           _i2c_stop
                          _i2c_write
 ---------------------------------------------------------------------------------
 (3) _i2c_rep_start                                        0     0      0       0
                  _i2c_wait_for_idle
 ---------------------------------------------------------------------------------
 (3) _i2c_read                                             3     3      0      65
                                              3 COMMON     3     3      0
                  _i2c_wait_for_idle
 ---------------------------------------------------------------------------------
 (2) ___wmul                                               6     2      4    1336
                                              3 COMMON     6     2      4
 ---------------------------------------------------------------------------------
 (2) ___lwmod                                              6     2      4    1312
                                              3 COMMON     6     2      4
 ---------------------------------------------------------------------------------
 (2) ___lwdiv                                              8     4      4    1501
                                              7 COMMON     1     1      0
                                              0 BANK0      7     3      4
                           _read_adc (ARG)
 ---------------------------------------------------------------------------------
 (2) ___awmod                                              7     3      4    1701
                                              3 COMMON     5     1      4
                                              0 BANK0      2     2      0
 ---------------------------------------------------------------------------------
 (1) _change_password                                      4     3      1   23549
                                              9 BANK0      4     3      1
                         _clcd_print
                         _clcd_putch
                         _clcd_write
         _ext_eeprom_24C02_str_write
                            _strncmp
                            _strncpy
 ---------------------------------------------------------------------------------
 (3) _strncpy                                              9     5      4     850
                                              3 COMMON     6     2      4
                                              0 BANK0      3     3      0
 ---------------------------------------------------------------------------------
 (2) _strncmp                                              6     3      3     408
                                              3 COMMON     6     3      3
 ---------------------------------------------------------------------------------
 (3) _ext_eeprom_24C02_str_write                           3     2      1     912
                                              6 COMMON     3     2      1
        _ext_eeprom_24C02_byte_write
 ---------------------------------------------------------------------------------
 (4) _ext_eeprom_24C02_byte_write                          2     1      1     633
                                              4 COMMON     2     1      1
                          _i2c_start
                           _i2c_stop
                          _i2c_write
 ---------------------------------------------------------------------------------
 (3) _i2c_write                                            1     1      0      31
                                              3 COMMON     1     1      0
                  _i2c_wait_for_idle
 ---------------------------------------------------------------------------------
 (3) _i2c_stop                                             0     0      0       0
                  _i2c_wait_for_idle
 ---------------------------------------------------------------------------------
 (3) _i2c_start                                            0     0      0       0
                  _i2c_wait_for_idle
 ---------------------------------------------------------------------------------
 (4) _i2c_wait_for_idle                                    0     0      0       0
 ---------------------------------------------------------------------------------
 (2) _clcd_putch                                           2     1      1    7625
                                              7 BANK0      2     1      1
                            ___awdiv (ARG)
                            ___awmod (ARG)
                            ___lwdiv (ARG)
                            ___lwmod (ARG)
                         _clcd_write
 ---------------------------------------------------------------------------------
 (2) _clcd_print                                           3     0      3    9729
                                              0 BANK0      3     0      3
                         _clcd_write
 ---------------------------------------------------------------------------------
 (2) _clcd_write                                           4     3      1    3873
                                              3 COMMON     4     3      1
 ---------------------------------------------------------------------------------
 Estimated maximum stack depth 4
 ---------------------------------------------------------------------------------
 (Depth) Function   	        Calls       Base Space   Used Autos Params    Refs
 ---------------------------------------------------------------------------------
 (7) _isr                                                  3     3      0       0
                                              0 COMMON     3     3      0
 ---------------------------------------------------------------------------------
 Estimated maximum stack depth 7
 ---------------------------------------------------------------------------------

 Call Graph Graphs:

 _main (ROOT)
   ___lwdiv
     _read_adc (ARG)
   _change_password
     _clcd_print
       _clcd_write
     _clcd_putch
       ___awdiv (ARG)
       ___awmod (ARG)
       ___lwdiv (ARG)
       ___lwmod (ARG)
       _clcd_write (ARG)
     _clcd_write
     _ext_eeprom_24C02_str_write
       _ext_eeprom_24C02_byte_write
         _i2c_start
           _i2c_wait_for_idle
         _i2c_stop
           _i2c_wait_for_idle
         _i2c_write
           _i2c_wait_for_idle
     _strncmp
     _strncpy
   _change_time
     ___awmod
     ___lwdiv
     ___lwmod
     ___wmul
     _clcd_print
     _clcd_putch
     _clcd_write
     _get_time
       _read_ds1307
         _i2c_read
           _i2c_wait_for_idle
         _i2c_rep_start
           _i2c_wait_for_idle
         _i2c_start
         _i2c_stop
         _i2c_write
     _write_ds1307
       _i2c_start
       _i2c_stop
       _i2c_write
   _clcd_print
   _clcd_putch
   _clcd_write
   _clear_log
     _clcd_print
   _display_dash_board
     ___awdiv
     ___awmod
     _clcd_print
     _clcd_putch
     _display_time
       _clcd_putch
       _get_time
   _download_log
     ___awmod
     ___bmul
     _ext_eeprom_24C02_read
       _i2c_read
       _i2c_rep_start
       _i2c_start
       _i2c_stop
       _i2c_write
     _putchars
     _putsx
       _putchars
   _ext_eeprom_24C02_byte_write
   _init_config
     _init_adc
     _init_clcd
       _init_display_controller
         _clcd_write
     _init_digital_keypad
     _init_ds1307
       _read_ds1307
       _write_ds1307
     _init_i2c
       ___lldiv
     _init_timer2
     _init_uart
       ___lldiv
   _log_car_event
     ___awdiv
     ___awmod
     _get_time
     _log_event
       ___bmul
       _ext_eeprom_24C02_str_write
     _strncpy
   _login
     ___awdiv
     ___awmod
     _clcd_print
     _clcd_putch
     _clcd_write
     _get_password
       _ext_eeprom_24C02_read
     _strcmp
   _login_menu
     _clcd_print
     _clcd_putch
     _clcd_write
   _read_adc
   _read_digital_keypad
   _strcpy
   _view_log
     ___awmod
     ___bmul
     _clcd_print
     _clcd_putch
     _clcd_write
     _ext_eeprom_24C02_read

 _isr (ROOT)

 Address spaces:
Name               Size   Autos  Total    Cost      Usage
BANK3               60      0       0       9        0.0%
BITBANK3            60      0       0       8        0.0%
SFR3                 0      0       0       4        0.0%
BITSFR3              0      0       0       4        0.0%
BANK2               60      0       0      11        0.0%
BITBANK2            60      0       0      10        0.0%
SFR2                 0      0       0       5        0.0%
BITSFR2              0      0       0       5        0.0%
BANK1               50      D      4C       7       95.0%
BITBANK1            50      0       0       6        0.0%
SFR1                 0      0       0       2        0.0%
BITSFR1              0      0       0       2        0.0%
BANK0               50     24      48       5       90.0%
BITBANK0            50      0       0       4        0.0%
SFR0                 0      0       0       1        0.0%
BITSFR0              0      0       0       1        0.0%
COMMON               E      9       B       1       78.6%
BITCOMMON            E      0       0       0        0.0%
CODE                 0      0       0       0        0.0%
DATA                 0      0      9F      12        0.0%
ABS                  0      0      9F       3        0.0%
NULL                 0      0       0       0        0.0%
STACK                0      0       0       2        0.0%
EEDATA             100      0       0       0        0.0%


Microchip Technology PIC Macro Assembler V2.36 build 20220127204148 
Symbol Table                                                                                   Thu Aug 25 15:08:17 2022

                      ?_get_password 0070                                    pc 0002  
                     ___bmul@product 0075                       clcd_print@addr 0022  
                                 l21 1E87                                   l15 1E0F  
                                 l41 1718                                   l18 1E79  
                                 l44 1E5B                                   l53 1242  
                                 l38 12AC                                   l47 1EAF  
                                 l64 1E08                                   l77 08BD  
                                 _GO 00FA                         ___awdiv@sign 0021  
                                 fsr 0004                  ___wmul@multiplicand 0075  
                 login_menu@menu_pos 0053                                  l130 17FF  
                                l212 0832                                  l133 178A  
                                l141 13DB                                  l222 06EE  
                                l136 1578                                  l144 15D8  
                                l160 0CD7                                  l208 0691  
                                l241 0FFF                                  l226 07CF  
                                l420 120F                                  l149 1FFF  
                                l246 0EC9                                  l423 1F1F  
                                l360 02E7                                  l417 1EE3  
                                l267 0B35                                  l339 1358  
                                l436 07FC                                  l372 02C1  
                                l445 1F3E                                  l189 09BA  
                                l550 1E50                                  l382 0333  
                                l439 1F01                                  l527 1E75  
                                l480 1E68                                  l544 12E4  
                                l642 1F6E                                  l474 1276  
                                l483 1E28                                  l644 1F86  
                                l492 1F5C                                  l548 1E4B  
                                l556 1FAC                                  l477 1E5C  
                                l493 1F5F                                  l549 1E4F  
                                l494 1F61                                  l486 1E3A  
                                l808 1519                                  l489 1E31  
                                l497 1E45                                  l914 1421  
                                l924 131E                                  l668 11B6  
                                l678 1640                                  l795 16A9  
                                _GIE 005F                                  _RE1 0049  
                                _RE2 004A                                  _PR2 0092  
                                _PEN 048A                                  _SEN 0488  
                      ?_display_time 0070                                  _log 00A6  
                                _sec 0057                                  _isr 146C  
                     clcd_putch@addr 0027                                  _pos 0064  
                                fsr0 0004                       clcd_putch@data 0028  
                                indf 0000                         ___awmod@sign 0021  
                 log_car_event@event 0024                   log_car_event@speed 0026  
                               l1112 1396                                 l1104 1FD3  
                               l1107 1386                                 l1123 146B  
              ??_read_digital_keypad 0073                                 l1098 11E2  
                               l4201 128B                                 l5001 0E8E  
                               l4211 12A3                                 l4203 128E  
                               l5011 0EB7                                 l5003 0E9D  
                               l4205 129A                                 l5101 0A06  
                               l4213 11E4                                 l5021 0EDA  
                               l5013 0ECD                                 l4221 16AA  
                               l4301 15EB                                 l4207 129B  
                               l5111 0A48                                 l5103 0A15  
                               l4215 120E                                 l5031 0EFA  
                               l5023 0EE3                                 l4231 16D5  
                               l4223 16B2                                 l4311 161A  
                               l4303 15EE                                 l4209 12A0  
                               l4161 1E25                                 l5121 0A71  
                               l5113 0A50                                 l5105 0A24  
                               l5041 0F45                                 l5033 0EFB  
                               l5025 0EE5                                 l5009 0EA7  
                               l5017 0ECF                                 l4401 1F87  
                               l4241 1700                                 l4233 16D8  
                               l4225 16B9                                 l4313 1628  
                               l4305 15FB                                 l5201 0042  
                               l4155 1E5C                                 l4163 1E3C  
                               l4219 1EE5                                 l4411 135B  
                               l5123 0A7D                                 l5115 0A54  
                               l5107 0A34                                 l4171 1E32  
                               l4251 17AC                                 l5051 0FBD  
                               l5043 0F61                                 l5035 0F05  
                               l5027 0EEE                                 l5019 0ED8  
                               l4403 1F88                                 l4323 1E09  
                               l4243 1707                                 l4235 16DF  
                               l4227 16C9                                 l4331 1E56  
                               l4315 1629                                 l4307 15FF  
                               l5211 004E                                 l5203 004A  
                               l4333 1210                                 l4157 1E62  
                               l4165 1E41                                 l4421 1394  
                               l4413 1363                                 l5141 0AD0  
                               l5125 0A85                                 l5117 0A5B  
                               l5109 0A3C                                 l5133 0A9E  
                               l4181 1F53                                 l4173 1E37  
                               l4261 17F4                                 l4253 17BC  
                               l5045 0F7B                                 l5037 0F1F  
                               l5029 0EF0                                 l4501 16A0  
                               l4405 1F96                                 l4245 1713  
                               l4237 16EB                                 l4229 16CE  
                               l4325 1E51                                 l4341 1E03  
                               l4317 1632                                 l4309 1608  
                               l5301 020B                                 l5221 0079  
                               l5213 0050                                 l5205 004A  
                               l4335 121A                                 l4247 1E9E  
                               l4159 1E20                                 l4191 1E2E  
                               l4167 1E45                                 l4271 1F32  
                               l4415 136F                                 l5151 0B09  
                               l5143 0ADC                                 l5127 0A89  
                               l5119 0A69                                 l5135 0AB0  
                               l4511 14C6                                 l4183 1F58  
                               l4175 1F40                                 l4263 17FE  
                               l4255 17C6                                 l5055 0FC5  
                               l5063 0FEF                                 l5047 0F87  
                               l5039 0F39                                 l4503 16A5  
                               l4343 1719                                 l4407 1F9C  
                               l4239 16F0                                 l4327 1E54  
                               l4431 1EC9                                 l4319 1638  
                               l4351 13AA                                 l5311 0241  
                               l5303 0213                                 l5231 00BC  
                               l5223 0085                                 l5215 0055  
                               l5207 004C                                 l4193 1278  
                               l4337 122A                                 l4273 1F36  
                               l4265 1F21                                 l4409 135A  
                               l4361 142A                                 l5161 0B16  
                               l5153 0B0D                                 l5145 0AE4  
                               l5137 0AB9                                 l5129 0A90  
                               l5081 09D5                                 l4521 14DC  
                               l4513 14CB                                 l4185 1F60  
                               l4177 1F45                                 l4257 17D8  
                               l4249 178B                                 l5057 0FD3  
                               l5049 0FA3                                 l4281 1E47  
                               l4329 1E55                                 l4433 1ED4  
                               l4425 1243                                 l4441 1E71  
                               l4353 13BA                                 l4345 1397  
                               l4601 083A                                 l5401 0420  
                               l5321 0273                                 l5313 024A  
                               l5305 021C                                 l5241 00E8  
                               l5233 00C4                                 l5225 0091  
                               l5217 0061                                 l5209 004D  
                               l4195 1282                                 l4339 1232  
                               l4267 1F22                                 l4419 137E  
                               l4371 1459                                 l4363 1430  
                               l5163 0B25                                 l5147 0AEB  
                               l5139 0ACD                                 l5091 09E2  
                               l5083 09D6                                 l5075 09BE  
                               l4531 14F8                                 l4523 14DF  
                               l4515 14CD                                 l4507 14BF  
                               l4451 1F64                                 l4179 1F4D  
                               l4259 17E2                                 l4283 1F03  
                               l5059 0FE1                                 l4291 11AC  
                               l4275 07D1                                 l4435 1ED9  
                               l4427 1246                                 l4443 1E72  
                               l4355 13C4                                 l4347 13A6  
                               l4603 0840                                 l4611 084E  
                               l5411 0454                                 l5403 0430  
                               l5323 0284                                 l5315 025B  
                               l5307 0232                                 l5251 0142  
                               l5243 0106                                 l5235 00D0  
                               l5227 0098                                 l5219 006D  
                               l4197 1285                                 l4189 1E29  
                               l4269 1F2E                                 l4373 145D  
                               l5149 0AFA                                 l5093 09E7  
                               l5077 09C3                                 l5085 09DA  
                               l4541 1515                                 l4533 14FE  
                               l4525 14E6                                 l4517 14D1  
                               l4509 14C2                                 l4453 1F68  
                               l4293 11AE                                 l4285 11A3  
                               l4277 07FB                                 l4429 1273  
                               l4437 1E69                                 l4445 12AD  
                               l5181 1338                                 l4357 13D3  
                               l4349 13A8                                 l4381 1FD9  
                               l4701 0B65                                 l4613 0854  
                               l4605 0845                                 l5421 049A  
                               l5405 0438                                 l5341 02C3  
                               l5325 028B                                 l5317 0262  
                               l5309 0239                                 l5333 0294  
                               l5253 0148                                 l5261 0177  
                               l5245 010C                                 l5237 00D4  
                               l5229 00B6                                 l4199 1286  
                               l4367 144E                                 l4359 1423  
                               l5159 0B0F                                 l5087 09E0  
                               l5079 09D1                                 l4535 1505  
                               l4527 14EA                                 l4519 14D6  
                               l4551 13E9                                 l4455 1F75  
                               l4471 164F                                 l4463 1641  
                               l4295 11B5                                 l4287 11A4  
                               l4439 1E6D                                 l4447 12B7  
                               l5191 1357                                 l5183 133D  
                               l4383 1FEC                                 l4375 1FD7  
                               l4391 11BF                                 l4711 0B8A  
                               l4703 0B6D                                 l4631 0889  
                               l4615 0859                                 l4623 0869  
                               l4607 0847                                 l5423 04AA  
                               l5415 045C                                 l5407 043E  
                               l5351 02E8                                 l5343 02CB  
                               l5319 026A                                 l5335 02AF  
                               l5271 0199                                 l5263 017D  
                               l5255 014D                                 l5247 0112  
                               l5239 00E2                                 l4369 1455  
                               l5097 09E9                                 l4529 14EE  
                               l4537 150B                                 l4561 140F  
                               l4553 13F0                                 l4545 13DC  
                               l4457 1F7C                                 l4449 1F62  
                               l4481 1664                                 l4473 1653  
                               l4465 1644                                 l4289 11A8  
                               l5185 1342                                 l4385 1FF2  
                               l4393 11C3                                 l4721 0BA9  
                               l4705 0B73                                 l4713 0B91  
                               l4801 08FD                                 l4633 0892  
                               l4641 08A0                                 l4625 086E  
                               l4617 085A                                 l4609 0849  
                               l5193 1FAE                                 l5409 0446  
                               l5417 047D                                 l5361 031A  
                               l5353 02EF                                 l5345 02D1  
                               l5337 02B5                                 l5281 01CA  
                               l5273 01A8                                 l5265 0183  
                               l5257 014F                                 l5249 0139  
                               l5099 09F6                                 l4539 1510  
                               l4563 1410                                 l4555 13F4  
                               l4547 13E0                                 l4571 12E5  
                               l4459 1F82                                 l4491 1687  
                               l4483 1667                                 l4475 1658  
                               l4467 1648                                 l4299 15D9  
                               l5187 1347                                 l5179 131F  
                               l4395 11D6                                 l4387 11BA  
                               l4731 0BD3                                 l4715 0B97  
                               l4707 0B77                                 l4811 092F  
                               l4803 0905                                 l4643 08A5  
                               l4635 0898                                 l4627 087B  
                               l4619 0867                                 l4651 08BC  
                               l5195 1FB3                                 l5419 048C  
                               l5371 0342                                 l5363 032B  
                               l5355 02F6                                 l5347 02D7  
                               l5339 02BB                                 l5291 01DD  
                               l5283 01CC                                 l5275 01B4  
                               l5267 0188                                 l5259 0163  
                               l5427 04B2                                 l4565 1417  
                               l4557 13F8                                 l4549 13E6  
                               l4581 12FD                                 l4573 12EB  
                               l4493 168D                                 l4485 166E  
                               l4477 165C                                 l4469 164D  
                               l4661 1573                                 l5189 1356  
                               l4397 11DD                                 l4389 11BB  
                               l4741 0BEB                                 l4717 0B9D  
                               l4725 0BB5                                 l4709 0B7F  
                               l4821 0967                                 l4813 0937  
                               l4805 090D                                 l4645 08AE  
                               l4629 0884                                 l5197 1FB7  
                               l5381 039F                                 l5373 0363  
                               l5365 033A                                 l5357 0305  
                               l5429 04D5                                 l5349 02DF  
                               l5293 01E4                                 l5277 01BB  
                               l5269 018F                                 l5285 01D0  
                               l4559 1409                                 l4567 141D  
                               l4583 1307                                 l4575 12EE  
                               l4903 0831                                 l4495 168E  
                               l4487 1672                                 l4479 165E  
                               l4655 151D                                 l4911 0699  
                               l4671 15D3                                 l4663 1579  
                               l4751 0C4C                                 l4743 0BF5  
                               l4727 0BBB                                 l4719 0BA1  
                               l4823 097F                                 l4807 091A  
                               l4815 093E                                 l4647 08B4  
                               l5199 1FBD                                 l5631 04BE  
                               l5391 03E0                                 l5383 03A7  
                               l5375 037B                                 l5359 0313  
                               l5295 01F3                                 l5287 01D6  
                               l5279 01C2                                 l4585 130D  
                               l4577 12F5                                 l5633 0FF4  
                               l4497 1695                                 l4489 1676  
                               l4657 1539                                 l4921 06BA  
                               l4913 0699                                 l4665 157E  
                               l4761 0C78                                 l4753 0C54  
                               l4745 0C04                                 l4737 0BD5  
                               l4729 0BC1                                 l4681 0B49  
                               l4673 0B39                                 l4825 0989  
                               l4817 0946                                 l4809 0922  
                               l4593 1E76                                 l4841 04FC  
                               l4833 04DF                                 l5393 03E8  
                               l5385 03B3                                 l5377 038C  
                               l5625 029E                                 l5297 01FB  
                               l5635 0AA8                                 l4587 1314  
                               l4579 12F9                                 l4499 169B  
                               l4659 1556                                 l4931 06D7  
                               l4923 06C0                                 l4915 06A1  
                               l4907 0692                                 l4667 158C  
                               l4763 0C87                                 l4771 0CAF  
                               l4747 0C13                                 l4739 0BDD  
                               l4755 0C59                                 l4691 0B50  
                               l4683 0B4C                                 l4675 0B3E  
                               l4827 09A0                                 l4819 0950  
                               l4595 1E7D                                 l4851 0523  
                               l4843 04FE                                 l4835 04E0  
                               l5395 03FD                                 l5387 03C2  
                               l5379 0399                                 l5627 035B  
                               l5299 0204                                 l4589 131A  
                               l4941 071A                                 l4933 0705  
                               l4925 06C7                                 l4917 06AB  
                               l4909 0698                                 l4669 15D2  
                               l4773 0CB6                                 l4765 0C94  
                               l4757 0C60                                 l4749 0C1A  
                               l4781 0CD6                                 l4685 0B4D  
                               l4677 0B46                                 l4693 0B56  
                               l4829 09B7                                 l4861 055C  
                               l4853 0531                                 l4845 0503  
                               l4837 04E8                                 l5629 0475  
                               l5397 0403                                 l5389 03D0  
                               l4951 0CDB                                 l4943 0729  
                               l4927 06CF                                 l4919 06B4  
                               l4775 0CC0                                 l4767 0CA3  
                               l4759 0C6A                                 l4695 0B5C  
                               l4687 0B4E                                 l4679 0B47  
                               l4791 08CD                                 l4599 0833  
                               l4863 0564                                 l4855 0539  
                               l4847 0506                                 l4839 04F6  
                               l5399 0412                                 l4961 0D6C  
                               l4953 0CE1                                 l4945 072F  
                               l4929 06D4                                 l4777 0CCF  
                               l4769 0CA9                                 l4689 0B4F  
                               l4793 08D3                                 l4785 08C1  
                               l4881 05C1                                 l4873 058C  
                               l4865 0571                                 l4857 0547  
                               l4849 051D                                 _ADFM 04FF  
                               l4963 0D6D                                 l4955 0D58  
                               l4947 073C                                 l4939 0707  
                               l4779 0CD2                                 l4699 0B5E  
                               l4795 08E0                                 l4787 08C7  
                               l4891 0678                                 l4883 065E  
                               l4875 059F                                 l4867 058A  
                               l4859 054F                                 ?_isr 0070  
                               l4981 0DA7                                 l4973 0D79  
                               l4965 0D71                                 l4957 0D65  
                               l4949 07BF                                 l4797 08E8  
                               l4789 08C9                                 l4893 068A  
                               l4877 05AE                                 l4991 0E26  
                               l4983 0DAD                                 l4975 0D7F  
                               l4959 0D6B                                 l4967 0D72  
                               l4895 0801                                 l4799 08F5  
                               l4879 05B4                                 l4993 0E68  
                               l4985 0DE4                                 l4977 0D8A  
                               l4969 0D77                                 l4897 081F  
                               l4889 0668                                 l4995 0E6E  
                               l4987 0DEA                                 l4979 0D90  
                               l4899 0825                                 l4997 0E78  
                               l4989 0DF4                                 l4999 0E7F  
                               _ADON 00F8                                 STR_1 1165  
                               STR_2 115B                                 STR_3 1101  
                               STR_4 1151                                 STR_5 10F2  
                               STR_6 106D                                 STR_7 10D2  
                               STR_8 107E                                 STR_9 104B  
                               _BRGH 04C2                                 _CREN 00C4  
                               u4010 150B                                 u4011 150A  
                               u4020 1510                                 u4100 12EB  
                               u4021 150F                                 u4005 14FF  
                               u4101 12EA                                 u4030 13E6  
                               u4031 13E5                                 u4120 12FD  
                               u4200 0859                                 u5000 01D6  
                               u4121 12FC                                 u4201 0858  
                               u5001 01D5                                 u4050 13F8  
                               u4130 1307                                 u4210 0867  
                               u5010 01DC                                 u4051 13F7  
                               u4131 1306                                 u4115 12EF  
                               u4211 0866                                 u5011 01DB  
                               u4300 0B3E                                 u4220 086E  
                               u5100 03D0                                 u5020 02B5  
                               u4045 13EA                                 u4301 0B3D  
                               u4221 086D                                 u5101 03CF  
                               u5021 02B4                                 u4070 1409  
                               u4150 131A                                 u4310 0B5C  
                               u4230 087B                                 u5110 03FD  
                               u5030 02BB                                 u4071 1408  
                               u4151 1319                                 u4135 1303  
                               u4311 0B5B                                 u4231 087A  
                               u4215 0863                                 u5111 03FC  
                               u5031 02BA                                 u3600 15FF  
                               u4400 0CAF                                 u4320 0B6D  
                               u4160 1E7D                                 u4240 0889  
                               u5120 0412                                 u5040 02C1  
                               u3505 1292                                 u4065 13F9  
                               u4145 130E                                 u3601 15FE  
                               u4401 0CAE                                 u4321 0B6C  
                               u4161 1E7C                                 u4241 0888  
                               u5121 0411                                 u5041 02C0  
                               u3450 1E62                                 u4090 141D  
                               u4330 0B73                                 u4410 08C7  
                               u4250 0892                                 u4170 0840  
                               u5130 0420                                 u5050 02D1  
                               u3451 1E61                                 u4091 141C  
                               u4075 1405                                 u3515 17AF  
                               u4331 0B72                                 u4411 08C6  
                               u4251 0891                                 u4235 0877  
                               u4171 083F                                 u5131 041F  
                               u5051 02D0                                 u3460 1E68  
                               u3540 1F3E                                 u3700 146B  
                               u3620 161A                                 u4340 0B97  
                               u4420 08D3                                 u4260 0898  
                               u4180 0845                                 u4500 04FC  
                               u5140 048C                                 u5060 02D7  
                               u3461 1E67                                 u3541 1F3D  
                               u3701 146A                                 u4085 1411  
                               u3525 17CB                                 u3621 1619  
                               u4341 0B96                                 u4421 08D2  
                               u4261 0897                                 u4181 0844  
                               u4501 04FB                                 u5141 048B  
                               u5125 040E                                 u5061 02D6  
                               u3470 1F58                                 u3550 1E4F  
                               u3710 1FFF                                 u4350 0B9D  
                               u4430 08E0                                 u4270 08A5  
                               u4190 0854                                 u4510 0503  
                               u5150 049A                                 u5070 0399  
                               u3471 1F57                                 u3535 17E7  
                               u3551 1E4E                                 u3615 1601  
                               u3711 1FFE                                 u4351 0B9C  
                               u4431 08DF                                 u4271 08A4  
                               u4191 0853                                 u4511 0502  
                               u5151 0499                                 u5071 0398  
                               u5207 032F                                 u3480 127F  
                               u3800 1F68                                 u3560 11A8  
                               u4600 06D4                                 u3640 1638  
                               u3720 11D6                                 u4360 0BBB  
                               u4440 08F5                                 u4280 08AE  
                               u4520 0523                                 u5080 03A7  
                               u3481 127B                                 u3801 1F67  
                               u3561 11A7                                 u4601 06D3  
                               u3641 1637                                 u3625 1616  
                               u3721 11D5                                 u5217 0BF1  
                               u4361 0BBA                                 u4441 08F4  
                               u4281 08AD                                 u4521 0522  
                               u5145 0488                                 u5081 03A6  
                               u3650 1242                                 u3570 11B5  
                               u4610 073C                                 u3730 11DD  
                               u4370 0BD3                                 u4450 090D  
                               u4290 08B4                                 u4530 0531  
                               u5090 03C2                                 u3651 1241  
                               u3571 11B4                                 u4611 073B  
                               u5307 16FB                                 u3635 162A  
                               u3715 1FFB                                 u3731 11DC  
                               u5227 0C66                                 u4371 0BD2  
                               u4451 090C                                 u4435 08DC  
                               u4291 08B3                                 u4531 0530  
                               u5091 03C1                                 _PEIE 005E  
                               u3900 1687                                 u3740 1FAC  
                               u4620 07CF                                 u3580 15EB  
                               u3660 13A6                                 u4380 0BDD  
                               u4460 091A                                 u4540 054F  
                               u3901 1686                                 u3741 1FAB  
                               u4621 07CE                                 u5317 1709  
                               u3581 15EA                                 u3661 13A5  
                               u5237 0C75                                 u4381 0BDC  
                               u4461 0919                                 u4445 08F1  
                               u4541 054E                                 u3494 1282  
                               u3750 1363                                 u3830 1F82  
                               u4710 0EC9                                 u4630 0CE1  
                               u3670 13D3                                 u4390 0C54  
                               u4470 092F                                 u4550 055C  
                               u3751 1362                                 u3831 1F81  
                               u3815 1F6F                                 u4711 0EC8  
                               u4631 0CE0                                 u4615 0738  
                               u5327 1715                                 u3671 13D2  
                               u5247 0CBC                                 u4391 0C53  
                               u4471 092E                                 u4551 055B  
                               u4535 052D                                 u5095 03BE  
                               u5167 0195                                 u3760 136F  
                               u3680 144D                                 u4800 09E0  
                               u4720 0ED8                                 u4640 0D77  
                               u3920 169B                                 u3840 1648  
                               u4480 0946                                 u4560 05C1  
                               u5337 1288                                 u3761 136E  
                               u3681 144C                                 u4801 09DF  
                               u3825 1F76                                 u4721 0ED7  
                               u4713 0EC5                                 u4705 0E5D  
                               u4641 0D76                                 u3921 169A  
                               u3905 1683                                 u3841 1647  
                               u4625 07CB                                 u5257 16AE  
                               u4481 0945                                 u4465 0916  
                               u4561 05C0                                 u5177 01BF  
                               u3770 1394                                 u3690 1454  
                               u4810 09E7                                 u4730 0EE3  
                               u4650 0D7F                                 u3930 16A0  
                               u3850 1653                                 u4570 068A  
                               u4490 04E8                                 u5347 129D  
                               u3771 1393                                 u3691 1453  
                               u4811 09E6                                 u4731 0EE2  
                               u4651 0D7E                                 u3931 169F  
                               u3915 168F                                 u3851 1652  
                               u5267 16BD                                 u3595 15F0  
                               u3675 13CF                                 u4475 092B  
                               u4571 0689                                 u4555 0558  
                               u4491 04E7                                 u5187 02F3  
                               u4820 09F6                                 u3940 14C6  
                               u4740 0EEE                                 u4660 0D90  
                               u4580 0825                                 u3860 1664  
                               u3780 1254                                 u4900 00BC  
                               _RCEN 048B                                 u5357 12A7  
                               u4821 09F5                                 u3941 14C5  
                               u4741 0EED                                 u4661 0D8F  
                               u4581 0824                                 u3861 1663  
                               u5277 16CB                                 u4573 0686  
                               u4565 05BD                                 u5197 0320  
                               u4901 00BB                                 u4830 0A15  
                               u3950 14D1                                 u4750 0EFA  
                               u4670 0DAD                                 u4590 06A1  
                               u3790 12C5                                 u4910 00E2  
                               u4831 0A14                                 u3951 14D0  
                               u4751 0EF9                                 u4671 0DAC  
                               u4591 06A0                                 u5287 16E1  
                               u4911 00E1                                 u4840 0A24  
                               u3960 14DC                                 u4760 0F01  
                               u3880 1676                                 u4920 00E8  
                               u4841 0A23                                 u4825 09F2  
                               u3961 14DB                                 u4761 0EFF  
                               u3881 1675                                 u5297 16ED  
                               u3785 124F                                 u4921 00E7  
                               u4850 0A5B                                 u4770 0F02  
                               u4930 010C                                 u4851 0A5A  
                               u4835 0A11                                 u3875 1668  
                               u3795 12C0                                 u4931 010B  
                               u4860 0A90                                 u3980 14EE  
                               u4780 0FC4                                 u4940 0112  
                               u4861 0A8F                                 u4845 0A20  
                               u3981 14ED                                 u4781 0FC3  
                               u4685 0DD9                                 u4941 0111  
                               u4870 0AB9                                 u4790 09C3  
                               u3990 14F8                                 u4950 0148  
                               u4871 0AB8                                 u4791 09C2  
                               u3991 14F7                                 u3975 14E0  
                               u4695 0E1B                                 u3895 1677  
                               u4951 0147                                 u4880 0ACD  
                               u4960 014D                                 u4881 0ACC  
                               u4961 014C                                 u4890 1FD3  
                               u4970 017D                                 u3995 14F4  
                               u4891 1FD2                                 u4971 017C  
                               u4980 0183                                 u4981 0182  
                               u4990 0188                                 u4991 0187  
                               _SPEN 00C7                                 _RSEN 0489  
                               _TXEN 04C5                                 _TXIF 0064  
                               _R_nW 04A2                                 _gear 00C6  
         __end_of_display_dash_board 1579                                 _main 0042  
                               _menu 00D2                                 _time 00BA  
                               btemp 007E                                 start 000E  
              clear_log@reset_memory 0078                    ___bmul@multiplier 0076  
                     ??_get_password 0020                       clcd_write@byte 0076  
                     clcd_write@mode 0073                  view_log@reset_shift 0029  
                      _i2c_rep_start 1E32                                ??_isr 0070  
                       ?_init_ds1307 0070                                ?_main 0070  
                       ?_read_ds1307 0070                                _ACKEN 048C  
                              _ACKDT 048D                       ??_display_time 0029  
                    __end_of___awdiv 16AA                                STR_10 10E2  
                              STR_11 105C                                STR_20 111D  
                              STR_12 1039                                STR_21 1137  
                              STR_13 1015                                STR_22 1024  
                              STR_14 1015                                STR_30 108F  
                              STR_23 1024                                STR_15 112A  
                              STR_31 110F                                STR_24 1024  
                              STR_40 1181                                STR_16 1144  
                              STR_32 10A0                                STR_25 1022  
                              STR_41 105C                                STR_33 1175  
                              STR_17 10B1                                STR_42 117C  
                              STR_18 116E                                STR_26 1027  
                              STR_34 1196                                STR_43 1193  
                              STR_19 10C2                                STR_27 1000  
                              STR_35 119C                                STR_28 1015  
                              STR_44 119F                                STR_36 1184  
                    __end_of___awmod 151A                                STR_29 1015  
                              STR_45 1199                                STR_37 1187  
                              STR_46 1190                                STR_38 118A  
                              STR_39 118D                      __end_of___lldiv 1641  
                        i2c_read@ack 0074                      ___awdiv@divisor 0073  
                    __end_of___lwdiv 1422                      __end_of___lwmod 131F  
                              i1l514 14B6                         ?_init_config 0070  
                    ___awdiv@counter 0020                                _SPBRG 0099  
                              _PORTB 0006                                _PORTD 0008  
                              _SSPM3 00A3                                _TRISB 0086  
                              _TRISD 0088                                _SSPEN 00A5  
                              _TXREG 0019                         ?_init_timer2 0070  
                       main@menu_pos 00E1                                _nDONE 00FA  
               login_menu@select_pos 0060                                _count 00A4  
                              _login 0B36                                main@i 00DF  
                       view_log@rlog 002C                      _change_password 09BB  
                              _putsx 1F87                         view_log@rpos 003D  
                              pclath 000A                 login_menu@reset_flag 0029  
                              status 0003                                wtemp0 007E  
                    __end_of_strncmp 1397                      __end_of_strncpy 146C  
                   init_ds1307@dummy 0021                      __initialization 0011  
                     ?_i2c_rep_start 0070                         __end_of_main 04DC  
                     login@npassword 00C1                     __end_of_i2c_read 1F62  
                   __end_of_i2c_stop 1E32                        ?_download_log 0070  
                             ??_main 0041                       login@spassword 002C  
                      get_password@i 0023                               _ADRESH 001E  
                             ?_login 0029                               _ADRESL 009E  
                   ___awdiv@dividend 0075                               ?_putsx 0074  
                       i2c_read@data 0075                               i1l3971 1472  
                             i1l3981 14AB                               i1l3973 1483  
                             i1l3975 1485                               i1l3983 14B3  
                             i1l3977 1494                               i1l3969 146C  
                             i1l3979 149C                               u341_20 1472  
                             u341_21 1471                               u342_20 1483  
                             u342_21 1482                               u343_20 1494  
                             u343_21 1493                               u343_25 1490  
                             u344_20 14AB                               u344_21 14AA  
                             u344_25 14A7                         _write_ds1307 1F02  
                             _TMR2IE 0461                               _TMR2IF 0061  
                             _TMR2ON 0092                               _SSPADD 0093  
                             _TRISE1 0449                               _TRISE2 044A  
                             _SSPBUF 0013                        login_menu@key 002D  
        __end_of_init_digital_keypad 1E09                     __end_of_get_time 1800  
                             ___bmul 11A2              _init_display_controller 16AA  
                             _access 0062                               ___wmul 1F62  
                          ??___awdiv 0077                            ??___awmod 0077  
                          ??___lldiv 0073         ??_ext_eeprom_24C02_str_write 0077  
                          ??___lwdiv 0077                        view_log@i_185 0039  
                          ??___lwmod 0077                               _count1 00A2  
                   __end_of_init_i2c 1277                     __end_of_init_adc 1E10  
                   __end_of_read_adc 1E88                       ??_download_log 0022  
                   ___awdiv@quotient 0022                      ___awmod@divisor 0073  
                       putchars@data 0073                      ___awmod@counter 0020  
                      view_log@shift 0051                               main@gr 00E5  
                             _strcmp 11B7                               _strcpy 1FAD  
       ?_ext_eeprom_24C02_byte_write 0074                        main@wait_time 00E6  
                  change_time@t_done 005A                               login@i 005E  
            __end_of_change_password 0B36                               saved_w 007E  
                   __end_of_view_log 0692                     __end_of_putchars 1E51  
               __end_of_get_password 2000                               putsx@s 0074  
                          ??_strncmp 0076                            ??_strncpy 0020  
            __end_of__initialization 003E                 __end_of_display_time 178B  
                    ??_i2c_rep_start 0073                  ___bmul@multiplicand 0073  
                     __pcstackCOMMON 0070                         __pidataBANK0 1E18  
                       __pidataBANK1 1EB0                        __end_of_login 0CD8  
                      __end_of_putsx 1FAD                      login@reset_flag 0029  
                  __end_of_i2c_start 1E29                    __end_of_i2c_write 1E46  
      ??_ext_eeprom_24C02_byte_write 0075                    _i2c_wait_for_idle 1E5C  
                    change_time@wait 005C                              ??_login 002A  
                            ??_putsx 0076                   ?_i2c_wait_for_idle 0070  
                         __pbssBANK0 0044                           __pbssBANK1 00A0  
                          ?_i2c_read 0070                            ?_i2c_stop 0070  
          ??_init_display_controller 0077                           _clcd_print 1210  
                ??_i2c_wait_for_idle 0073                           _clcd_putch 1E9B  
                         _clcd_write 1277                _ext_eeprom_24C02_read 07D0  
                         __pmaintext 0042                      read_ds1307@addr 0077  
                      _log_car_event 1579                      read_ds1307@data 0078  
                            ?___bmul 0073                              ?___wmul 0073  
                         __pintentry 0004                   _display_dash_board 151A  
                            _ACKSTAT 048E                              ?_strcmp 0073  
                            ?_strcpy 0073                              _T2CKPS0 0090  
                            _T2CKPS1 0091                  ?_display_dash_board 002A  
        __end_of_read_digital_keypad 08BE                     ?_change_password 0029  
          __end_of_i2c_wait_for_idle 1E69                         init_i2c@baud 0028  
                            _SSPCON2 0091                            ?_get_time 0070  
                         __stringtab 1800                           ??_i2c_read 0073  
                         ??_i2c_stop 0073                            ?_init_i2c 0028  
               __end_of_download_log 07D0                            ?_init_adc 0070  
                          ?_read_adc 0073                    __end_of_clear_log 0833  
               ??_display_dash_board 002B                       ?_log_car_event 0024  
                 change_password@key 002C                get_password@spassword 0022  
 __end_of_ext_eeprom_24C02_str_write 1F3F           _ext_eeprom_24C02_str_write 1F20  
          ext_eeprom_24C02_read@addr 0077            ext_eeprom_24C02_read@data 0078  
                            ___awdiv 1641                              ___awmod 14BF  
                          ?_view_log 0029                              ___lldiv 15D9  
                            ___lwdiv 13DC                              ___lwmod 12E5  
                          ?_putchars 0070                     main@control_flag 00E9  
                            __ptext1 04DC                              __ptext2 1FAD  
                            __ptext3 0833                              __ptext4 1E76  
                            __ptext5 08BE                              __ptext6 0B36  
                            __ptext7 11B7                              __ptext8 1FD4  
                            __ptext9 1579                     login@attempt_rem 005D  
    __end_of_init_display_controller 1719                    __end_of_init_clcd 1E5C  
             read_digital_keypad@key 0074                    __end_of_init_uart 12E5  
                   ___awmod@dividend 0075                        ??_change_time 002A  
                     main@reset_flag 00EA                    __end_of_log_event 13DC  
                         _login_menu 08BE                              main@key 00EB  
                            clrloop0 1E11                           ??_get_time 0020  
                            _strncmp 1359                              _strncpy 1422  
               end_of_initialization 003E               change_password@n_p_pos 004D  
                         ??_init_i2c 002C                           ??_init_adc 0073  
                         ??_read_adc 0075               ?_ext_eeprom_24C02_read 0070  
                        ?_clcd_print 0020                          ?_clcd_putch 0027  
                    ___lldiv@divisor 0020                          ?_clcd_write 0073  
                    ___lldiv@counter 0078                           ??_view_log 002A  
                       _get_password 1FD4                         __pstringtext 1000  
                         ??_putchars 0073                              strcmp@r 0020  
                       _display_time 1719                        i2c_write@data 0073  
                      clcd_print@str 0020                         log_event@add 0022  
                __end_of_change_time 1000                      ??_log_car_event 0027  
                     __end_of___bmul 11B7                       __end_of___wmul 1F87  
                        view_log@add 0037                          view_log@key 0038  
                     __end_of_strcmp 11E3                       __end_of_strcpy 1FD4  
                start_initialization 0011                          ?_login_menu 0029  
                          _i2c_start 1E20                          __end_of_isr 14BF  
                          _i2c_write 1E3B       ext_eeprom_24C02_str_write@addr 0078  
     ext_eeprom_24C02_str_write@data 0076                __end_of_i2c_rep_start 1E3B  
                           ??___bmul 0074                             ??___wmul 0077  
                         init_fetch0 1E88                     change_time@blink 005B  
                      ??_init_ds1307 0020                 change_password@p_chg 0059  
                        __pdataBANK0 0060                          __pdataBANK1 00C6  
                   change_time@dummy 0033           read_digital_keypad@pre_key 0079  
               change_password@r_pwd 00B1                        ??_read_ds1307 0076  
                       _download_log 0692                             ??_strcmp 0075  
                           ??_strcpy 0075                        ??_init_config 0079  
              change_time@reset_time 0029                        ??_init_timer2 0073  
                        __pbssCOMMON 0079                            ___latbits 0002  
                      __pcstackBANK0 0020                        __pcstackBANK1 00DF  
                        _change_time 0CD8                           ?_i2c_start 0070  
                         ?_i2c_write 0070              display_dash_board@event 002E  
            display_dash_board@speed 002A                       change_time@key 0032  
                       change_time@i 002E                     ___lwdiv@dividend 0022  
                          _clear_log 0800          ?_ext_eeprom_24C02_str_write 0076  
                           ?___awdiv 0073                             ?___awmod 0073  
                           ?___lldiv 0020                             ?___lwdiv 0020  
                          _clock_reg 004A                             ?___lwmod 0073  
                          __pstrings 1800  __end_of_ext_eeprom_24C02_byte_write 1F02  
        _ext_eeprom_24C02_byte_write 1EE4                  __end_of_init_ds1307 1EE4  
                read_adc@adc_reg_val 0075                  __end_of_read_ds1307 1210  
                   ___lwdiv@quotient 0025                            _init_clcd 1E51  
                __end_of_init_config 1359                            _init_uart 12AD  
                           ?_strncmp 0073                             ?_strncpy 0073  
     read_digital_keypad@longpressed 0066                            _log_event 1397  
                      ?_write_ds1307 0074              ??_ext_eeprom_24C02_read 0076  
                __end_of_init_timer2 1E76             ?_init_display_controller 0070  
                  interrupt_function 0004                       ___wmul@product 0077  
                          clear_ram0 1E10                          strncpy@from 0073  
                        strncpy@size 0075                         ??_clcd_print 0077  
                       ??_clcd_putch 0079                         ??_clcd_write 0074  
                         ?_clear_log 0070                            main@F1013 00DC  
                      download_log@i 0034                 change_time@blink_pos 004F  
                        __stringbase 1812                    ___wmul@multiplier 0073  
                          main@event 00E2                            main@speed 00E8  
                        ??_i2c_start 0073                   __end_of_clcd_print 1243  
                        ??_i2c_write 0073                   __end_of_clcd_putch 1EB0  
                 __end_of_clcd_write 12AD                           ?_init_clcd 0070  
                         ?_init_uart 0028                       ??_write_ds1307 0075  
                         ?_log_event 0070                  _init_digital_keypad 1E03  
                           _i2c_read 1F3F                             _i2c_stop 1E29  
           change_password@reset_pwd 0029                 ?_init_digital_keypad 0070  
                        _init_ds1307 1EC9                   __end_of__stringtab 1812  
                        _read_ds1307 11E3                          _init_config 131F  
                       ??_login_menu 002A                          _init_timer2 1E69  
                    ___lwdiv@divisor 0020                      ___lwdiv@counter 0024  
                           __ptext10 1397                             __ptext11 131F  
                           __ptext20 1E09                             __ptext12 12AD  
                           __ptext21 0692                             __ptext13 1E69  
                           __ptext30 0CD8                             __ptext22 1F87  
                           __ptext14 1243                             __ptext31 1F02  
                           __ptext23 1E46                             __ptext15 15D9  
                           __ptext40 09BB                             __ptext32 178B  
                           __ptext24 07D0                             __ptext16 1EC9  
                           __ptext41 1422                             __ptext33 11E3  
                           __ptext25 11A2                             __ptext17 1E03  
                           __ptext50 1210                             __ptext42 1359  
                           __ptext34 1E32                             __ptext26 151A  
                           __ptext18 1E51                             __ptext51 1277  
                           __ptext43 1F20                             __ptext35 1F3F  
                           __ptext27 1719                             __ptext19 16AA  
                           __ptext52 146C                             __ptext44 1EE4  
                           __ptext36 1F62                             __ptext28 1641  
                           __ptext45 1E3B                             __ptext37 12E5  
                           __ptext29 0800                             __ptext46 1E29  
                           __ptext38 13DC                             __ptext47 1E20  
                           __ptext39 14BF                             __ptext48 1E5C  
                           __ptext49 1E9B      ext_eeprom_24C02_byte_write@addr 0075  
    ext_eeprom_24C02_byte_write@data 0074                             _get_time 178B  
                         strcpy@from 0073                             _init_i2c 1243  
                           _init_adc 1E09                             _read_adc 1E76  
            read_digital_keypad@once 007A                           strncmp@len 0074  
              __end_of_log_car_event 15D9                          ??_clear_log 0077  
                  ??_change_password 002A                             _overflow 005F  
                 __end_of_login_menu 09BB                             _view_log 04DC  
              ??_init_digital_keypad 0073                             _putchars 1E46  
                          view_log@i 003F                             isr@count 00A0  
                change_time@new_time 0044                         ?_change_time 0029  
                           init_ram0 1E8C                          ??_init_clcd 0079  
                        ??_init_uart 002C                             login@key 0031  
                        ??_log_event 0020                             intlevel1 0000  
                      init_uart@baud 0028                     ___lwmod@dividend 0075  
                   ___lldiv@dividend 0024                            strncmp@s1 0078  
                          strncmp@s2 0073                            stringcode 180A  
                          strncpy@cp 0078                            strncpy@to 0077  
               __end_of_write_ds1307 1F20                  _read_digital_keypad 0833  
                           strcmp@s1 0021                             strcmp@s2 0073  
                   ___lldiv@quotient 0074                      ___lwmod@divisor 0073  
                           strcpy@cp 0076                             strcpy@to 0077  
                    ___lwmod@counter 0078                             stringtab 1800  
                        _return_time 0055                 ?_read_digital_keypad 0070  
                   write_ds1307@addr 0075                     write_ds1307@data 0074  
      __end_of_ext_eeprom_24C02_read 07FD                     download_log@next 0032  
                    download_log@add 002F                     download_log@rlog 0024  
                   download_log@rpos 0030  
